SF:/Users/andreasbigger/kona/bin/client/src/fpvm_evm/factory.rs
FN:61,_RINvXININtNtCsagClJoJoeWA_11kona_client8fpvm_evm7factorys_0ppEINtB6_16FpvmOpEvmFactoryppENtNtCs4Guiruz9N8V_9alloy_evm3evm10EvmFactory10create_evmpEBa_
FN:81,_RINvXININtNtCsagClJoJoeWA_11kona_client8fpvm_evm7factorys_0ppEINtB6_16FpvmOpEvmFactoryppENtNtCs4Guiruz9N8V_9alloy_evm3evm10EvmFactory25create_evm_with_inspectorppEBa_
FN:38,_RNvMNtNtCsagClJoJoeWA_11kona_client8fpvm_evm7factoryINtB2_16FpvmOpEvmFactoryppE11hint_writerB6_
FN:43,_RNvMNtNtCsagClJoJoeWA_11kona_client8fpvm_evm7factoryINtB2_16FpvmOpEvmFactoryppE13oracle_readerB6_
FN:33,_RNvMNtNtCsagClJoJoeWA_11kona_client8fpvm_evm7factoryINtB2_16FpvmOpEvmFactoryppE3newB6_
FNDA:0,_RINvXININtNtCsagClJoJoeWA_11kona_client8fpvm_evm7factorys_0ppEINtB6_16FpvmOpEvmFactoryppENtNtCs4Guiruz9N8V_9alloy_evm3evm10EvmFactory10create_evmpEBa_
FNDA:0,_RINvXININtNtCsagClJoJoeWA_11kona_client8fpvm_evm7factorys_0ppEINtB6_16FpvmOpEvmFactoryppENtNtCs4Guiruz9N8V_9alloy_evm3evm10EvmFactory25create_evm_with_inspectorppEBa_
FNDA:0,_RNvMNtNtCsagClJoJoeWA_11kona_client8fpvm_evm7factoryINtB2_16FpvmOpEvmFactoryppE11hint_writerB6_
FNDA:0,_RNvMNtNtCsagClJoJoeWA_11kona_client8fpvm_evm7factoryINtB2_16FpvmOpEvmFactoryppE13oracle_readerB6_
FNDA:0,_RNvMNtNtCsagClJoJoeWA_11kona_client8fpvm_evm7factoryINtB2_16FpvmOpEvmFactoryppE3newB6_
FNF:5
FNH:0
DA:33,0
DA:34,0
DA:35,0
DA:38,0
DA:39,0
DA:40,0
DA:43,0
DA:44,0
DA:45,0
DA:61,0
DA:62,0
DA:63,0
DA:64,0
DA:65,0
DA:66,0
DA:67,0
DA:68,0
DA:69,0
DA:70,0
DA:71,0
DA:72,0
DA:73,0
DA:74,0
DA:75,0
DA:76,0
DA:77,0
DA:78,0
DA:79,0
DA:81,0
DA:82,0
DA:83,0
DA:84,0
DA:85,0
DA:86,0
DA:87,0
DA:88,0
DA:89,0
DA:90,0
DA:91,0
DA:92,0
DA:93,0
DA:94,0
DA:95,0
DA:96,0
DA:97,0
DA:98,0
DA:99,0
DA:100,0
BRF:0
BRH:0
LF:48
LH:0
end_of_record
SF:/Users/andreasbigger/kona/bin/client/src/fpvm_evm/precompiles/bls12_g1_add.rs
FN:21,_RINvNtNtNtCsagClJoJoeWA_11kona_client8fpvm_evm11precompiles12bls12_g1_add17fpvm_bls12_g1_addINtNtCsbcJAgMR32cv_13kona_preimage4hint10HintWriterNtNtB1x_14native_channel13NativeChannelEINtNtB1x_6oracle12OracleReaderB2h_EEB8_
FN:47,_RNCINvNtNtNtCsagClJoJoeWA_11kona_client8fpvm_evm11precompiles12bls12_g1_add17fpvm_bls12_g1_addINtNtCsbcJAgMR32cv_13kona_preimage4hint10HintWriterNtNtB1z_14native_channel13NativeChannelEINtNtB1z_6oracle12OracleReaderB2j_EE0Ba_
FN:61,_RNCNCNvNtNtNtNtCsagClJoJoeWA_11kona_client8fpvm_evm11precompiles12bls12_g1_add4tests_33test_accelerated_bls12_381_g1_add00Bd_
FN:91,_RNCNCNvNtNtNtNtCsagClJoJoeWA_11kona_client8fpvm_evm11precompiles12bls12_g1_add4tests_47test_accelerated_bls12_381_g1_add_bad_gas_limit00Bd_
FN:81,_RNCNCNvNtNtNtNtCsagClJoJoeWA_11kona_client8fpvm_evm11precompiles12bls12_g1_add4tests_47test_accelerated_bls12_381_g1_add_bad_input_len00Bd_
FN:60,_RNCNvNtNtNtNtCsagClJoJoeWA_11kona_client8fpvm_evm11precompiles12bls12_g1_add4tests_33test_accelerated_bls12_381_g1_add0Bb_
FN:90,_RNCNvNtNtNtNtCsagClJoJoeWA_11kona_client8fpvm_evm11precompiles12bls12_g1_add4tests_47test_accelerated_bls12_381_g1_add_bad_gas_limit0Bb_
FN:80,_RNCNvNtNtNtNtCsagClJoJoeWA_11kona_client8fpvm_evm11precompiles12bls12_g1_add4tests_47test_accelerated_bls12_381_g1_add_bad_input_len0Bb_
FN:60,_RNvNtNtNtNtCsagClJoJoeWA_11kona_client8fpvm_evm11precompiles12bls12_g1_add4tests_33test_accelerated_bls12_381_g1_add
FN:90,_RNvNtNtNtNtCsagClJoJoeWA_11kona_client8fpvm_evm11precompiles12bls12_g1_add4tests_47test_accelerated_bls12_381_g1_add_bad_gas_limit
FN:80,_RNvNtNtNtNtCsagClJoJoeWA_11kona_client8fpvm_evm11precompiles12bls12_g1_add4tests_47test_accelerated_bls12_381_g1_add_bad_input_len
FNDA:3,_RINvNtNtNtCsagClJoJoeWA_11kona_client8fpvm_evm11precompiles12bls12_g1_add17fpvm_bls12_g1_addINtNtCsbcJAgMR32cv_13kona_preimage4hint10HintWriterNtNtB1x_14native_channel13NativeChannelEINtNtB1x_6oracle12OracleReaderB2h_EEB8_
FNDA:0,_RNCINvNtNtNtCsagClJoJoeWA_11kona_client8fpvm_evm11precompiles12bls12_g1_add17fpvm_bls12_g1_addINtNtCsbcJAgMR32cv_13kona_preimage4hint10HintWriterNtNtB1z_14native_channel13NativeChannelEINtNtB1z_6oracle12OracleReaderB2j_EE0Ba_
FNDA:1,_RNCNCNvNtNtNtNtCsagClJoJoeWA_11kona_client8fpvm_evm11precompiles12bls12_g1_add4tests_33test_accelerated_bls12_381_g1_add00Bd_
FNDA:1,_RNCNCNvNtNtNtNtCsagClJoJoeWA_11kona_client8fpvm_evm11precompiles12bls12_g1_add4tests_47test_accelerated_bls12_381_g1_add_bad_gas_limit00Bd_
FNDA:1,_RNCNCNvNtNtNtNtCsagClJoJoeWA_11kona_client8fpvm_evm11precompiles12bls12_g1_add4tests_47test_accelerated_bls12_381_g1_add_bad_input_len00Bd_
FNDA:1,_RNCNvNtNtNtNtCsagClJoJoeWA_11kona_client8fpvm_evm11precompiles12bls12_g1_add4tests_33test_accelerated_bls12_381_g1_add0Bb_
FNDA:1,_RNCNvNtNtNtNtCsagClJoJoeWA_11kona_client8fpvm_evm11precompiles12bls12_g1_add4tests_47test_accelerated_bls12_381_g1_add_bad_gas_limit0Bb_
FNDA:1,_RNCNvNtNtNtNtCsagClJoJoeWA_11kona_client8fpvm_evm11precompiles12bls12_g1_add4tests_47test_accelerated_bls12_381_g1_add_bad_input_len0Bb_
FNDA:1,_RNvNtNtNtNtCsagClJoJoeWA_11kona_client8fpvm_evm11precompiles12bls12_g1_add4tests_33test_accelerated_bls12_381_g1_add
FNDA:1,_RNvNtNtNtNtCsagClJoJoeWA_11kona_client8fpvm_evm11precompiles12bls12_g1_add4tests_47test_accelerated_bls12_381_g1_add_bad_gas_limit
FNDA:1,_RNvNtNtNtNtCsagClJoJoeWA_11kona_client8fpvm_evm11precompiles12bls12_g1_add4tests_47test_accelerated_bls12_381_g1_add_bad_input_len
FNF:11
FNH:10
DA:21,3
DA:22,3
DA:23,3
DA:24,3
DA:25,3
DA:26,3
DA:27,3
DA:28,3
DA:29,3
DA:30,3
DA:31,3
DA:32,1
DA:33,2
DA:34,2
DA:35,2
DA:36,2
DA:37,1
DA:38,1
DA:39,1
DA:40,1
DA:42,1
DA:43,1
DA:44,1
DA:45,1
DA:46,1
DA:47,1
DA:49,1
DA:50,3
DA:60,1
DA:61,1
DA:62,1
DA:63,1
DA:64,1
DA:65,1
DA:66,1
DA:67,1
DA:68,1
DA:69,1
DA:70,1
DA:71,1
DA:72,1
DA:73,1
DA:74,1
DA:75,1
DA:76,1
DA:77,1
DA:80,1
DA:81,1
DA:82,1
DA:83,1
DA:84,1
DA:85,1
DA:86,1
DA:87,1
DA:90,1
DA:91,1
DA:92,1
DA:93,1
DA:94,1
DA:95,1
DA:96,1
DA:97,1
BRF:0
BRH:0
LF:100
LH:99
end_of_record
SF:/Users/andreasbigger/kona/bin/client/src/fpvm_evm/precompiles/bls12_g1_msm.rs
FN:75,_RNCNvNtNtNtNtCsagClJoJoeWA_11kona_client8fpvm_evm11precompiles12bls12_g1_msm4tests_33test_accelerated_bls12_381_g1_msm0Bb_
FN:117,_RNCNvNtNtNtNtCsagClJoJoeWA_11kona_client8fpvm_evm11precompiles12bls12_g1_msm4tests_47test_accelerated_bls12_381_g1_msm_bad_gas_limit0Bb_
FN:107,_RNCNvNtNtNtNtCsagClJoJoeWA_11kona_client8fpvm_evm11precompiles12bls12_g1_msm4tests_47test_accelerated_bls12_381_g1_msm_bad_input_len0Bb_
FN:92,_RNCNvNtNtNtNtCsagClJoJoeWA_11kona_client8fpvm_evm11precompiles12bls12_g1_msm4tests_55test_accelerated_bls12_381_g1_msm_bad_input_len_isthmus0Bb_
FN:75,_RNvNtNtNtNtCsagClJoJoeWA_11kona_client8fpvm_evm11precompiles12bls12_g1_msm4tests_33test_accelerated_bls12_381_g1_msm
FN:117,_RNvNtNtNtNtCsagClJoJoeWA_11kona_client8fpvm_evm11precompiles12bls12_g1_msm4tests_47test_accelerated_bls12_381_g1_msm_bad_gas_limit
FN:107,_RNvNtNtNtNtCsagClJoJoeWA_11kona_client8fpvm_evm11precompiles12bls12_g1_msm4tests_47test_accelerated_bls12_381_g1_msm_bad_input_len
FN:92,_RNvNtNtNtNtCsagClJoJoeWA_11kona_client8fpvm_evm11precompiles12bls12_g1_msm4tests_55test_accelerated_bls12_381_g1_msm_bad_input_len_isthmus
FN:76,_RNCNCNvNtNtNtNtCsagClJoJoeWA_11kona_client8fpvm_evm11precompiles12bls12_g1_msm4tests_33test_accelerated_bls12_381_g1_msm00Bd_
FN:118,_RNCNCNvNtNtNtNtCsagClJoJoeWA_11kona_client8fpvm_evm11precompiles12bls12_g1_msm4tests_47test_accelerated_bls12_381_g1_msm_bad_gas_limit00Bd_
FN:108,_RNCNCNvNtNtNtNtCsagClJoJoeWA_11kona_client8fpvm_evm11precompiles12bls12_g1_msm4tests_47test_accelerated_bls12_381_g1_msm_bad_input_len00Bd_
FN:93,_RNCNCNvNtNtNtNtCsagClJoJoeWA_11kona_client8fpvm_evm11precompiles12bls12_g1_msm4tests_55test_accelerated_bls12_381_g1_msm_bad_input_len_isthmus00Bd_
FN:23,_RINvNtNtNtCsagClJoJoeWA_11kona_client8fpvm_evm11precompiles12bls12_g1_msm17fpvm_bls12_g1_msmINtNtCsbcJAgMR32cv_13kona_preimage4hint10HintWriterNtNtB1x_14native_channel13NativeChannelEINtNtB1x_6oracle12OracleReaderB2h_EEB8_
FN:60,_RNCINvNtNtNtCsagClJoJoeWA_11kona_client8fpvm_evm11precompiles12bls12_g1_msm17fpvm_bls12_g1_msmINtNtCsbcJAgMR32cv_13kona_preimage4hint10HintWriterNtNtB1z_14native_channel13NativeChannelEINtNtB1z_6oracle12OracleReaderB2j_EE0Ba_
FNDA:1,_RNCNvNtNtNtNtCsagClJoJoeWA_11kona_client8fpvm_evm11precompiles12bls12_g1_msm4tests_33test_accelerated_bls12_381_g1_msm0Bb_
FNDA:1,_RNCNvNtNtNtNtCsagClJoJoeWA_11kona_client8fpvm_evm11precompiles12bls12_g1_msm4tests_47test_accelerated_bls12_381_g1_msm_bad_gas_limit0Bb_
FNDA:1,_RNCNvNtNtNtNtCsagClJoJoeWA_11kona_client8fpvm_evm11precompiles12bls12_g1_msm4tests_47test_accelerated_bls12_381_g1_msm_bad_input_len0Bb_
FNDA:1,_RNCNvNtNtNtNtCsagClJoJoeWA_11kona_client8fpvm_evm11precompiles12bls12_g1_msm4tests_55test_accelerated_bls12_381_g1_msm_bad_input_len_isthmus0Bb_
FNDA:1,_RNvNtNtNtNtCsagClJoJoeWA_11kona_client8fpvm_evm11precompiles12bls12_g1_msm4tests_33test_accelerated_bls12_381_g1_msm
FNDA:1,_RNvNtNtNtNtCsagClJoJoeWA_11kona_client8fpvm_evm11precompiles12bls12_g1_msm4tests_47test_accelerated_bls12_381_g1_msm_bad_gas_limit
FNDA:1,_RNvNtNtNtNtCsagClJoJoeWA_11kona_client8fpvm_evm11precompiles12bls12_g1_msm4tests_47test_accelerated_bls12_381_g1_msm_bad_input_len
FNDA:1,_RNvNtNtNtNtCsagClJoJoeWA_11kona_client8fpvm_evm11precompiles12bls12_g1_msm4tests_55test_accelerated_bls12_381_g1_msm_bad_input_len_isthmus
FNDA:1,_RNCNCNvNtNtNtNtCsagClJoJoeWA_11kona_client8fpvm_evm11precompiles12bls12_g1_msm4tests_33test_accelerated_bls12_381_g1_msm00Bd_
FNDA:1,_RNCNCNvNtNtNtNtCsagClJoJoeWA_11kona_client8fpvm_evm11precompiles12bls12_g1_msm4tests_47test_accelerated_bls12_381_g1_msm_bad_gas_limit00Bd_
FNDA:1,_RNCNCNvNtNtNtNtCsagClJoJoeWA_11kona_client8fpvm_evm11precompiles12bls12_g1_msm4tests_47test_accelerated_bls12_381_g1_msm_bad_input_len00Bd_
FNDA:1,_RNCNCNvNtNtNtNtCsagClJoJoeWA_11kona_client8fpvm_evm11precompiles12bls12_g1_msm4tests_55test_accelerated_bls12_381_g1_msm_bad_input_len_isthmus00Bd_
FNDA:4,_RINvNtNtNtCsagClJoJoeWA_11kona_client8fpvm_evm11precompiles12bls12_g1_msm17fpvm_bls12_g1_msmINtNtCsbcJAgMR32cv_13kona_preimage4hint10HintWriterNtNtB1x_14native_channel13NativeChannelEINtNtB1x_6oracle12OracleReaderB2h_EEB8_
FNDA:0,_RNCINvNtNtNtCsagClJoJoeWA_11kona_client8fpvm_evm11precompiles12bls12_g1_msm17fpvm_bls12_g1_msmINtNtCsbcJAgMR32cv_13kona_preimage4hint10HintWriterNtNtB1z_14native_channel13NativeChannelEINtNtB1z_6oracle12OracleReaderB2j_EE0Ba_
FNF:14
FNH:13
DA:23,4
DA:24,4
DA:25,4
DA:26,4
DA:27,4
DA:28,4
DA:29,4
DA:30,4
DA:31,4
DA:32,4
DA:33,4
DA:34,1
DA:35,1
DA:36,1
DA:37,1
DA:38,3
DA:39,3
DA:40,3
DA:41,3
DA:42,1
DA:43,1
DA:44,1
DA:45,1
DA:46,1
DA:47,2
DA:48,2
DA:49,2
DA:50,2
DA:51,2
DA:52,1
DA:53,1
DA:55,1
DA:56,1
DA:57,1
DA:58,1
DA:59,1
DA:60,1
DA:62,1
DA:63,4
DA:75,1
DA:76,1
DA:77,1
DA:78,1
DA:79,1
DA:80,1
DA:81,1
DA:82,1
DA:83,1
DA:84,1
DA:85,1
DA:86,1
DA:87,1
DA:88,1
DA:89,1
DA:92,1
DA:93,1
DA:94,1
DA:95,1
DA:96,1
DA:97,1
DA:98,1
DA:99,1
DA:100,1
DA:101,1
DA:102,1
DA:103,1
DA:104,1
DA:107,1
DA:108,1
DA:109,1
DA:110,1
DA:111,1
DA:112,1
DA:113,1
DA:114,1
DA:117,1
DA:118,1
DA:119,1
DA:120,1
DA:121,1
DA:122,1
DA:123,1
DA:124,1
DA:125,1
BRF:0
BRH:0
LF:134
LH:133
end_of_record
SF:/Users/andreasbigger/kona/bin/client/src/fpvm_evm/precompiles/bls12_g2_add.rs
FN:60,_RNCNvNtNtNtNtCsagClJoJoeWA_11kona_client8fpvm_evm11precompiles12bls12_g2_add4tests_33test_accelerated_bls12_381_g2_add0Bb_
FN:90,_RNCNvNtNtNtNtCsagClJoJoeWA_11kona_client8fpvm_evm11precompiles12bls12_g2_add4tests_47test_accelerated_bls12_381_g2_add_bad_gas_limit0Bb_
FN:80,_RNCNvNtNtNtNtCsagClJoJoeWA_11kona_client8fpvm_evm11precompiles12bls12_g2_add4tests_47test_accelerated_bls12_381_g2_add_bad_input_len0Bb_
FN:60,_RNvNtNtNtNtCsagClJoJoeWA_11kona_client8fpvm_evm11precompiles12bls12_g2_add4tests_33test_accelerated_bls12_381_g2_add
FN:90,_RNvNtNtNtNtCsagClJoJoeWA_11kona_client8fpvm_evm11precompiles12bls12_g2_add4tests_47test_accelerated_bls12_381_g2_add_bad_gas_limit
FN:80,_RNvNtNtNtNtCsagClJoJoeWA_11kona_client8fpvm_evm11precompiles12bls12_g2_add4tests_47test_accelerated_bls12_381_g2_add_bad_input_len
FN:21,_RINvNtNtNtCsagClJoJoeWA_11kona_client8fpvm_evm11precompiles12bls12_g2_add17fpvm_bls12_g2_addINtNtCsbcJAgMR32cv_13kona_preimage4hint10HintWriterNtNtB1x_14native_channel13NativeChannelEINtNtB1x_6oracle12OracleReaderB2h_EEB8_
FN:47,_RNCINvNtNtNtCsagClJoJoeWA_11kona_client8fpvm_evm11precompiles12bls12_g2_add17fpvm_bls12_g2_addINtNtCsbcJAgMR32cv_13kona_preimage4hint10HintWriterNtNtB1z_14native_channel13NativeChannelEINtNtB1z_6oracle12OracleReaderB2j_EE0Ba_
FN:61,_RNCNCNvNtNtNtNtCsagClJoJoeWA_11kona_client8fpvm_evm11precompiles12bls12_g2_add4tests_33test_accelerated_bls12_381_g2_add00Bd_
FN:91,_RNCNCNvNtNtNtNtCsagClJoJoeWA_11kona_client8fpvm_evm11precompiles12bls12_g2_add4tests_47test_accelerated_bls12_381_g2_add_bad_gas_limit00Bd_
FN:81,_RNCNCNvNtNtNtNtCsagClJoJoeWA_11kona_client8fpvm_evm11precompiles12bls12_g2_add4tests_47test_accelerated_bls12_381_g2_add_bad_input_len00Bd_
FNDA:1,_RNCNvNtNtNtNtCsagClJoJoeWA_11kona_client8fpvm_evm11precompiles12bls12_g2_add4tests_33test_accelerated_bls12_381_g2_add0Bb_
FNDA:1,_RNCNvNtNtNtNtCsagClJoJoeWA_11kona_client8fpvm_evm11precompiles12bls12_g2_add4tests_47test_accelerated_bls12_381_g2_add_bad_gas_limit0Bb_
FNDA:1,_RNCNvNtNtNtNtCsagClJoJoeWA_11kona_client8fpvm_evm11precompiles12bls12_g2_add4tests_47test_accelerated_bls12_381_g2_add_bad_input_len0Bb_
FNDA:1,_RNvNtNtNtNtCsagClJoJoeWA_11kona_client8fpvm_evm11precompiles12bls12_g2_add4tests_33test_accelerated_bls12_381_g2_add
FNDA:1,_RNvNtNtNtNtCsagClJoJoeWA_11kona_client8fpvm_evm11precompiles12bls12_g2_add4tests_47test_accelerated_bls12_381_g2_add_bad_gas_limit
FNDA:1,_RNvNtNtNtNtCsagClJoJoeWA_11kona_client8fpvm_evm11precompiles12bls12_g2_add4tests_47test_accelerated_bls12_381_g2_add_bad_input_len
FNDA:3,_RINvNtNtNtCsagClJoJoeWA_11kona_client8fpvm_evm11precompiles12bls12_g2_add17fpvm_bls12_g2_addINtNtCsbcJAgMR32cv_13kona_preimage4hint10HintWriterNtNtB1x_14native_channel13NativeChannelEINtNtB1x_6oracle12OracleReaderB2h_EEB8_
FNDA:0,_RNCINvNtNtNtCsagClJoJoeWA_11kona_client8fpvm_evm11precompiles12bls12_g2_add17fpvm_bls12_g2_addINtNtCsbcJAgMR32cv_13kona_preimage4hint10HintWriterNtNtB1z_14native_channel13NativeChannelEINtNtB1z_6oracle12OracleReaderB2j_EE0Ba_
FNDA:1,_RNCNCNvNtNtNtNtCsagClJoJoeWA_11kona_client8fpvm_evm11precompiles12bls12_g2_add4tests_33test_accelerated_bls12_381_g2_add00Bd_
FNDA:1,_RNCNCNvNtNtNtNtCsagClJoJoeWA_11kona_client8fpvm_evm11precompiles12bls12_g2_add4tests_47test_accelerated_bls12_381_g2_add_bad_gas_limit00Bd_
FNDA:1,_RNCNCNvNtNtNtNtCsagClJoJoeWA_11kona_client8fpvm_evm11precompiles12bls12_g2_add4tests_47test_accelerated_bls12_381_g2_add_bad_input_len00Bd_
FNF:11
FNH:10
DA:21,3
DA:22,3
DA:23,3
DA:24,3
DA:25,3
DA:26,3
DA:27,3
DA:28,3
DA:29,3
DA:30,3
DA:31,3
DA:32,1
DA:33,2
DA:34,2
DA:35,2
DA:36,2
DA:37,1
DA:38,1
DA:39,1
DA:40,1
DA:42,1
DA:43,1
DA:44,1
DA:45,1
DA:46,1
DA:47,1
DA:49,1
DA:50,3
DA:60,1
DA:61,1
DA:62,1
DA:63,1
DA:64,1
DA:65,1
DA:66,1
DA:67,1
DA:68,1
DA:69,1
DA:70,1
DA:71,1
DA:72,1
DA:73,1
DA:74,1
DA:75,1
DA:76,1
DA:77,1
DA:80,1
DA:81,1
DA:82,1
DA:83,1
DA:84,1
DA:85,1
DA:86,1
DA:87,1
DA:90,1
DA:91,1
DA:92,1
DA:93,1
DA:94,1
DA:95,1
DA:96,1
DA:97,1
BRF:0
BRH:0
LF:100
LH:99
end_of_record
SF:/Users/andreasbigger/kona/bin/client/src/fpvm_evm/precompiles/bls12_g2_msm.rs
FN:23,_RINvNtNtNtCsagClJoJoeWA_11kona_client8fpvm_evm11precompiles12bls12_g2_msm17fpvm_bls12_g2_msmINtNtCsbcJAgMR32cv_13kona_preimage4hint10HintWriterNtNtB1x_14native_channel13NativeChannelEINtNtB1x_6oracle12OracleReaderB2h_EEB8_
FN:61,_RNCINvNtNtNtCsagClJoJoeWA_11kona_client8fpvm_evm11precompiles12bls12_g2_msm17fpvm_bls12_g2_msmINtNtCsbcJAgMR32cv_13kona_preimage4hint10HintWriterNtNtB1z_14native_channel13NativeChannelEINtNtB1z_6oracle12OracleReaderB2j_EE0Ba_
FN:77,_RNCNCNvNtNtNtNtCsagClJoJoeWA_11kona_client8fpvm_evm11precompiles12bls12_g2_msm4tests_33test_accelerated_bls12_381_g2_msm00Bd_
FN:119,_RNCNCNvNtNtNtNtCsagClJoJoeWA_11kona_client8fpvm_evm11precompiles12bls12_g2_msm4tests_47test_accelerated_bls12_381_g2_msm_bad_gas_limit00Bd_
FN:109,_RNCNCNvNtNtNtNtCsagClJoJoeWA_11kona_client8fpvm_evm11precompiles12bls12_g2_msm4tests_47test_accelerated_bls12_381_g2_msm_bad_input_len00Bd_
FN:94,_RNCNCNvNtNtNtNtCsagClJoJoeWA_11kona_client8fpvm_evm11precompiles12bls12_g2_msm4tests_55test_accelerated_bls12_381_g2_msm_bad_input_len_isthmus00Bd_
FN:76,_RNCNvNtNtNtNtCsagClJoJoeWA_11kona_client8fpvm_evm11precompiles12bls12_g2_msm4tests_33test_accelerated_bls12_381_g2_msm0Bb_
FN:118,_RNCNvNtNtNtNtCsagClJoJoeWA_11kona_client8fpvm_evm11precompiles12bls12_g2_msm4tests_47test_accelerated_bls12_381_g2_msm_bad_gas_limit0Bb_
FN:108,_RNCNvNtNtNtNtCsagClJoJoeWA_11kona_client8fpvm_evm11precompiles12bls12_g2_msm4tests_47test_accelerated_bls12_381_g2_msm_bad_input_len0Bb_
FN:93,_RNCNvNtNtNtNtCsagClJoJoeWA_11kona_client8fpvm_evm11precompiles12bls12_g2_msm4tests_55test_accelerated_bls12_381_g2_msm_bad_input_len_isthmus0Bb_
FN:76,_RNvNtNtNtNtCsagClJoJoeWA_11kona_client8fpvm_evm11precompiles12bls12_g2_msm4tests_33test_accelerated_bls12_381_g2_msm
FN:118,_RNvNtNtNtNtCsagClJoJoeWA_11kona_client8fpvm_evm11precompiles12bls12_g2_msm4tests_47test_accelerated_bls12_381_g2_msm_bad_gas_limit
FN:108,_RNvNtNtNtNtCsagClJoJoeWA_11kona_client8fpvm_evm11precompiles12bls12_g2_msm4tests_47test_accelerated_bls12_381_g2_msm_bad_input_len
FN:93,_RNvNtNtNtNtCsagClJoJoeWA_11kona_client8fpvm_evm11precompiles12bls12_g2_msm4tests_55test_accelerated_bls12_381_g2_msm_bad_input_len_isthmus
FNDA:4,_RINvNtNtNtCsagClJoJoeWA_11kona_client8fpvm_evm11precompiles12bls12_g2_msm17fpvm_bls12_g2_msmINtNtCsbcJAgMR32cv_13kona_preimage4hint10HintWriterNtNtB1x_14native_channel13NativeChannelEINtNtB1x_6oracle12OracleReaderB2h_EEB8_
FNDA:0,_RNCINvNtNtNtCsagClJoJoeWA_11kona_client8fpvm_evm11precompiles12bls12_g2_msm17fpvm_bls12_g2_msmINtNtCsbcJAgMR32cv_13kona_preimage4hint10HintWriterNtNtB1z_14native_channel13NativeChannelEINtNtB1z_6oracle12OracleReaderB2j_EE0Ba_
FNDA:1,_RNCNCNvNtNtNtNtCsagClJoJoeWA_11kona_client8fpvm_evm11precompiles12bls12_g2_msm4tests_33test_accelerated_bls12_381_g2_msm00Bd_
FNDA:1,_RNCNCNvNtNtNtNtCsagClJoJoeWA_11kona_client8fpvm_evm11precompiles12bls12_g2_msm4tests_47test_accelerated_bls12_381_g2_msm_bad_gas_limit00Bd_
FNDA:1,_RNCNCNvNtNtNtNtCsagClJoJoeWA_11kona_client8fpvm_evm11precompiles12bls12_g2_msm4tests_47test_accelerated_bls12_381_g2_msm_bad_input_len00Bd_
FNDA:1,_RNCNCNvNtNtNtNtCsagClJoJoeWA_11kona_client8fpvm_evm11precompiles12bls12_g2_msm4tests_55test_accelerated_bls12_381_g2_msm_bad_input_len_isthmus00Bd_
FNDA:1,_RNCNvNtNtNtNtCsagClJoJoeWA_11kona_client8fpvm_evm11precompiles12bls12_g2_msm4tests_33test_accelerated_bls12_381_g2_msm0Bb_
FNDA:1,_RNCNvNtNtNtNtCsagClJoJoeWA_11kona_client8fpvm_evm11precompiles12bls12_g2_msm4tests_47test_accelerated_bls12_381_g2_msm_bad_gas_limit0Bb_
FNDA:1,_RNCNvNtNtNtNtCsagClJoJoeWA_11kona_client8fpvm_evm11precompiles12bls12_g2_msm4tests_47test_accelerated_bls12_381_g2_msm_bad_input_len0Bb_
FNDA:1,_RNCNvNtNtNtNtCsagClJoJoeWA_11kona_client8fpvm_evm11precompiles12bls12_g2_msm4tests_55test_accelerated_bls12_381_g2_msm_bad_input_len_isthmus0Bb_
FNDA:1,_RNvNtNtNtNtCsagClJoJoeWA_11kona_client8fpvm_evm11precompiles12bls12_g2_msm4tests_33test_accelerated_bls12_381_g2_msm
FNDA:1,_RNvNtNtNtNtCsagClJoJoeWA_11kona_client8fpvm_evm11precompiles12bls12_g2_msm4tests_47test_accelerated_bls12_381_g2_msm_bad_gas_limit
FNDA:1,_RNvNtNtNtNtCsagClJoJoeWA_11kona_client8fpvm_evm11precompiles12bls12_g2_msm4tests_47test_accelerated_bls12_381_g2_msm_bad_input_len
FNDA:1,_RNvNtNtNtNtCsagClJoJoeWA_11kona_client8fpvm_evm11precompiles12bls12_g2_msm4tests_55test_accelerated_bls12_381_g2_msm_bad_input_len_isthmus
FNF:14
FNH:13
DA:23,4
DA:24,4
DA:25,4
DA:26,4
DA:27,4
DA:28,4
DA:29,4
DA:30,4
DA:31,4
DA:32,4
DA:33,4
DA:34,4
DA:35,4
DA:36,1
DA:37,1
DA:38,1
DA:39,1
DA:40,3
DA:41,3
DA:42,3
DA:43,1
DA:44,1
DA:45,1
DA:46,1
DA:47,1
DA:48,2
DA:49,2
DA:50,2
DA:51,2
DA:52,2
DA:53,1
DA:54,1
DA:56,1
DA:57,1
DA:58,1
DA:59,1
DA:60,1
DA:61,1
DA:63,1
DA:64,4
DA:76,1
DA:77,1
DA:78,1
DA:79,1
DA:80,1
DA:81,1
DA:82,1
DA:83,1
DA:84,1
DA:85,1
DA:86,1
DA:87,1
DA:88,1
DA:89,1
DA:90,1
DA:93,1
DA:94,1
DA:95,1
DA:96,1
DA:97,1
DA:98,1
DA:99,1
DA:100,1
DA:101,1
DA:102,1
DA:103,1
DA:104,1
DA:105,1
DA:108,1
DA:109,1
DA:110,1
DA:111,1
DA:112,1
DA:113,1
DA:114,1
DA:115,1
DA:118,1
DA:119,1
DA:120,1
DA:121,1
DA:122,1
DA:123,1
DA:124,1
DA:125,1
DA:126,1
BRF:0
BRH:0
LF:135
LH:134
end_of_record
SF:/Users/andreasbigger/kona/bin/client/src/fpvm_evm/precompiles/bls12_map_fp.rs
FN:62,_RNCNvNtNtNtNtCsagClJoJoeWA_11kona_client8fpvm_evm11precompiles12bls12_map_fp4tests_36test_accelerated_bls12_381_map_fp_g10Bb_
FN:79,_RNCNvNtNtNtNtCsagClJoJoeWA_11kona_client8fpvm_evm11precompiles12bls12_map_fp4tests_50test_accelerated_bls12_381_map_fp_g1_bad_gas_limit0Bb_
FN:89,_RNCNvNtNtNtNtCsagClJoJoeWA_11kona_client8fpvm_evm11precompiles12bls12_map_fp4tests_51test_accelerated_bls12_381_map_fp_g1_bad_input_size0Bb_
FN:62,_RNvNtNtNtNtCsagClJoJoeWA_11kona_client8fpvm_evm11precompiles12bls12_map_fp4tests_36test_accelerated_bls12_381_map_fp_g1
FN:79,_RNvNtNtNtNtCsagClJoJoeWA_11kona_client8fpvm_evm11precompiles12bls12_map_fp4tests_50test_accelerated_bls12_381_map_fp_g1_bad_gas_limit
FN:89,_RNvNtNtNtNtCsagClJoJoeWA_11kona_client8fpvm_evm11precompiles12bls12_map_fp4tests_51test_accelerated_bls12_381_map_fp_g1_bad_input_size
FN:21,_RINvNtNtNtCsagClJoJoeWA_11kona_client8fpvm_evm11precompiles12bls12_map_fp17fpvm_bls12_map_fpINtNtCsbcJAgMR32cv_13kona_preimage4hint10HintWriterNtNtB1x_14native_channel13NativeChannelEINtNtB1x_6oracle12OracleReaderB2h_EEB8_
FN:47,_RNCINvNtNtNtCsagClJoJoeWA_11kona_client8fpvm_evm11precompiles12bls12_map_fp17fpvm_bls12_map_fpINtNtCsbcJAgMR32cv_13kona_preimage4hint10HintWriterNtNtB1z_14native_channel13NativeChannelEINtNtB1z_6oracle12OracleReaderB2j_EE0Ba_
FN:63,_RNCNCNvNtNtNtNtCsagClJoJoeWA_11kona_client8fpvm_evm11precompiles12bls12_map_fp4tests_36test_accelerated_bls12_381_map_fp_g100Bd_
FN:80,_RNCNCNvNtNtNtNtCsagClJoJoeWA_11kona_client8fpvm_evm11precompiles12bls12_map_fp4tests_50test_accelerated_bls12_381_map_fp_g1_bad_gas_limit00Bd_
FN:90,_RNCNCNvNtNtNtNtCsagClJoJoeWA_11kona_client8fpvm_evm11precompiles12bls12_map_fp4tests_51test_accelerated_bls12_381_map_fp_g1_bad_input_size00Bd_
FNDA:1,_RNCNvNtNtNtNtCsagClJoJoeWA_11kona_client8fpvm_evm11precompiles12bls12_map_fp4tests_36test_accelerated_bls12_381_map_fp_g10Bb_
FNDA:1,_RNCNvNtNtNtNtCsagClJoJoeWA_11kona_client8fpvm_evm11precompiles12bls12_map_fp4tests_50test_accelerated_bls12_381_map_fp_g1_bad_gas_limit0Bb_
FNDA:1,_RNCNvNtNtNtNtCsagClJoJoeWA_11kona_client8fpvm_evm11precompiles12bls12_map_fp4tests_51test_accelerated_bls12_381_map_fp_g1_bad_input_size0Bb_
FNDA:1,_RNvNtNtNtNtCsagClJoJoeWA_11kona_client8fpvm_evm11precompiles12bls12_map_fp4tests_36test_accelerated_bls12_381_map_fp_g1
FNDA:1,_RNvNtNtNtNtCsagClJoJoeWA_11kona_client8fpvm_evm11precompiles12bls12_map_fp4tests_50test_accelerated_bls12_381_map_fp_g1_bad_gas_limit
FNDA:1,_RNvNtNtNtNtCsagClJoJoeWA_11kona_client8fpvm_evm11precompiles12bls12_map_fp4tests_51test_accelerated_bls12_381_map_fp_g1_bad_input_size
FNDA:3,_RINvNtNtNtCsagClJoJoeWA_11kona_client8fpvm_evm11precompiles12bls12_map_fp17fpvm_bls12_map_fpINtNtCsbcJAgMR32cv_13kona_preimage4hint10HintWriterNtNtB1x_14native_channel13NativeChannelEINtNtB1x_6oracle12OracleReaderB2h_EEB8_
FNDA:0,_RNCINvNtNtNtCsagClJoJoeWA_11kona_client8fpvm_evm11precompiles12bls12_map_fp17fpvm_bls12_map_fpINtNtCsbcJAgMR32cv_13kona_preimage4hint10HintWriterNtNtB1z_14native_channel13NativeChannelEINtNtB1z_6oracle12OracleReaderB2j_EE0Ba_
FNDA:1,_RNCNCNvNtNtNtNtCsagClJoJoeWA_11kona_client8fpvm_evm11precompiles12bls12_map_fp4tests_36test_accelerated_bls12_381_map_fp_g100Bd_
FNDA:1,_RNCNCNvNtNtNtNtCsagClJoJoeWA_11kona_client8fpvm_evm11precompiles12bls12_map_fp4tests_50test_accelerated_bls12_381_map_fp_g1_bad_gas_limit00Bd_
FNDA:1,_RNCNCNvNtNtNtNtCsagClJoJoeWA_11kona_client8fpvm_evm11precompiles12bls12_map_fp4tests_51test_accelerated_bls12_381_map_fp_g1_bad_input_size00Bd_
FNF:11
FNH:10
DA:21,3
DA:22,3
DA:23,3
DA:24,3
DA:25,3
DA:26,3
DA:27,3
DA:28,3
DA:29,3
DA:30,3
DA:31,3
DA:32,1
DA:33,2
DA:34,2
DA:35,2
DA:36,1
DA:37,1
DA:38,1
DA:39,1
DA:40,1
DA:42,1
DA:43,1
DA:44,1
DA:45,1
DA:46,1
DA:47,1
DA:49,1
DA:50,3
DA:62,1
DA:63,1
DA:64,1
DA:65,1
DA:66,1
DA:67,1
DA:68,1
DA:69,1
DA:70,1
DA:71,1
DA:72,1
DA:73,1
DA:74,1
DA:75,1
DA:76,1
DA:79,1
DA:80,1
DA:81,1
DA:82,1
DA:83,1
DA:84,1
DA:85,1
DA:86,1
DA:89,1
DA:90,1
DA:91,1
DA:92,1
DA:93,1
DA:94,1
DA:95,1
DA:96,1
BRF:0
BRH:0
LF:94
LH:93
end_of_record
SF:/Users/andreasbigger/kona/bin/client/src/fpvm_evm/precompiles/bls12_map_fp2.rs
FN:21,_RINvNtNtNtCsagClJoJoeWA_11kona_client8fpvm_evm11precompiles13bls12_map_fp218fpvm_bls12_map_fp2INtNtCsbcJAgMR32cv_13kona_preimage4hint10HintWriterNtNtB1z_14native_channel13NativeChannelEINtNtB1z_6oracle12OracleReaderB2j_EEB8_
FN:47,_RNCINvNtNtNtCsagClJoJoeWA_11kona_client8fpvm_evm11precompiles13bls12_map_fp218fpvm_bls12_map_fp2INtNtCsbcJAgMR32cv_13kona_preimage4hint10HintWriterNtNtB1B_14native_channel13NativeChannelEINtNtB1B_6oracle12OracleReaderB2l_EE0Ba_
FN:63,_RNCNCNvNtNtNtNtCsagClJoJoeWA_11kona_client8fpvm_evm11precompiles13bls12_map_fp24tests_36test_accelerated_bls12_381_map_fp_g200Bd_
FN:80,_RNCNCNvNtNtNtNtCsagClJoJoeWA_11kona_client8fpvm_evm11precompiles13bls12_map_fp24tests_50test_accelerated_bls12_381_map_fp_g2_bad_gas_limit00Bd_
FN:90,_RNCNCNvNtNtNtNtCsagClJoJoeWA_11kona_client8fpvm_evm11precompiles13bls12_map_fp24tests_51test_accelerated_bls12_381_map_fp_g2_bad_input_size00Bd_
FN:62,_RNCNvNtNtNtNtCsagClJoJoeWA_11kona_client8fpvm_evm11precompiles13bls12_map_fp24tests_36test_accelerated_bls12_381_map_fp_g20Bb_
FN:79,_RNCNvNtNtNtNtCsagClJoJoeWA_11kona_client8fpvm_evm11precompiles13bls12_map_fp24tests_50test_accelerated_bls12_381_map_fp_g2_bad_gas_limit0Bb_
FN:89,_RNCNvNtNtNtNtCsagClJoJoeWA_11kona_client8fpvm_evm11precompiles13bls12_map_fp24tests_51test_accelerated_bls12_381_map_fp_g2_bad_input_size0Bb_
FN:62,_RNvNtNtNtNtCsagClJoJoeWA_11kona_client8fpvm_evm11precompiles13bls12_map_fp24tests_36test_accelerated_bls12_381_map_fp_g2
FN:79,_RNvNtNtNtNtCsagClJoJoeWA_11kona_client8fpvm_evm11precompiles13bls12_map_fp24tests_50test_accelerated_bls12_381_map_fp_g2_bad_gas_limit
FN:89,_RNvNtNtNtNtCsagClJoJoeWA_11kona_client8fpvm_evm11precompiles13bls12_map_fp24tests_51test_accelerated_bls12_381_map_fp_g2_bad_input_size
FNDA:3,_RINvNtNtNtCsagClJoJoeWA_11kona_client8fpvm_evm11precompiles13bls12_map_fp218fpvm_bls12_map_fp2INtNtCsbcJAgMR32cv_13kona_preimage4hint10HintWriterNtNtB1z_14native_channel13NativeChannelEINtNtB1z_6oracle12OracleReaderB2j_EEB8_
FNDA:0,_RNCINvNtNtNtCsagClJoJoeWA_11kona_client8fpvm_evm11precompiles13bls12_map_fp218fpvm_bls12_map_fp2INtNtCsbcJAgMR32cv_13kona_preimage4hint10HintWriterNtNtB1B_14native_channel13NativeChannelEINtNtB1B_6oracle12OracleReaderB2l_EE0Ba_
FNDA:1,_RNCNCNvNtNtNtNtCsagClJoJoeWA_11kona_client8fpvm_evm11precompiles13bls12_map_fp24tests_36test_accelerated_bls12_381_map_fp_g200Bd_
FNDA:1,_RNCNCNvNtNtNtNtCsagClJoJoeWA_11kona_client8fpvm_evm11precompiles13bls12_map_fp24tests_50test_accelerated_bls12_381_map_fp_g2_bad_gas_limit00Bd_
FNDA:1,_RNCNCNvNtNtNtNtCsagClJoJoeWA_11kona_client8fpvm_evm11precompiles13bls12_map_fp24tests_51test_accelerated_bls12_381_map_fp_g2_bad_input_size00Bd_
FNDA:1,_RNCNvNtNtNtNtCsagClJoJoeWA_11kona_client8fpvm_evm11precompiles13bls12_map_fp24tests_36test_accelerated_bls12_381_map_fp_g20Bb_
FNDA:1,_RNCNvNtNtNtNtCsagClJoJoeWA_11kona_client8fpvm_evm11precompiles13bls12_map_fp24tests_50test_accelerated_bls12_381_map_fp_g2_bad_gas_limit0Bb_
FNDA:1,_RNCNvNtNtNtNtCsagClJoJoeWA_11kona_client8fpvm_evm11precompiles13bls12_map_fp24tests_51test_accelerated_bls12_381_map_fp_g2_bad_input_size0Bb_
FNDA:1,_RNvNtNtNtNtCsagClJoJoeWA_11kona_client8fpvm_evm11precompiles13bls12_map_fp24tests_36test_accelerated_bls12_381_map_fp_g2
FNDA:1,_RNvNtNtNtNtCsagClJoJoeWA_11kona_client8fpvm_evm11precompiles13bls12_map_fp24tests_50test_accelerated_bls12_381_map_fp_g2_bad_gas_limit
FNDA:1,_RNvNtNtNtNtCsagClJoJoeWA_11kona_client8fpvm_evm11precompiles13bls12_map_fp24tests_51test_accelerated_bls12_381_map_fp_g2_bad_input_size
FNF:11
FNH:10
DA:21,3
DA:22,3
DA:23,3
DA:24,3
DA:25,3
DA:26,3
DA:27,3
DA:28,3
DA:29,3
DA:30,3
DA:31,3
DA:32,1
DA:33,2
DA:34,2
DA:35,2
DA:36,1
DA:37,1
DA:38,1
DA:39,1
DA:40,1
DA:42,1
DA:43,1
DA:44,1
DA:45,1
DA:46,1
DA:47,1
DA:49,1
DA:50,3
DA:62,1
DA:63,1
DA:64,1
DA:65,1
DA:66,1
DA:67,1
DA:68,1
DA:69,1
DA:70,1
DA:71,1
DA:72,1
DA:73,1
DA:74,1
DA:75,1
DA:76,1
DA:79,1
DA:80,1
DA:81,1
DA:82,1
DA:83,1
DA:84,1
DA:85,1
DA:86,1
DA:89,1
DA:90,1
DA:91,1
DA:92,1
DA:93,1
DA:94,1
DA:95,1
DA:96,1
BRF:0
BRH:0
LF:94
LH:93
end_of_record
SF:/Users/andreasbigger/kona/bin/client/src/fpvm_evm/precompiles/bls12_pair.rs
FN:72,_RNCNCNvNtNtNtNtCsagClJoJoeWA_11kona_client8fpvm_evm11precompiles10bls12_pair4tests_34test_accelerated_bls12_381_pairing00Bd_
FN:115,_RNCNCNvNtNtNtNtCsagClJoJoeWA_11kona_client8fpvm_evm11precompiles10bls12_pair4tests_48test_accelerated_bls12_381_pairing_bad_gas_limit00Bd_
FN:104,_RNCNCNvNtNtNtNtCsagClJoJoeWA_11kona_client8fpvm_evm11precompiles10bls12_pair4tests_48test_accelerated_bls12_381_pairing_bad_input_len00Bd_
FN:89,_RNCNCNvNtNtNtNtCsagClJoJoeWA_11kona_client8fpvm_evm11precompiles10bls12_pair4tests_56test_accelerated_bls12_381_pairing_bad_input_len_isthmus00Bd_
FN:71,_RNCNvNtNtNtNtCsagClJoJoeWA_11kona_client8fpvm_evm11precompiles10bls12_pair4tests_34test_accelerated_bls12_381_pairing0Bb_
FN:114,_RNCNvNtNtNtNtCsagClJoJoeWA_11kona_client8fpvm_evm11precompiles10bls12_pair4tests_48test_accelerated_bls12_381_pairing_bad_gas_limit0Bb_
FN:103,_RNCNvNtNtNtNtCsagClJoJoeWA_11kona_client8fpvm_evm11precompiles10bls12_pair4tests_48test_accelerated_bls12_381_pairing_bad_input_len0Bb_
FN:88,_RNCNvNtNtNtNtCsagClJoJoeWA_11kona_client8fpvm_evm11precompiles10bls12_pair4tests_56test_accelerated_bls12_381_pairing_bad_input_len_isthmus0Bb_
FN:71,_RNvNtNtNtNtCsagClJoJoeWA_11kona_client8fpvm_evm11precompiles10bls12_pair4tests_34test_accelerated_bls12_381_pairing
FN:114,_RNvNtNtNtNtCsagClJoJoeWA_11kona_client8fpvm_evm11precompiles10bls12_pair4tests_48test_accelerated_bls12_381_pairing_bad_gas_limit
FN:103,_RNvNtNtNtNtCsagClJoJoeWA_11kona_client8fpvm_evm11precompiles10bls12_pair4tests_48test_accelerated_bls12_381_pairing_bad_input_len
FN:88,_RNvNtNtNtNtCsagClJoJoeWA_11kona_client8fpvm_evm11precompiles10bls12_pair4tests_56test_accelerated_bls12_381_pairing_bad_input_len_isthmus
FN:21,_RINvNtNtNtCsagClJoJoeWA_11kona_client8fpvm_evm11precompiles10bls12_pair18fpvm_bls12_pairingINtNtCsbcJAgMR32cv_13kona_preimage4hint10HintWriterNtNtB1w_14native_channel13NativeChannelEINtNtB1w_6oracle12OracleReaderB2g_EEB8_
FN:57,_RNCINvNtNtNtCsagClJoJoeWA_11kona_client8fpvm_evm11precompiles10bls12_pair18fpvm_bls12_pairingINtNtCsbcJAgMR32cv_13kona_preimage4hint10HintWriterNtNtB1y_14native_channel13NativeChannelEINtNtB1y_6oracle12OracleReaderB2i_EE0Ba_
FNDA:1,_RNCNCNvNtNtNtNtCsagClJoJoeWA_11kona_client8fpvm_evm11precompiles10bls12_pair4tests_34test_accelerated_bls12_381_pairing00Bd_
FNDA:1,_RNCNCNvNtNtNtNtCsagClJoJoeWA_11kona_client8fpvm_evm11precompiles10bls12_pair4tests_48test_accelerated_bls12_381_pairing_bad_gas_limit00Bd_
FNDA:1,_RNCNCNvNtNtNtNtCsagClJoJoeWA_11kona_client8fpvm_evm11precompiles10bls12_pair4tests_48test_accelerated_bls12_381_pairing_bad_input_len00Bd_
FNDA:1,_RNCNCNvNtNtNtNtCsagClJoJoeWA_11kona_client8fpvm_evm11precompiles10bls12_pair4tests_56test_accelerated_bls12_381_pairing_bad_input_len_isthmus00Bd_
FNDA:1,_RNCNvNtNtNtNtCsagClJoJoeWA_11kona_client8fpvm_evm11precompiles10bls12_pair4tests_34test_accelerated_bls12_381_pairing0Bb_
FNDA:1,_RNCNvNtNtNtNtCsagClJoJoeWA_11kona_client8fpvm_evm11precompiles10bls12_pair4tests_48test_accelerated_bls12_381_pairing_bad_gas_limit0Bb_
FNDA:1,_RNCNvNtNtNtNtCsagClJoJoeWA_11kona_client8fpvm_evm11precompiles10bls12_pair4tests_48test_accelerated_bls12_381_pairing_bad_input_len0Bb_
FNDA:1,_RNCNvNtNtNtNtCsagClJoJoeWA_11kona_client8fpvm_evm11precompiles10bls12_pair4tests_56test_accelerated_bls12_381_pairing_bad_input_len_isthmus0Bb_
FNDA:1,_RNvNtNtNtNtCsagClJoJoeWA_11kona_client8fpvm_evm11precompiles10bls12_pair4tests_34test_accelerated_bls12_381_pairing
FNDA:1,_RNvNtNtNtNtCsagClJoJoeWA_11kona_client8fpvm_evm11precompiles10bls12_pair4tests_48test_accelerated_bls12_381_pairing_bad_gas_limit
FNDA:1,_RNvNtNtNtNtCsagClJoJoeWA_11kona_client8fpvm_evm11precompiles10bls12_pair4tests_48test_accelerated_bls12_381_pairing_bad_input_len
FNDA:1,_RNvNtNtNtNtCsagClJoJoeWA_11kona_client8fpvm_evm11precompiles10bls12_pair4tests_56test_accelerated_bls12_381_pairing_bad_input_len_isthmus
FNDA:4,_RINvNtNtNtCsagClJoJoeWA_11kona_client8fpvm_evm11precompiles10bls12_pair18fpvm_bls12_pairingINtNtCsbcJAgMR32cv_13kona_preimage4hint10HintWriterNtNtB1w_14native_channel13NativeChannelEINtNtB1w_6oracle12OracleReaderB2g_EEB8_
FNDA:0,_RNCINvNtNtNtCsagClJoJoeWA_11kona_client8fpvm_evm11precompiles10bls12_pair18fpvm_bls12_pairingINtNtCsbcJAgMR32cv_13kona_preimage4hint10HintWriterNtNtB1y_14native_channel13NativeChannelEINtNtB1y_6oracle12OracleReaderB2i_EE0Ba_
FNF:14
FNH:13
DA:21,4
DA:22,4
DA:23,4
DA:24,4
DA:25,4
DA:26,4
DA:27,4
DA:28,4
DA:29,4
DA:30,4
DA:31,4
DA:32,4
DA:33,4
DA:34,1
DA:35,1
DA:36,1
DA:37,1
DA:38,3
DA:39,3
DA:40,3
DA:41,1
DA:42,1
DA:43,1
DA:44,2
DA:45,2
DA:46,2
DA:47,2
DA:48,2
DA:49,1
DA:50,1
DA:52,1
DA:53,1
DA:54,1
DA:55,1
DA:56,1
DA:57,1
DA:59,1
DA:60,4
DA:71,1
DA:72,1
DA:73,1
DA:74,1
DA:75,1
DA:76,1
DA:77,1
DA:78,1
DA:79,1
DA:80,1
DA:81,1
DA:82,1
DA:83,1
DA:84,1
DA:85,1
DA:88,1
DA:89,1
DA:90,1
DA:91,1
DA:92,1
DA:93,1
DA:94,1
DA:95,1
DA:96,1
DA:97,1
DA:98,1
DA:99,1
DA:100,1
DA:103,1
DA:104,1
DA:105,1
DA:106,1
DA:107,1
DA:108,1
DA:109,1
DA:110,1
DA:111,1
DA:114,1
DA:115,1
DA:116,1
DA:117,1
DA:118,1
DA:119,1
DA:120,1
DA:121,1
DA:122,1
BRF:0
BRH:0
LF:135
LH:134
end_of_record
SF:/Users/andreasbigger/kona/bin/client/src/fpvm_evm/precompiles/bn128_pair.rs
FN:76,_RNCNvNtNtNtNtCsagClJoJoeWA_11kona_client8fpvm_evm11precompiles10bn128_pair4tests_30test_accelerated_bn128_pairing0Bb_
FN:94,_RNCNvNtNtNtNtCsagClJoJoeWA_11kona_client8fpvm_evm11precompiles10bn128_pair4tests_38test_accelerated_bn128_pairing_granite0Bb_
FN:124,_RNCNvNtNtNtNtCsagClJoJoeWA_11kona_client8fpvm_evm11precompiles10bn128_pair4tests_44test_accelerated_bn128_pairing_bad_input_len0Bb_
FN:112,_RNCNvNtNtNtNtCsagClJoJoeWA_11kona_client8fpvm_evm11precompiles10bn128_pair4tests_45test_accelerated_bn128_pairing_not_enough_gas0Bb_
FN:136,_RNCNvNtNtNtNtCsagClJoJoeWA_11kona_client8fpvm_evm11precompiles10bn128_pair4tests_52test_accelerated_bn128_pairing_bad_input_len_granite0Bb_
FN:76,_RNvNtNtNtNtCsagClJoJoeWA_11kona_client8fpvm_evm11precompiles10bn128_pair4tests_30test_accelerated_bn128_pairing
FN:94,_RNvNtNtNtNtCsagClJoJoeWA_11kona_client8fpvm_evm11precompiles10bn128_pair4tests_38test_accelerated_bn128_pairing_granite
FN:124,_RNvNtNtNtNtCsagClJoJoeWA_11kona_client8fpvm_evm11precompiles10bn128_pair4tests_44test_accelerated_bn128_pairing_bad_input_len
FN:112,_RNvNtNtNtNtCsagClJoJoeWA_11kona_client8fpvm_evm11precompiles10bn128_pair4tests_45test_accelerated_bn128_pairing_not_enough_gas
FN:136,_RNvNtNtNtNtCsagClJoJoeWA_11kona_client8fpvm_evm11precompiles10bn128_pair4tests_52test_accelerated_bn128_pairing_bad_input_len_granite
FN:17,_RINvNtNtNtCsagClJoJoeWA_11kona_client8fpvm_evm11precompiles10bn128_pair15fpvm_bn128_pairINtNtCsbcJAgMR32cv_13kona_preimage4hint10HintWriterNtNtB1t_14native_channel13NativeChannelEINtNtB1t_6oracle12OracleReaderB2d_EEB8_
FN:50,_RINvNtNtNtCsagClJoJoeWA_11kona_client8fpvm_evm11precompiles10bn128_pair23fpvm_bn128_pair_graniteINtNtCsbcJAgMR32cv_13kona_preimage4hint10HintWriterNtNtB1B_14native_channel13NativeChannelEINtNtB1B_6oracle12OracleReaderB2l_EEB8_
FN:43,_RNCINvNtNtNtCsagClJoJoeWA_11kona_client8fpvm_evm11precompiles10bn128_pair15fpvm_bn128_pairINtNtCsbcJAgMR32cv_13kona_preimage4hint10HintWriterNtNtB1v_14native_channel13NativeChannelEINtNtB1v_6oracle12OracleReaderB2f_EE0Ba_
FN:77,_RNCNCNvNtNtNtNtCsagClJoJoeWA_11kona_client8fpvm_evm11precompiles10bn128_pair4tests_30test_accelerated_bn128_pairing00Bd_
FN:95,_RNCNCNvNtNtNtNtCsagClJoJoeWA_11kona_client8fpvm_evm11precompiles10bn128_pair4tests_38test_accelerated_bn128_pairing_granite00Bd_
FN:125,_RNCNCNvNtNtNtNtCsagClJoJoeWA_11kona_client8fpvm_evm11precompiles10bn128_pair4tests_44test_accelerated_bn128_pairing_bad_input_len00Bd_
FN:113,_RNCNCNvNtNtNtNtCsagClJoJoeWA_11kona_client8fpvm_evm11precompiles10bn128_pair4tests_45test_accelerated_bn128_pairing_not_enough_gas00Bd_
FN:137,_RNCNCNvNtNtNtNtCsagClJoJoeWA_11kona_client8fpvm_evm11precompiles10bn128_pair4tests_52test_accelerated_bn128_pairing_bad_input_len_granite00Bd_
FNDA:1,_RNCNvNtNtNtNtCsagClJoJoeWA_11kona_client8fpvm_evm11precompiles10bn128_pair4tests_30test_accelerated_bn128_pairing0Bb_
FNDA:1,_RNCNvNtNtNtNtCsagClJoJoeWA_11kona_client8fpvm_evm11precompiles10bn128_pair4tests_38test_accelerated_bn128_pairing_granite0Bb_
FNDA:1,_RNCNvNtNtNtNtCsagClJoJoeWA_11kona_client8fpvm_evm11precompiles10bn128_pair4tests_44test_accelerated_bn128_pairing_bad_input_len0Bb_
FNDA:1,_RNCNvNtNtNtNtCsagClJoJoeWA_11kona_client8fpvm_evm11precompiles10bn128_pair4tests_45test_accelerated_bn128_pairing_not_enough_gas0Bb_
FNDA:1,_RNCNvNtNtNtNtCsagClJoJoeWA_11kona_client8fpvm_evm11precompiles10bn128_pair4tests_52test_accelerated_bn128_pairing_bad_input_len_granite0Bb_
FNDA:1,_RNvNtNtNtNtCsagClJoJoeWA_11kona_client8fpvm_evm11precompiles10bn128_pair4tests_30test_accelerated_bn128_pairing
FNDA:1,_RNvNtNtNtNtCsagClJoJoeWA_11kona_client8fpvm_evm11precompiles10bn128_pair4tests_38test_accelerated_bn128_pairing_granite
FNDA:1,_RNvNtNtNtNtCsagClJoJoeWA_11kona_client8fpvm_evm11precompiles10bn128_pair4tests_44test_accelerated_bn128_pairing_bad_input_len
FNDA:1,_RNvNtNtNtNtCsagClJoJoeWA_11kona_client8fpvm_evm11precompiles10bn128_pair4tests_45test_accelerated_bn128_pairing_not_enough_gas
FNDA:1,_RNvNtNtNtNtCsagClJoJoeWA_11kona_client8fpvm_evm11precompiles10bn128_pair4tests_52test_accelerated_bn128_pairing_bad_input_len_granite
FNDA:5,_RINvNtNtNtCsagClJoJoeWA_11kona_client8fpvm_evm11precompiles10bn128_pair15fpvm_bn128_pairINtNtCsbcJAgMR32cv_13kona_preimage4hint10HintWriterNtNtB1t_14native_channel13NativeChannelEINtNtB1t_6oracle12OracleReaderB2d_EEB8_
FNDA:1,_RINvNtNtNtCsagClJoJoeWA_11kona_client8fpvm_evm11precompiles10bn128_pair23fpvm_bn128_pair_graniteINtNtCsbcJAgMR32cv_13kona_preimage4hint10HintWriterNtNtB1B_14native_channel13NativeChannelEINtNtB1B_6oracle12OracleReaderB2l_EEB8_
FNDA:0,_RNCINvNtNtNtCsagClJoJoeWA_11kona_client8fpvm_evm11precompiles10bn128_pair15fpvm_bn128_pairINtNtCsbcJAgMR32cv_13kona_preimage4hint10HintWriterNtNtB1v_14native_channel13NativeChannelEINtNtB1v_6oracle12OracleReaderB2f_EE0Ba_
FNDA:1,_RNCNCNvNtNtNtNtCsagClJoJoeWA_11kona_client8fpvm_evm11precompiles10bn128_pair4tests_30test_accelerated_bn128_pairing00Bd_
FNDA:1,_RNCNCNvNtNtNtNtCsagClJoJoeWA_11kona_client8fpvm_evm11precompiles10bn128_pair4tests_38test_accelerated_bn128_pairing_granite00Bd_
FNDA:1,_RNCNCNvNtNtNtNtCsagClJoJoeWA_11kona_client8fpvm_evm11precompiles10bn128_pair4tests_44test_accelerated_bn128_pairing_bad_input_len00Bd_
FNDA:1,_RNCNCNvNtNtNtNtCsagClJoJoeWA_11kona_client8fpvm_evm11precompiles10bn128_pair4tests_45test_accelerated_bn128_pairing_not_enough_gas00Bd_
FNDA:1,_RNCNCNvNtNtNtNtCsagClJoJoeWA_11kona_client8fpvm_evm11precompiles10bn128_pair4tests_52test_accelerated_bn128_pairing_bad_input_len_granite00Bd_
FNF:18
FNH:17
DA:17,5
DA:18,5
DA:19,5
DA:20,5
DA:21,5
DA:22,5
DA:23,5
DA:24,5
DA:25,5
DA:26,5
DA:27,5
DA:28,5
DA:29,5
DA:30,5
DA:31,1
DA:32,4
DA:33,4
DA:34,4
DA:35,2
DA:36,2
DA:38,2
DA:39,2
DA:40,2
DA:41,2
DA:42,2
DA:43,2
DA:45,2
DA:46,5
DA:50,1
DA:51,1
DA:52,1
DA:53,1
DA:54,1
DA:55,1
DA:56,1
DA:57,1
DA:58,1
DA:59,1
DA:60,1
DA:61,0
DA:62,1
DA:63,1
DA:64,1
DA:65,1
DA:76,1
DA:77,1
DA:78,1
DA:79,1
DA:80,1
DA:81,1
DA:82,1
DA:83,1
DA:84,1
DA:85,1
DA:86,1
DA:87,1
DA:88,1
DA:89,1
DA:90,1
DA:91,1
DA:94,1
DA:95,1
DA:96,1
DA:97,1
DA:98,1
DA:99,1
DA:100,1
DA:101,1
DA:102,1
DA:103,1
DA:104,1
DA:105,1
DA:106,1
DA:107,1
DA:108,1
DA:109,1
DA:112,1
DA:113,1
DA:114,1
DA:115,1
DA:116,1
DA:117,1
DA:118,1
DA:119,1
DA:120,1
DA:121,1
DA:124,1
DA:125,1
DA:126,1
DA:127,1
DA:128,1
DA:129,1
DA:130,1
DA:131,1
DA:132,1
DA:133,1
DA:136,1
DA:137,1
DA:138,1
DA:139,1
DA:140,1
DA:141,1
DA:142,1
DA:143,1
DA:144,1
DA:145,1
BRF:0
BRH:0
LF:170
LH:168
end_of_record
SF:/Users/andreasbigger/kona/bin/client/src/fpvm_evm/precompiles/ecrecover.rs
FN:13,_RINvNtNtNtCsagClJoJoeWA_11kona_client8fpvm_evm11precompiles9ecrecover15fpvm_ec_recoverINtNtCsbcJAgMR32cv_13kona_preimage4hint10HintWriterNtNtB1r_14native_channel13NativeChannelEINtNtB1r_6oracle12OracleReaderB2b_EEB8_
FN:34,_RNCINvNtNtNtCsagClJoJoeWA_11kona_client8fpvm_evm11precompiles9ecrecover15fpvm_ec_recoverINtNtCsbcJAgMR32cv_13kona_preimage4hint10HintWriterNtNtB1t_14native_channel13NativeChannelEINtNtB1t_6oracle12OracleReaderB2d_EE0Ba_
FN:50,_RNCNCNvNtNtNtNtCsagClJoJoeWA_11kona_client8fpvm_evm11precompiles9ecrecover4tests_26test_accelerated_ecrecover00Bd_
FN:68,_RNCNCNvNtNtNtNtCsagClJoJoeWA_11kona_client8fpvm_evm11precompiles9ecrecover4tests_37test_accelerated_ecrecover_out_of_gas00Bd_
FN:49,_RNCNvNtNtNtNtCsagClJoJoeWA_11kona_client8fpvm_evm11precompiles9ecrecover4tests_26test_accelerated_ecrecover0Bb_
FN:67,_RNCNvNtNtNtNtCsagClJoJoeWA_11kona_client8fpvm_evm11precompiles9ecrecover4tests_37test_accelerated_ecrecover_out_of_gas0Bb_
FN:49,_RNvNtNtNtNtCsagClJoJoeWA_11kona_client8fpvm_evm11precompiles9ecrecover4tests_26test_accelerated_ecrecover
FN:67,_RNvNtNtNtNtCsagClJoJoeWA_11kona_client8fpvm_evm11precompiles9ecrecover4tests_37test_accelerated_ecrecover_out_of_gas
FNDA:2,_RINvNtNtNtCsagClJoJoeWA_11kona_client8fpvm_evm11precompiles9ecrecover15fpvm_ec_recoverINtNtCsbcJAgMR32cv_13kona_preimage4hint10HintWriterNtNtB1r_14native_channel13NativeChannelEINtNtB1r_6oracle12OracleReaderB2b_EEB8_
FNDA:0,_RNCINvNtNtNtCsagClJoJoeWA_11kona_client8fpvm_evm11precompiles9ecrecover15fpvm_ec_recoverINtNtCsbcJAgMR32cv_13kona_preimage4hint10HintWriterNtNtB1t_14native_channel13NativeChannelEINtNtB1t_6oracle12OracleReaderB2d_EE0Ba_
FNDA:1,_RNCNCNvNtNtNtNtCsagClJoJoeWA_11kona_client8fpvm_evm11precompiles9ecrecover4tests_26test_accelerated_ecrecover00Bd_
FNDA:1,_RNCNCNvNtNtNtNtCsagClJoJoeWA_11kona_client8fpvm_evm11precompiles9ecrecover4tests_37test_accelerated_ecrecover_out_of_gas00Bd_
FNDA:1,_RNCNvNtNtNtNtCsagClJoJoeWA_11kona_client8fpvm_evm11precompiles9ecrecover4tests_26test_accelerated_ecrecover0Bb_
FNDA:1,_RNCNvNtNtNtNtCsagClJoJoeWA_11kona_client8fpvm_evm11precompiles9ecrecover4tests_37test_accelerated_ecrecover_out_of_gas0Bb_
FNDA:1,_RNvNtNtNtNtCsagClJoJoeWA_11kona_client8fpvm_evm11precompiles9ecrecover4tests_26test_accelerated_ecrecover
FNDA:1,_RNvNtNtNtNtCsagClJoJoeWA_11kona_client8fpvm_evm11precompiles9ecrecover4tests_37test_accelerated_ecrecover_out_of_gas
FNF:8
FNH:7
DA:13,2
DA:14,2
DA:15,2
DA:16,2
DA:17,2
DA:18,2
DA:19,2
DA:20,2
DA:21,2
DA:22,2
DA:25,2
DA:26,1
DA:27,1
DA:28,1
DA:29,1
DA:30,1
DA:31,1
DA:32,1
DA:33,1
DA:34,1
DA:35,1
DA:36,1
DA:37,1
DA:38,2
DA:49,1
DA:50,1
DA:51,1
DA:52,1
DA:53,1
DA:54,1
DA:55,1
DA:56,1
DA:57,1
DA:58,1
DA:59,1
DA:60,1
DA:61,1
DA:62,1
DA:63,1
DA:64,1
DA:67,1
DA:68,1
DA:69,1
DA:70,1
DA:71,1
DA:72,1
DA:73,1
DA:74,1
DA:75,1
BRF:0
BRH:0
LF:75
LH:74
end_of_record
SF:/Users/andreasbigger/kona/bin/client/src/fpvm_evm/precompiles/kzg_point_eval.rs
FN:13,_RINvNtNtNtCsagClJoJoeWA_11kona_client8fpvm_evm11precompiles14kzg_point_eval19fpvm_kzg_point_evalINtNtCsbcJAgMR32cv_13kona_preimage4hint10HintWriterNtNtB1B_14native_channel13NativeChannelEINtNtB1B_6oracle12OracleReaderB2l_EEB8_
FN:38,_RNCINvNtNtNtCsagClJoJoeWA_11kona_client8fpvm_evm11precompiles14kzg_point_eval19fpvm_kzg_point_evalINtNtCsbcJAgMR32cv_13kona_preimage4hint10HintWriterNtNtB1D_14native_channel13NativeChannelEINtNtB1D_6oracle12OracleReaderB2n_EE0Ba_
FN:54,_RNCNvNtNtNtNtCsagClJoJoeWA_11kona_client8fpvm_evm11precompiles14kzg_point_eval4tests_31test_accelerated_kzg_point_eval0Bb_
FN:78,_RNCNvNtNtNtNtCsagClJoJoeWA_11kona_client8fpvm_evm11precompiles14kzg_point_eval4tests_42test_accelerated_kzg_point_eval_out_of_gas0Bb_
FN:88,_RNCNvNtNtNtNtCsagClJoJoeWA_11kona_client8fpvm_evm11precompiles14kzg_point_eval4tests_46test_accelerated_kzg_point_eval_bad_input_size0Bb_
FN:54,_RNvNtNtNtNtCsagClJoJoeWA_11kona_client8fpvm_evm11precompiles14kzg_point_eval4tests_31test_accelerated_kzg_point_eval
FN:78,_RNvNtNtNtNtCsagClJoJoeWA_11kona_client8fpvm_evm11precompiles14kzg_point_eval4tests_42test_accelerated_kzg_point_eval_out_of_gas
FN:88,_RNvNtNtNtNtCsagClJoJoeWA_11kona_client8fpvm_evm11precompiles14kzg_point_eval4tests_46test_accelerated_kzg_point_eval_bad_input_size
FN:55,_RNCNCNvNtNtNtNtCsagClJoJoeWA_11kona_client8fpvm_evm11precompiles14kzg_point_eval4tests_31test_accelerated_kzg_point_eval00Bd_
FN:79,_RNCNCNvNtNtNtNtCsagClJoJoeWA_11kona_client8fpvm_evm11precompiles14kzg_point_eval4tests_42test_accelerated_kzg_point_eval_out_of_gas00Bd_
FN:89,_RNCNCNvNtNtNtNtCsagClJoJoeWA_11kona_client8fpvm_evm11precompiles14kzg_point_eval4tests_46test_accelerated_kzg_point_eval_bad_input_size00Bd_
FNDA:3,_RINvNtNtNtCsagClJoJoeWA_11kona_client8fpvm_evm11precompiles14kzg_point_eval19fpvm_kzg_point_evalINtNtCsbcJAgMR32cv_13kona_preimage4hint10HintWriterNtNtB1B_14native_channel13NativeChannelEINtNtB1B_6oracle12OracleReaderB2l_EEB8_
FNDA:0,_RNCINvNtNtNtCsagClJoJoeWA_11kona_client8fpvm_evm11precompiles14kzg_point_eval19fpvm_kzg_point_evalINtNtCsbcJAgMR32cv_13kona_preimage4hint10HintWriterNtNtB1D_14native_channel13NativeChannelEINtNtB1D_6oracle12OracleReaderB2n_EE0Ba_
FNDA:1,_RNCNvNtNtNtNtCsagClJoJoeWA_11kona_client8fpvm_evm11precompiles14kzg_point_eval4tests_31test_accelerated_kzg_point_eval0Bb_
FNDA:1,_RNCNvNtNtNtNtCsagClJoJoeWA_11kona_client8fpvm_evm11precompiles14kzg_point_eval4tests_42test_accelerated_kzg_point_eval_out_of_gas0Bb_
FNDA:1,_RNCNvNtNtNtNtCsagClJoJoeWA_11kona_client8fpvm_evm11precompiles14kzg_point_eval4tests_46test_accelerated_kzg_point_eval_bad_input_size0Bb_
FNDA:1,_RNvNtNtNtNtCsagClJoJoeWA_11kona_client8fpvm_evm11precompiles14kzg_point_eval4tests_31test_accelerated_kzg_point_eval
FNDA:1,_RNvNtNtNtNtCsagClJoJoeWA_11kona_client8fpvm_evm11precompiles14kzg_point_eval4tests_42test_accelerated_kzg_point_eval_out_of_gas
FNDA:1,_RNvNtNtNtNtCsagClJoJoeWA_11kona_client8fpvm_evm11precompiles14kzg_point_eval4tests_46test_accelerated_kzg_point_eval_bad_input_size
FNDA:1,_RNCNCNvNtNtNtNtCsagClJoJoeWA_11kona_client8fpvm_evm11precompiles14kzg_point_eval4tests_31test_accelerated_kzg_point_eval00Bd_
FNDA:1,_RNCNCNvNtNtNtNtCsagClJoJoeWA_11kona_client8fpvm_evm11precompiles14kzg_point_eval4tests_42test_accelerated_kzg_point_eval_out_of_gas00Bd_
FNDA:1,_RNCNCNvNtNtNtNtCsagClJoJoeWA_11kona_client8fpvm_evm11precompiles14kzg_point_eval4tests_46test_accelerated_kzg_point_eval_bad_input_size00Bd_
FNF:11
FNH:10
DA:13,3
DA:14,3
DA:15,3
DA:16,3
DA:17,3
DA:18,3
DA:19,3
DA:20,3
DA:21,3
DA:22,3
DA:25,3
DA:26,1
DA:27,2
DA:28,2
DA:29,2
DA:30,1
DA:31,1
DA:33,1
DA:34,1
DA:35,1
DA:36,1
DA:37,1
DA:38,1
DA:40,1
DA:41,3
DA:54,1
DA:55,1
DA:56,1
DA:57,1
DA:58,1
DA:59,1
DA:60,1
DA:61,1
DA:62,1
DA:63,1
DA:64,1
DA:65,1
DA:66,1
DA:67,1
DA:68,1
DA:69,1
DA:70,1
DA:71,1
DA:72,1
DA:73,1
DA:74,1
DA:75,1
DA:78,1
DA:79,1
DA:80,1
DA:81,1
DA:82,1
DA:83,1
DA:84,1
DA:85,1
DA:88,1
DA:89,1
DA:90,1
DA:91,1
DA:92,1
DA:93,1
DA:94,1
DA:95,1
BRF:0
BRH:0
LF:105
LH:104
end_of_record
SF:/Users/andreasbigger/kona/bin/client/src/fpvm_evm/precompiles/provider.rs
FN:172,_RINvNtNtNtCsagClJoJoeWA_11kona_client8fpvm_evm11precompiles8provider19accelerated_bedrockppEB8_
FN:187,_RINvNtNtNtCsagClJoJoeWA_11kona_client8fpvm_evm11precompiles8provider19accelerated_ecotoneppEB8_
FN:201,_RINvNtNtNtCsagClJoJoeWA_11kona_client8fpvm_evm11precompiles8provider19accelerated_graniteppEB8_
FN:215,_RINvNtNtNtCsagClJoJoeWA_11kona_client8fpvm_evm11precompiles8provider19accelerated_isthmusppEB8_
FN:69,_RNCNvMNtNtNtCsagClJoJoeWA_11kona_client8fpvm_evm11precompiles8providerINtB4_17OpFpvmPrecompilesppE13new_with_spec0Ba_
FN:43,_RNvMNtNtNtCsagClJoJoeWA_11kona_client8fpvm_evm11precompiles8providerINtB2_17OpFpvmPrecompilesppE13new_with_specB8_
FN:166,_RNvMs0_NtNtNtCsagClJoJoeWA_11kona_client8fpvm_evm11precompiles8providerINtB5_21AcceleratedPrecompileppE3newBb_
FN:143,_RNvXININtNtNtCsagClJoJoeWA_11kona_client8fpvm_evm11precompiles8providers_0pppEINtB5_17OpFpvmPrecompilesppEINtNtCsgAVGOY64J6q_12revm_handler19precompile_provider18PrecompileProviderpE14warm_addressesBb_
FN:96,_RNvXININtNtNtCsagClJoJoeWA_11kona_client8fpvm_evm11precompiles8providers_0pppEINtB5_17OpFpvmPrecompilesppEINtNtCsgAVGOY64J6q_12revm_handler19precompile_provider18PrecompileProviderpE3runBb_
FN:148,_RNvXININtNtNtCsagClJoJoeWA_11kona_client8fpvm_evm11precompiles8providers_0pppEINtB5_17OpFpvmPrecompilesppEINtNtCsgAVGOY64J6q_12revm_handler19precompile_provider18PrecompileProviderpE8containsBb_
FN:87,_RNvXININtNtNtCsagClJoJoeWA_11kona_client8fpvm_evm11precompiles8providers_0pppEINtB5_17OpFpvmPrecompilesppEINtNtCsgAVGOY64J6q_12revm_handler19precompile_provider18PrecompileProviderpE8set_specBb_
FNDA:0,_RINvNtNtNtCsagClJoJoeWA_11kona_client8fpvm_evm11precompiles8provider19accelerated_bedrockppEB8_
FNDA:0,_RINvNtNtNtCsagClJoJoeWA_11kona_client8fpvm_evm11precompiles8provider19accelerated_ecotoneppEB8_
FNDA:0,_RINvNtNtNtCsagClJoJoeWA_11kona_client8fpvm_evm11precompiles8provider19accelerated_graniteppEB8_
FNDA:0,_RINvNtNtNtCsagClJoJoeWA_11kona_client8fpvm_evm11precompiles8provider19accelerated_isthmusppEB8_
FNDA:0,_RNCNvMNtNtNtCsagClJoJoeWA_11kona_client8fpvm_evm11precompiles8providerINtB4_17OpFpvmPrecompilesppE13new_with_spec0Ba_
FNDA:0,_RNvMNtNtNtCsagClJoJoeWA_11kona_client8fpvm_evm11precompiles8providerINtB2_17OpFpvmPrecompilesppE13new_with_specB8_
FNDA:0,_RNvMs0_NtNtNtCsagClJoJoeWA_11kona_client8fpvm_evm11precompiles8providerINtB5_21AcceleratedPrecompileppE3newBb_
FNDA:0,_RNvXININtNtNtCsagClJoJoeWA_11kona_client8fpvm_evm11precompiles8providers_0pppEINtB5_17OpFpvmPrecompilesppEINtNtCsgAVGOY64J6q_12revm_handler19precompile_provider18PrecompileProviderpE14warm_addressesBb_
FNDA:0,_RNvXININtNtNtCsagClJoJoeWA_11kona_client8fpvm_evm11precompiles8providers_0pppEINtB5_17OpFpvmPrecompilesppEINtNtCsgAVGOY64J6q_12revm_handler19precompile_provider18PrecompileProviderpE3runBb_
FNDA:0,_RNvXININtNtNtCsagClJoJoeWA_11kona_client8fpvm_evm11precompiles8providers_0pppEINtB5_17OpFpvmPrecompilesppEINtNtCsgAVGOY64J6q_12revm_handler19precompile_provider18PrecompileProviderpE8containsBb_
FNDA:0,_RNvXININtNtNtCsagClJoJoeWA_11kona_client8fpvm_evm11precompiles8providers_0pppEINtB5_17OpFpvmPrecompilesppEINtNtCsgAVGOY64J6q_12revm_handler19precompile_provider18PrecompileProviderpE8set_specBb_
FNF:11
FNH:0
DA:43,0
DA:44,0
DA:45,0
DA:46,0
DA:47,0
DA:48,0
DA:49,0
DA:50,0
DA:51,0
DA:54,0
DA:56,0
DA:58,0
DA:59,0
DA:61,0
DA:65,0
DA:66,0
DA:67,0
DA:68,0
DA:69,0
DA:70,0
DA:71,0
DA:72,0
DA:73,0
DA:74,0
DA:75,0
DA:87,0
DA:88,0
DA:89,0
DA:90,0
DA:91,0
DA:92,0
DA:93,0
DA:96,0
DA:97,0
DA:98,0
DA:99,0
DA:100,0
DA:101,0
DA:102,0
DA:103,0
DA:104,0
DA:105,0
DA:106,0
DA:107,0
DA:108,0
DA:114,0
DA:115,0
DA:116,0
DA:117,0
DA:119,0
DA:122,0
DA:123,0
DA:124,0
DA:125,0
DA:126,0
DA:127,0
DA:129,0
DA:130,0
DA:131,0
DA:132,0
DA:134,0
DA:139,0
DA:140,0
DA:143,0
DA:144,0
DA:145,0
DA:148,0
DA:149,0
DA:150,0
DA:166,0
DA:167,0
DA:168,0
DA:172,0
DA:173,0
DA:174,0
DA:175,0
DA:176,0
DA:177,0
DA:178,0
DA:179,0
DA:180,0
DA:181,0
DA:182,0
DA:183,0
DA:184,0
DA:187,0
DA:188,0
DA:189,0
DA:190,0
DA:191,0
DA:192,0
DA:193,0
DA:194,0
DA:195,0
DA:196,0
DA:197,0
DA:198,0
DA:201,0
DA:202,0
DA:203,0
DA:204,0
DA:205,0
DA:206,0
DA:207,0
DA:208,0
DA:209,0
DA:210,0
DA:211,0
DA:212,0
DA:215,0
DA:216,0
DA:217,0
DA:218,0
DA:219,0
DA:220,0
DA:221,0
DA:222,0
DA:223,0
DA:224,0
DA:225,0
DA:226,0
DA:227,0
DA:228,0
DA:229,0
DA:230,0
DA:231,0
DA:232,0
DA:233,0
DA:234,0
DA:235,0
DA:236,0
DA:237,0
DA:238,0
DA:239,0
DA:240,0
DA:241,0
DA:242,0
DA:243,0
DA:244,0
DA:245,0
DA:246,0
DA:247,0
DA:248,0
DA:249,0
DA:250,0
BRF:0
BRH:0
LF:146
LH:0
end_of_record
SF:/Users/andreasbigger/kona/bin/client/src/fpvm_evm/precompiles/test_utils.rs
FN:20,_RNCINvNtNtNtCsagClJoJoeWA_11kona_client8fpvm_evm11precompiles10test_utils27test_accelerated_precompileNCNCNvNtNtB6_10bn128_pair4tests_30test_accelerated_bn128_pairing00E0Ba_
FN:20,_RNCINvNtNtNtCsagClJoJoeWA_11kona_client8fpvm_evm11precompiles10test_utils27test_accelerated_precompileNCNCNvNtNtB6_10bn128_pair4tests_38test_accelerated_bn128_pairing_granite00E0Ba_
FN:20,_RNCINvNtNtNtCsagClJoJoeWA_11kona_client8fpvm_evm11precompiles10test_utils27test_accelerated_precompileNCNCNvNtNtB6_10bn128_pair4tests_44test_accelerated_bn128_pairing_bad_input_len00E0Ba_
FN:20,_RNCINvNtNtNtCsagClJoJoeWA_11kona_client8fpvm_evm11precompiles10test_utils27test_accelerated_precompileNCNCNvNtNtB6_10bn128_pair4tests_45test_accelerated_bn128_pairing_not_enough_gas00E0Ba_
FN:20,_RNCINvNtNtNtCsagClJoJoeWA_11kona_client8fpvm_evm11precompiles10test_utils27test_accelerated_precompileNCNCNvNtNtB6_10bn128_pair4tests_52test_accelerated_bn128_pairing_bad_input_len_granite00E0Ba_
FN:35,_RNCNCINvNtNtNtCsagClJoJoeWA_11kona_client8fpvm_evm11precompiles10test_utils27test_accelerated_precompileNCNCNvNtNtB8_10bn128_pair4tests_30test_accelerated_bn128_pairing00E0s_0Bc_
FN:35,_RNCNCINvNtNtNtCsagClJoJoeWA_11kona_client8fpvm_evm11precompiles10test_utils27test_accelerated_precompileNCNCNvNtNtB8_10bn128_pair4tests_38test_accelerated_bn128_pairing_granite00E0s_0Bc_
FN:35,_RNCNCINvNtNtNtCsagClJoJoeWA_11kona_client8fpvm_evm11precompiles10test_utils27test_accelerated_precompileNCNCNvNtNtB8_10bn128_pair4tests_44test_accelerated_bn128_pairing_bad_input_len00E0s_0Bc_
FN:35,_RNCNCINvNtNtNtCsagClJoJoeWA_11kona_client8fpvm_evm11precompiles10test_utils27test_accelerated_precompileNCNCNvNtNtB8_10bn128_pair4tests_45test_accelerated_bn128_pairing_not_enough_gas00E0s_0Bc_
FN:35,_RNCNCINvNtNtNtCsagClJoJoeWA_11kona_client8fpvm_evm11precompiles10test_utils27test_accelerated_precompileNCNCNvNtNtB8_10bn128_pair4tests_52test_accelerated_bn128_pairing_bad_input_len_granite00E0s_0Bc_
FN:20,_RNCINvNtNtNtCsagClJoJoeWA_11kona_client8fpvm_evm11precompiles10test_utils27test_accelerated_precompileNCNCNvNtNtB6_12bls12_map_fp4tests_36test_accelerated_bls12_381_map_fp_g100E0Ba_
FN:20,_RNCINvNtNtNtCsagClJoJoeWA_11kona_client8fpvm_evm11precompiles10test_utils27test_accelerated_precompileNCNCNvNtNtB6_12bls12_map_fp4tests_50test_accelerated_bls12_381_map_fp_g1_bad_gas_limit00E0Ba_
FN:20,_RNCINvNtNtNtCsagClJoJoeWA_11kona_client8fpvm_evm11precompiles10test_utils27test_accelerated_precompileNCNCNvNtNtB6_12bls12_map_fp4tests_51test_accelerated_bls12_381_map_fp_g1_bad_input_size00E0Ba_
FN:35,_RNCNCINvNtNtNtCsagClJoJoeWA_11kona_client8fpvm_evm11precompiles10test_utils27test_accelerated_precompileNCNCNvNtNtB8_12bls12_map_fp4tests_36test_accelerated_bls12_381_map_fp_g100E0s_0Bc_
FN:35,_RNCNCINvNtNtNtCsagClJoJoeWA_11kona_client8fpvm_evm11precompiles10test_utils27test_accelerated_precompileNCNCNvNtNtB8_12bls12_map_fp4tests_50test_accelerated_bls12_381_map_fp_g1_bad_gas_limit00E0s_0Bc_
FN:35,_RNCNCINvNtNtNtCsagClJoJoeWA_11kona_client8fpvm_evm11precompiles10test_utils27test_accelerated_precompileNCNCNvNtNtB8_12bls12_map_fp4tests_51test_accelerated_bls12_381_map_fp_g1_bad_input_size00E0s_0Bc_
FN:20,_RNCINvNtNtNtCsagClJoJoeWA_11kona_client8fpvm_evm11precompiles10test_utils27test_accelerated_precompileNCNCNvNtNtB6_14kzg_point_eval4tests_31test_accelerated_kzg_point_eval00E0Ba_
FN:20,_RNCINvNtNtNtCsagClJoJoeWA_11kona_client8fpvm_evm11precompiles10test_utils27test_accelerated_precompileNCNCNvNtNtB6_14kzg_point_eval4tests_42test_accelerated_kzg_point_eval_out_of_gas00E0Ba_
FN:20,_RNCINvNtNtNtCsagClJoJoeWA_11kona_client8fpvm_evm11precompiles10test_utils27test_accelerated_precompileNCNCNvNtNtB6_14kzg_point_eval4tests_46test_accelerated_kzg_point_eval_bad_input_size00E0Ba_
FN:35,_RNCNCINvNtNtNtCsagClJoJoeWA_11kona_client8fpvm_evm11precompiles10test_utils27test_accelerated_precompileNCNCNvNtNtB8_14kzg_point_eval4tests_31test_accelerated_kzg_point_eval00E0s_0Bc_
FN:35,_RNCNCINvNtNtNtCsagClJoJoeWA_11kona_client8fpvm_evm11precompiles10test_utils27test_accelerated_precompileNCNCNvNtNtB8_14kzg_point_eval4tests_42test_accelerated_kzg_point_eval_out_of_gas00E0s_0Bc_
FN:35,_RNCNCINvNtNtNtCsagClJoJoeWA_11kona_client8fpvm_evm11precompiles10test_utils27test_accelerated_precompileNCNCNvNtNtB8_14kzg_point_eval4tests_46test_accelerated_kzg_point_eval_bad_input_size00E0s_0Bc_
FN:118,_RNCNCNvXs1_NtNtNtCsagClJoJoeWA_11kona_client8fpvm_evm11precompiles10test_utilsNtB9_25PrecompilePreimageFetcherNtNtCsbcJAgMR32cv_13kona_preimage6traits15PreimageFetcher12get_preimage00Bf_
FN:119,_RNCNCNvXs1_NtNtNtCsagClJoJoeWA_11kona_client8fpvm_evm11precompiles10test_utilsNtB9_25PrecompilePreimageFetcherNtNtCsbcJAgMR32cv_13kona_preimage6traits15PreimageFetcher12get_preimage0s_0Bf_
FN:101,_RNCNvXs1_NtNtNtCsagClJoJoeWA_11kona_client8fpvm_evm11precompiles10test_utilsNtB7_25PrecompilePreimageFetcherNtNtCsbcJAgMR32cv_13kona_preimage6traits15PreimageFetcher12get_preimage0Bd_
FN:144,_RNCNvXs5_NtNtNtCsagClJoJoeWA_11kona_client8fpvm_evm11precompiles10test_utilsNtB7_20PrecompileHintRouterNtNtCsbcJAgMR32cv_13kona_preimage6traits10HintRouter10route_hint0Bd_
FN:54,_RNvNtNtNtCsagClJoJoeWA_11kona_client8fpvm_evm11precompiles10test_utils15precompile_host
FN:133,_RNvXs1_NtNtNtCsagClJoJoeWA_11kona_client8fpvm_evm11precompiles10test_utilsNtB5_25PrecompilePreimageFetcherNtNtCsbcJAgMR32cv_13kona_preimage6traits15PreimageFetcher12get_preimage
FN:147,_RNvXs5_NtNtNtCsagClJoJoeWA_11kona_client8fpvm_evm11precompiles10test_utilsNtB5_20PrecompileHintRouterNtNtCsbcJAgMR32cv_13kona_preimage6traits10HintRouter10route_hint
FN:20,_RNCINvNtNtNtCsagClJoJoeWA_11kona_client8fpvm_evm11precompiles10test_utils27test_accelerated_precompileNCNCNvNtNtB6_12bls12_g1_msm4tests_33test_accelerated_bls12_381_g1_msm00E0Ba_
FN:20,_RNCINvNtNtNtCsagClJoJoeWA_11kona_client8fpvm_evm11precompiles10test_utils27test_accelerated_precompileNCNCNvNtNtB6_12bls12_g1_msm4tests_47test_accelerated_bls12_381_g1_msm_bad_gas_limit00E0Ba_
FN:20,_RNCINvNtNtNtCsagClJoJoeWA_11kona_client8fpvm_evm11precompiles10test_utils27test_accelerated_precompileNCNCNvNtNtB6_12bls12_g1_msm4tests_47test_accelerated_bls12_381_g1_msm_bad_input_len00E0Ba_
FN:20,_RNCINvNtNtNtCsagClJoJoeWA_11kona_client8fpvm_evm11precompiles10test_utils27test_accelerated_precompileNCNCNvNtNtB6_12bls12_g1_msm4tests_55test_accelerated_bls12_381_g1_msm_bad_input_len_isthmus00E0Ba_
FN:35,_RNCNCINvNtNtNtCsagClJoJoeWA_11kona_client8fpvm_evm11precompiles10test_utils27test_accelerated_precompileNCNCNvNtNtB8_12bls12_g1_msm4tests_33test_accelerated_bls12_381_g1_msm00E0s_0Bc_
FN:35,_RNCNCINvNtNtNtCsagClJoJoeWA_11kona_client8fpvm_evm11precompiles10test_utils27test_accelerated_precompileNCNCNvNtNtB8_12bls12_g1_msm4tests_47test_accelerated_bls12_381_g1_msm_bad_gas_limit00E0s_0Bc_
FN:35,_RNCNCINvNtNtNtCsagClJoJoeWA_11kona_client8fpvm_evm11precompiles10test_utils27test_accelerated_precompileNCNCNvNtNtB8_12bls12_g1_msm4tests_47test_accelerated_bls12_381_g1_msm_bad_input_len00E0s_0Bc_
FN:35,_RNCNCINvNtNtNtCsagClJoJoeWA_11kona_client8fpvm_evm11precompiles10test_utils27test_accelerated_precompileNCNCNvNtNtB8_12bls12_g1_msm4tests_55test_accelerated_bls12_381_g1_msm_bad_input_len_isthmus00E0s_0Bc_
FN:20,_RNCINvNtNtNtCsagClJoJoeWA_11kona_client8fpvm_evm11precompiles10test_utils27test_accelerated_precompileNCNCNvNtNtB6_12bls12_g2_add4tests_33test_accelerated_bls12_381_g2_add00E0Ba_
FN:20,_RNCINvNtNtNtCsagClJoJoeWA_11kona_client8fpvm_evm11precompiles10test_utils27test_accelerated_precompileNCNCNvNtNtB6_12bls12_g2_add4tests_47test_accelerated_bls12_381_g2_add_bad_gas_limit00E0Ba_
FN:20,_RNCINvNtNtNtCsagClJoJoeWA_11kona_client8fpvm_evm11precompiles10test_utils27test_accelerated_precompileNCNCNvNtNtB6_12bls12_g2_add4tests_47test_accelerated_bls12_381_g2_add_bad_input_len00E0Ba_
FN:35,_RNCNCINvNtNtNtCsagClJoJoeWA_11kona_client8fpvm_evm11precompiles10test_utils27test_accelerated_precompileNCNCNvNtNtB8_12bls12_g2_add4tests_33test_accelerated_bls12_381_g2_add00E0s_0Bc_
FN:35,_RNCNCINvNtNtNtCsagClJoJoeWA_11kona_client8fpvm_evm11precompiles10test_utils27test_accelerated_precompileNCNCNvNtNtB8_12bls12_g2_add4tests_47test_accelerated_bls12_381_g2_add_bad_gas_limit00E0s_0Bc_
FN:35,_RNCNCINvNtNtNtCsagClJoJoeWA_11kona_client8fpvm_evm11precompiles10test_utils27test_accelerated_precompileNCNCNvNtNtB8_12bls12_g2_add4tests_47test_accelerated_bls12_381_g2_add_bad_input_len00E0s_0Bc_
FN:28,_RNCNCINvNtNtNtCsagClJoJoeWA_11kona_client8fpvm_evm11precompiles10test_utils27test_accelerated_precompileNCNCNvNtNtB8_10bls12_pair4tests_34test_accelerated_bls12_381_pairing00E00Bc_
FN:28,_RNCNCINvNtNtNtCsagClJoJoeWA_11kona_client8fpvm_evm11precompiles10test_utils27test_accelerated_precompileNCNCNvNtNtB8_10bls12_pair4tests_48test_accelerated_bls12_381_pairing_bad_gas_limit00E00Bc_
FN:28,_RNCNCINvNtNtNtCsagClJoJoeWA_11kona_client8fpvm_evm11precompiles10test_utils27test_accelerated_precompileNCNCNvNtNtB8_10bls12_pair4tests_48test_accelerated_bls12_381_pairing_bad_input_len00E00Bc_
FN:28,_RNCNCINvNtNtNtCsagClJoJoeWA_11kona_client8fpvm_evm11precompiles10test_utils27test_accelerated_precompileNCNCNvNtNtB8_10bls12_pair4tests_56test_accelerated_bls12_381_pairing_bad_input_len_isthmus00E00Bc_
FN:28,_RNCNCINvNtNtNtCsagClJoJoeWA_11kona_client8fpvm_evm11precompiles10test_utils27test_accelerated_precompileNCNCNvNtNtB8_10bn128_pair4tests_30test_accelerated_bn128_pairing00E00Bc_
FN:28,_RNCNCINvNtNtNtCsagClJoJoeWA_11kona_client8fpvm_evm11precompiles10test_utils27test_accelerated_precompileNCNCNvNtNtB8_10bn128_pair4tests_38test_accelerated_bn128_pairing_granite00E00Bc_
FN:28,_RNCNCINvNtNtNtCsagClJoJoeWA_11kona_client8fpvm_evm11precompiles10test_utils27test_accelerated_precompileNCNCNvNtNtB8_10bn128_pair4tests_44test_accelerated_bn128_pairing_bad_input_len00E00Bc_
FN:28,_RNCNCINvNtNtNtCsagClJoJoeWA_11kona_client8fpvm_evm11precompiles10test_utils27test_accelerated_precompileNCNCNvNtNtB8_10bn128_pair4tests_45test_accelerated_bn128_pairing_not_enough_gas00E00Bc_
FN:28,_RNCNCINvNtNtNtCsagClJoJoeWA_11kona_client8fpvm_evm11precompiles10test_utils27test_accelerated_precompileNCNCNvNtNtB8_10bn128_pair4tests_52test_accelerated_bn128_pairing_bad_input_len_granite00E00Bc_
FN:28,_RNCNCINvNtNtNtCsagClJoJoeWA_11kona_client8fpvm_evm11precompiles10test_utils27test_accelerated_precompileNCNCNvNtNtB8_12bls12_g1_add4tests_33test_accelerated_bls12_381_g1_add00E00Bc_
FN:28,_RNCNCINvNtNtNtCsagClJoJoeWA_11kona_client8fpvm_evm11precompiles10test_utils27test_accelerated_precompileNCNCNvNtNtB8_12bls12_g1_add4tests_47test_accelerated_bls12_381_g1_add_bad_gas_limit00E00Bc_
FN:28,_RNCNCINvNtNtNtCsagClJoJoeWA_11kona_client8fpvm_evm11precompiles10test_utils27test_accelerated_precompileNCNCNvNtNtB8_12bls12_g1_add4tests_47test_accelerated_bls12_381_g1_add_bad_input_len00E00Bc_
FN:28,_RNCNCINvNtNtNtCsagClJoJoeWA_11kona_client8fpvm_evm11precompiles10test_utils27test_accelerated_precompileNCNCNvNtNtB8_12bls12_g1_msm4tests_33test_accelerated_bls12_381_g1_msm00E00Bc_
FN:28,_RNCNCINvNtNtNtCsagClJoJoeWA_11kona_client8fpvm_evm11precompiles10test_utils27test_accelerated_precompileNCNCNvNtNtB8_12bls12_g1_msm4tests_47test_accelerated_bls12_381_g1_msm_bad_gas_limit00E00Bc_
FN:28,_RNCNCINvNtNtNtCsagClJoJoeWA_11kona_client8fpvm_evm11precompiles10test_utils27test_accelerated_precompileNCNCNvNtNtB8_12bls12_g1_msm4tests_47test_accelerated_bls12_381_g1_msm_bad_input_len00E00Bc_
FN:28,_RNCNCINvNtNtNtCsagClJoJoeWA_11kona_client8fpvm_evm11precompiles10test_utils27test_accelerated_precompileNCNCNvNtNtB8_12bls12_g1_msm4tests_55test_accelerated_bls12_381_g1_msm_bad_input_len_isthmus00E00Bc_
FN:28,_RNCNCINvNtNtNtCsagClJoJoeWA_11kona_client8fpvm_evm11precompiles10test_utils27test_accelerated_precompileNCNCNvNtNtB8_12bls12_g2_add4tests_33test_accelerated_bls12_381_g2_add00E00Bc_
FN:28,_RNCNCINvNtNtNtCsagClJoJoeWA_11kona_client8fpvm_evm11precompiles10test_utils27test_accelerated_precompileNCNCNvNtNtB8_12bls12_g2_add4tests_47test_accelerated_bls12_381_g2_add_bad_gas_limit00E00Bc_
FN:28,_RNCNCINvNtNtNtCsagClJoJoeWA_11kona_client8fpvm_evm11precompiles10test_utils27test_accelerated_precompileNCNCNvNtNtB8_12bls12_g2_add4tests_47test_accelerated_bls12_381_g2_add_bad_input_len00E00Bc_
FN:28,_RNCNCINvNtNtNtCsagClJoJoeWA_11kona_client8fpvm_evm11precompiles10test_utils27test_accelerated_precompileNCNCNvNtNtB8_12bls12_g2_msm4tests_33test_accelerated_bls12_381_g2_msm00E00Bc_
FN:28,_RNCNCINvNtNtNtCsagClJoJoeWA_11kona_client8fpvm_evm11precompiles10test_utils27test_accelerated_precompileNCNCNvNtNtB8_12bls12_g2_msm4tests_47test_accelerated_bls12_381_g2_msm_bad_gas_limit00E00Bc_
FN:28,_RNCNCINvNtNtNtCsagClJoJoeWA_11kona_client8fpvm_evm11precompiles10test_utils27test_accelerated_precompileNCNCNvNtNtB8_12bls12_g2_msm4tests_47test_accelerated_bls12_381_g2_msm_bad_input_len00E00Bc_
FN:28,_RNCNCINvNtNtNtCsagClJoJoeWA_11kona_client8fpvm_evm11precompiles10test_utils27test_accelerated_precompileNCNCNvNtNtB8_12bls12_g2_msm4tests_55test_accelerated_bls12_381_g2_msm_bad_input_len_isthmus00E00Bc_
FN:28,_RNCNCINvNtNtNtCsagClJoJoeWA_11kona_client8fpvm_evm11precompiles10test_utils27test_accelerated_precompileNCNCNvNtNtB8_12bls12_map_fp4tests_36test_accelerated_bls12_381_map_fp_g100E00Bc_
FN:28,_RNCNCINvNtNtNtCsagClJoJoeWA_11kona_client8fpvm_evm11precompiles10test_utils27test_accelerated_precompileNCNCNvNtNtB8_12bls12_map_fp4tests_50test_accelerated_bls12_381_map_fp_g1_bad_gas_limit00E00Bc_
FN:28,_RNCNCINvNtNtNtCsagClJoJoeWA_11kona_client8fpvm_evm11precompiles10test_utils27test_accelerated_precompileNCNCNvNtNtB8_12bls12_map_fp4tests_51test_accelerated_bls12_381_map_fp_g1_bad_input_size00E00Bc_
FN:28,_RNCNCINvNtNtNtCsagClJoJoeWA_11kona_client8fpvm_evm11precompiles10test_utils27test_accelerated_precompileNCNCNvNtNtB8_13bls12_map_fp24tests_36test_accelerated_bls12_381_map_fp_g200E00Bc_
FN:28,_RNCNCINvNtNtNtCsagClJoJoeWA_11kona_client8fpvm_evm11precompiles10test_utils27test_accelerated_precompileNCNCNvNtNtB8_13bls12_map_fp24tests_50test_accelerated_bls12_381_map_fp_g2_bad_gas_limit00E00Bc_
FN:28,_RNCNCINvNtNtNtCsagClJoJoeWA_11kona_client8fpvm_evm11precompiles10test_utils27test_accelerated_precompileNCNCNvNtNtB8_13bls12_map_fp24tests_51test_accelerated_bls12_381_map_fp_g2_bad_input_size00E00Bc_
FN:28,_RNCNCINvNtNtNtCsagClJoJoeWA_11kona_client8fpvm_evm11precompiles10test_utils27test_accelerated_precompileNCNCNvNtNtB8_14kzg_point_eval4tests_31test_accelerated_kzg_point_eval00E00Bc_
FN:28,_RNCNCINvNtNtNtCsagClJoJoeWA_11kona_client8fpvm_evm11precompiles10test_utils27test_accelerated_precompileNCNCNvNtNtB8_14kzg_point_eval4tests_42test_accelerated_kzg_point_eval_out_of_gas00E00Bc_
FN:28,_RNCNCINvNtNtNtCsagClJoJoeWA_11kona_client8fpvm_evm11precompiles10test_utils27test_accelerated_precompileNCNCNvNtNtB8_14kzg_point_eval4tests_46test_accelerated_kzg_point_eval_bad_input_size00E00Bc_
FN:28,_RNCNCINvNtNtNtCsagClJoJoeWA_11kona_client8fpvm_evm11precompiles10test_utils27test_accelerated_precompileNCNCNvNtNtB8_9ecrecover4tests_26test_accelerated_ecrecover00E00Bc_
FN:28,_RNCNCINvNtNtNtCsagClJoJoeWA_11kona_client8fpvm_evm11precompiles10test_utils27test_accelerated_precompileNCNCNvNtNtB8_9ecrecover4tests_37test_accelerated_ecrecover_out_of_gas00E00Bc_
FN:63,_RNCNCNvNtNtNtCsagClJoJoeWA_11kona_client8fpvm_evm11precompiles10test_utils15precompile_host00Bb_
FN:86,_RNCNCNvNtNtNtCsagClJoJoeWA_11kona_client8fpvm_evm11precompiles10test_utils15precompile_host0s0_0Bb_
FN:74,_RNCNCNvNtNtNtCsagClJoJoeWA_11kona_client8fpvm_evm11precompiles10test_utils15precompile_host0s_0Bb_
FN:57,_RNCNvNtNtNtCsagClJoJoeWA_11kona_client8fpvm_evm11precompiles10test_utils15precompile_host0B9_
FN:20,_RNCINvNtNtNtCsagClJoJoeWA_11kona_client8fpvm_evm11precompiles10test_utils27test_accelerated_precompileNCNCNvNtNtB6_10bls12_pair4tests_34test_accelerated_bls12_381_pairing00E0Ba_
FN:20,_RNCINvNtNtNtCsagClJoJoeWA_11kona_client8fpvm_evm11precompiles10test_utils27test_accelerated_precompileNCNCNvNtNtB6_10bls12_pair4tests_48test_accelerated_bls12_381_pairing_bad_gas_limit00E0Ba_
FN:20,_RNCINvNtNtNtCsagClJoJoeWA_11kona_client8fpvm_evm11precompiles10test_utils27test_accelerated_precompileNCNCNvNtNtB6_10bls12_pair4tests_48test_accelerated_bls12_381_pairing_bad_input_len00E0Ba_
FN:20,_RNCINvNtNtNtCsagClJoJoeWA_11kona_client8fpvm_evm11precompiles10test_utils27test_accelerated_precompileNCNCNvNtNtB6_10bls12_pair4tests_56test_accelerated_bls12_381_pairing_bad_input_len_isthmus00E0Ba_
FN:35,_RNCNCINvNtNtNtCsagClJoJoeWA_11kona_client8fpvm_evm11precompiles10test_utils27test_accelerated_precompileNCNCNvNtNtB8_10bls12_pair4tests_34test_accelerated_bls12_381_pairing00E0s_0Bc_
FN:35,_RNCNCINvNtNtNtCsagClJoJoeWA_11kona_client8fpvm_evm11precompiles10test_utils27test_accelerated_precompileNCNCNvNtNtB8_10bls12_pair4tests_48test_accelerated_bls12_381_pairing_bad_gas_limit00E0s_0Bc_
FN:35,_RNCNCINvNtNtNtCsagClJoJoeWA_11kona_client8fpvm_evm11precompiles10test_utils27test_accelerated_precompileNCNCNvNtNtB8_10bls12_pair4tests_48test_accelerated_bls12_381_pairing_bad_input_len00E0s_0Bc_
FN:35,_RNCNCINvNtNtNtCsagClJoJoeWA_11kona_client8fpvm_evm11precompiles10test_utils27test_accelerated_precompileNCNCNvNtNtB8_10bls12_pair4tests_56test_accelerated_bls12_381_pairing_bad_input_len_isthmus00E0s_0Bc_
FN:20,_RNCINvNtNtNtCsagClJoJoeWA_11kona_client8fpvm_evm11precompiles10test_utils27test_accelerated_precompileNCNCNvNtNtB6_12bls12_g1_add4tests_33test_accelerated_bls12_381_g1_add00E0Ba_
FN:20,_RNCINvNtNtNtCsagClJoJoeWA_11kona_client8fpvm_evm11precompiles10test_utils27test_accelerated_precompileNCNCNvNtNtB6_12bls12_g1_add4tests_47test_accelerated_bls12_381_g1_add_bad_gas_limit00E0Ba_
FN:20,_RNCINvNtNtNtCsagClJoJoeWA_11kona_client8fpvm_evm11precompiles10test_utils27test_accelerated_precompileNCNCNvNtNtB6_12bls12_g1_add4tests_47test_accelerated_bls12_381_g1_add_bad_input_len00E0Ba_
FN:35,_RNCNCINvNtNtNtCsagClJoJoeWA_11kona_client8fpvm_evm11precompiles10test_utils27test_accelerated_precompileNCNCNvNtNtB8_12bls12_g1_add4tests_33test_accelerated_bls12_381_g1_add00E0s_0Bc_
FN:35,_RNCNCINvNtNtNtCsagClJoJoeWA_11kona_client8fpvm_evm11precompiles10test_utils27test_accelerated_precompileNCNCNvNtNtB8_12bls12_g1_add4tests_47test_accelerated_bls12_381_g1_add_bad_gas_limit00E0s_0Bc_
FN:35,_RNCNCINvNtNtNtCsagClJoJoeWA_11kona_client8fpvm_evm11precompiles10test_utils27test_accelerated_precompileNCNCNvNtNtB8_12bls12_g1_add4tests_47test_accelerated_bls12_381_g1_add_bad_input_len00E0s_0Bc_
FN:20,_RNCINvNtNtNtCsagClJoJoeWA_11kona_client8fpvm_evm11precompiles10test_utils27test_accelerated_precompileNCNCNvNtNtB6_9ecrecover4tests_26test_accelerated_ecrecover00E0Ba_
FN:20,_RNCINvNtNtNtCsagClJoJoeWA_11kona_client8fpvm_evm11precompiles10test_utils27test_accelerated_precompileNCNCNvNtNtB6_9ecrecover4tests_37test_accelerated_ecrecover_out_of_gas00E0Ba_
FN:35,_RNCNCINvNtNtNtCsagClJoJoeWA_11kona_client8fpvm_evm11precompiles10test_utils27test_accelerated_precompileNCNCNvNtNtB8_9ecrecover4tests_26test_accelerated_ecrecover00E0s_0Bc_
FN:35,_RNCNCINvNtNtNtCsagClJoJoeWA_11kona_client8fpvm_evm11precompiles10test_utils27test_accelerated_precompileNCNCNvNtNtB8_9ecrecover4tests_37test_accelerated_ecrecover_out_of_gas00E0s_0Bc_
FN:41,_RINvNtNtNtCsagClJoJoeWA_11kona_client8fpvm_evm11precompiles10test_utils25execute_native_precompileAhj100_EB8_
FN:41,_RINvNtNtNtCsagClJoJoeWA_11kona_client8fpvm_evm11precompiles10test_utils25execute_native_precompileAhj120_EB8_
FN:41,_RINvNtNtNtCsagClJoJoeWA_11kona_client8fpvm_evm11precompiles10test_utils25execute_native_precompileAhj180_EB8_
FN:41,_RINvNtNtNtCsagClJoJoeWA_11kona_client8fpvm_evm11precompiles10test_utils25execute_native_precompileAhj200_EB8_
FN:41,_RINvNtNtNtCsagClJoJoeWA_11kona_client8fpvm_evm11precompiles10test_utils25execute_native_precompileAhj40_EB8_
FN:41,_RINvNtNtNtCsagClJoJoeWA_11kona_client8fpvm_evm11precompiles10test_utils25execute_native_precompileAhj80_EB8_
FN:41,_RINvNtNtNtCsagClJoJoeWA_11kona_client8fpvm_evm11precompiles10test_utils25execute_native_precompileAhja0_EB8_
FN:41,_RINvNtNtNtCsagClJoJoeWA_11kona_client8fpvm_evm11precompiles10test_utils25execute_native_precompileINtNtCs7Lutq36SewB_5alloc3vec3VechEEB8_
FN:18,_RINvNtNtNtCsagClJoJoeWA_11kona_client8fpvm_evm11precompiles10test_utils27test_accelerated_precompileNCNCNvNtNtB4_10bls12_pair4tests_34test_accelerated_bls12_381_pairing00EB8_
FN:18,_RINvNtNtNtCsagClJoJoeWA_11kona_client8fpvm_evm11precompiles10test_utils27test_accelerated_precompileNCNCNvNtNtB4_10bls12_pair4tests_48test_accelerated_bls12_381_pairing_bad_gas_limit00EB8_
FN:18,_RINvNtNtNtCsagClJoJoeWA_11kona_client8fpvm_evm11precompiles10test_utils27test_accelerated_precompileNCNCNvNtNtB4_10bls12_pair4tests_48test_accelerated_bls12_381_pairing_bad_input_len00EB8_
FN:18,_RINvNtNtNtCsagClJoJoeWA_11kona_client8fpvm_evm11precompiles10test_utils27test_accelerated_precompileNCNCNvNtNtB4_10bls12_pair4tests_56test_accelerated_bls12_381_pairing_bad_input_len_isthmus00EB8_
FN:18,_RINvNtNtNtCsagClJoJoeWA_11kona_client8fpvm_evm11precompiles10test_utils27test_accelerated_precompileNCNCNvNtNtB4_10bn128_pair4tests_30test_accelerated_bn128_pairing00EB8_
FN:18,_RINvNtNtNtCsagClJoJoeWA_11kona_client8fpvm_evm11precompiles10test_utils27test_accelerated_precompileNCNCNvNtNtB4_10bn128_pair4tests_38test_accelerated_bn128_pairing_granite00EB8_
FN:18,_RINvNtNtNtCsagClJoJoeWA_11kona_client8fpvm_evm11precompiles10test_utils27test_accelerated_precompileNCNCNvNtNtB4_10bn128_pair4tests_44test_accelerated_bn128_pairing_bad_input_len00EB8_
FN:18,_RINvNtNtNtCsagClJoJoeWA_11kona_client8fpvm_evm11precompiles10test_utils27test_accelerated_precompileNCNCNvNtNtB4_10bn128_pair4tests_45test_accelerated_bn128_pairing_not_enough_gas00EB8_
FN:18,_RINvNtNtNtCsagClJoJoeWA_11kona_client8fpvm_evm11precompiles10test_utils27test_accelerated_precompileNCNCNvNtNtB4_10bn128_pair4tests_52test_accelerated_bn128_pairing_bad_input_len_granite00EB8_
FN:18,_RINvNtNtNtCsagClJoJoeWA_11kona_client8fpvm_evm11precompiles10test_utils27test_accelerated_precompileNCNCNvNtNtB4_12bls12_g1_add4tests_33test_accelerated_bls12_381_g1_add00EB8_
FN:18,_RINvNtNtNtCsagClJoJoeWA_11kona_client8fpvm_evm11precompiles10test_utils27test_accelerated_precompileNCNCNvNtNtB4_12bls12_g1_add4tests_47test_accelerated_bls12_381_g1_add_bad_gas_limit00EB8_
FN:18,_RINvNtNtNtCsagClJoJoeWA_11kona_client8fpvm_evm11precompiles10test_utils27test_accelerated_precompileNCNCNvNtNtB4_12bls12_g1_add4tests_47test_accelerated_bls12_381_g1_add_bad_input_len00EB8_
FN:18,_RINvNtNtNtCsagClJoJoeWA_11kona_client8fpvm_evm11precompiles10test_utils27test_accelerated_precompileNCNCNvNtNtB4_12bls12_g1_msm4tests_33test_accelerated_bls12_381_g1_msm00EB8_
FN:18,_RINvNtNtNtCsagClJoJoeWA_11kona_client8fpvm_evm11precompiles10test_utils27test_accelerated_precompileNCNCNvNtNtB4_12bls12_g1_msm4tests_47test_accelerated_bls12_381_g1_msm_bad_gas_limit00EB8_
FN:18,_RINvNtNtNtCsagClJoJoeWA_11kona_client8fpvm_evm11precompiles10test_utils27test_accelerated_precompileNCNCNvNtNtB4_12bls12_g1_msm4tests_47test_accelerated_bls12_381_g1_msm_bad_input_len00EB8_
FN:18,_RINvNtNtNtCsagClJoJoeWA_11kona_client8fpvm_evm11precompiles10test_utils27test_accelerated_precompileNCNCNvNtNtB4_12bls12_g1_msm4tests_55test_accelerated_bls12_381_g1_msm_bad_input_len_isthmus00EB8_
FN:18,_RINvNtNtNtCsagClJoJoeWA_11kona_client8fpvm_evm11precompiles10test_utils27test_accelerated_precompileNCNCNvNtNtB4_12bls12_g2_add4tests_33test_accelerated_bls12_381_g2_add00EB8_
FN:18,_RINvNtNtNtCsagClJoJoeWA_11kona_client8fpvm_evm11precompiles10test_utils27test_accelerated_precompileNCNCNvNtNtB4_12bls12_g2_add4tests_47test_accelerated_bls12_381_g2_add_bad_gas_limit00EB8_
FN:18,_RINvNtNtNtCsagClJoJoeWA_11kona_client8fpvm_evm11precompiles10test_utils27test_accelerated_precompileNCNCNvNtNtB4_12bls12_g2_add4tests_47test_accelerated_bls12_381_g2_add_bad_input_len00EB8_
FN:18,_RINvNtNtNtCsagClJoJoeWA_11kona_client8fpvm_evm11precompiles10test_utils27test_accelerated_precompileNCNCNvNtNtB4_12bls12_g2_msm4tests_33test_accelerated_bls12_381_g2_msm00EB8_
FN:18,_RINvNtNtNtCsagClJoJoeWA_11kona_client8fpvm_evm11precompiles10test_utils27test_accelerated_precompileNCNCNvNtNtB4_12bls12_g2_msm4tests_47test_accelerated_bls12_381_g2_msm_bad_gas_limit00EB8_
FN:18,_RINvNtNtNtCsagClJoJoeWA_11kona_client8fpvm_evm11precompiles10test_utils27test_accelerated_precompileNCNCNvNtNtB4_12bls12_g2_msm4tests_47test_accelerated_bls12_381_g2_msm_bad_input_len00EB8_
FN:18,_RINvNtNtNtCsagClJoJoeWA_11kona_client8fpvm_evm11precompiles10test_utils27test_accelerated_precompileNCNCNvNtNtB4_12bls12_g2_msm4tests_55test_accelerated_bls12_381_g2_msm_bad_input_len_isthmus00EB8_
FN:18,_RINvNtNtNtCsagClJoJoeWA_11kona_client8fpvm_evm11precompiles10test_utils27test_accelerated_precompileNCNCNvNtNtB4_12bls12_map_fp4tests_36test_accelerated_bls12_381_map_fp_g100EB8_
FN:18,_RINvNtNtNtCsagClJoJoeWA_11kona_client8fpvm_evm11precompiles10test_utils27test_accelerated_precompileNCNCNvNtNtB4_12bls12_map_fp4tests_50test_accelerated_bls12_381_map_fp_g1_bad_gas_limit00EB8_
FN:18,_RINvNtNtNtCsagClJoJoeWA_11kona_client8fpvm_evm11precompiles10test_utils27test_accelerated_precompileNCNCNvNtNtB4_12bls12_map_fp4tests_51test_accelerated_bls12_381_map_fp_g1_bad_input_size00EB8_
FN:18,_RINvNtNtNtCsagClJoJoeWA_11kona_client8fpvm_evm11precompiles10test_utils27test_accelerated_precompileNCNCNvNtNtB4_13bls12_map_fp24tests_36test_accelerated_bls12_381_map_fp_g200EB8_
FN:18,_RINvNtNtNtCsagClJoJoeWA_11kona_client8fpvm_evm11precompiles10test_utils27test_accelerated_precompileNCNCNvNtNtB4_13bls12_map_fp24tests_50test_accelerated_bls12_381_map_fp_g2_bad_gas_limit00EB8_
FN:18,_RINvNtNtNtCsagClJoJoeWA_11kona_client8fpvm_evm11precompiles10test_utils27test_accelerated_precompileNCNCNvNtNtB4_13bls12_map_fp24tests_51test_accelerated_bls12_381_map_fp_g2_bad_input_size00EB8_
FN:18,_RINvNtNtNtCsagClJoJoeWA_11kona_client8fpvm_evm11precompiles10test_utils27test_accelerated_precompileNCNCNvNtNtB4_14kzg_point_eval4tests_31test_accelerated_kzg_point_eval00EB8_
FN:18,_RINvNtNtNtCsagClJoJoeWA_11kona_client8fpvm_evm11precompiles10test_utils27test_accelerated_precompileNCNCNvNtNtB4_14kzg_point_eval4tests_42test_accelerated_kzg_point_eval_out_of_gas00EB8_
FN:18,_RINvNtNtNtCsagClJoJoeWA_11kona_client8fpvm_evm11precompiles10test_utils27test_accelerated_precompileNCNCNvNtNtB4_14kzg_point_eval4tests_46test_accelerated_kzg_point_eval_bad_input_size00EB8_
FN:18,_RINvNtNtNtCsagClJoJoeWA_11kona_client8fpvm_evm11precompiles10test_utils27test_accelerated_precompileNCNCNvNtNtB4_9ecrecover4tests_26test_accelerated_ecrecover00EB8_
FN:18,_RINvNtNtNtCsagClJoJoeWA_11kona_client8fpvm_evm11precompiles10test_utils27test_accelerated_precompileNCNCNvNtNtB4_9ecrecover4tests_37test_accelerated_ecrecover_out_of_gas00EB8_
FN:20,_RNCINvNtNtNtCsagClJoJoeWA_11kona_client8fpvm_evm11precompiles10test_utils27test_accelerated_precompileNCNCNvNtNtB6_13bls12_map_fp24tests_36test_accelerated_bls12_381_map_fp_g200E0Ba_
FN:20,_RNCINvNtNtNtCsagClJoJoeWA_11kona_client8fpvm_evm11precompiles10test_utils27test_accelerated_precompileNCNCNvNtNtB6_13bls12_map_fp24tests_50test_accelerated_bls12_381_map_fp_g2_bad_gas_limit00E0Ba_
FN:20,_RNCINvNtNtNtCsagClJoJoeWA_11kona_client8fpvm_evm11precompiles10test_utils27test_accelerated_precompileNCNCNvNtNtB6_13bls12_map_fp24tests_51test_accelerated_bls12_381_map_fp_g2_bad_input_size00E0Ba_
FN:35,_RNCNCINvNtNtNtCsagClJoJoeWA_11kona_client8fpvm_evm11precompiles10test_utils27test_accelerated_precompileNCNCNvNtNtB8_13bls12_map_fp24tests_36test_accelerated_bls12_381_map_fp_g200E0s_0Bc_
FN:35,_RNCNCINvNtNtNtCsagClJoJoeWA_11kona_client8fpvm_evm11precompiles10test_utils27test_accelerated_precompileNCNCNvNtNtB8_13bls12_map_fp24tests_50test_accelerated_bls12_381_map_fp_g2_bad_gas_limit00E0s_0Bc_
FN:35,_RNCNCINvNtNtNtCsagClJoJoeWA_11kona_client8fpvm_evm11precompiles10test_utils27test_accelerated_precompileNCNCNvNtNtB8_13bls12_map_fp24tests_51test_accelerated_bls12_381_map_fp_g2_bad_input_size00E0s_0Bc_
FN:20,_RNCINvNtNtNtCsagClJoJoeWA_11kona_client8fpvm_evm11precompiles10test_utils27test_accelerated_precompileNCNCNvNtNtB6_12bls12_g2_msm4tests_33test_accelerated_bls12_381_g2_msm00E0Ba_
FN:20,_RNCINvNtNtNtCsagClJoJoeWA_11kona_client8fpvm_evm11precompiles10test_utils27test_accelerated_precompileNCNCNvNtNtB6_12bls12_g2_msm4tests_47test_accelerated_bls12_381_g2_msm_bad_gas_limit00E0Ba_
FN:20,_RNCINvNtNtNtCsagClJoJoeWA_11kona_client8fpvm_evm11precompiles10test_utils27test_accelerated_precompileNCNCNvNtNtB6_12bls12_g2_msm4tests_47test_accelerated_bls12_381_g2_msm_bad_input_len00E0Ba_
FN:20,_RNCINvNtNtNtCsagClJoJoeWA_11kona_client8fpvm_evm11precompiles10test_utils27test_accelerated_precompileNCNCNvNtNtB6_12bls12_g2_msm4tests_55test_accelerated_bls12_381_g2_msm_bad_input_len_isthmus00E0Ba_
FN:35,_RNCNCINvNtNtNtCsagClJoJoeWA_11kona_client8fpvm_evm11precompiles10test_utils27test_accelerated_precompileNCNCNvNtNtB8_12bls12_g2_msm4tests_33test_accelerated_bls12_381_g2_msm00E0s_0Bc_
FN:35,_RNCNCINvNtNtNtCsagClJoJoeWA_11kona_client8fpvm_evm11precompiles10test_utils27test_accelerated_precompileNCNCNvNtNtB8_12bls12_g2_msm4tests_47test_accelerated_bls12_381_g2_msm_bad_gas_limit00E0s_0Bc_
FN:35,_RNCNCINvNtNtNtCsagClJoJoeWA_11kona_client8fpvm_evm11precompiles10test_utils27test_accelerated_precompileNCNCNvNtNtB8_12bls12_g2_msm4tests_47test_accelerated_bls12_381_g2_msm_bad_input_len00E0s_0Bc_
FN:35,_RNCNCINvNtNtNtCsagClJoJoeWA_11kona_client8fpvm_evm11precompiles10test_utils27test_accelerated_precompileNCNCNvNtNtB8_12bls12_g2_msm4tests_55test_accelerated_bls12_381_g2_msm_bad_input_len_isthmus00E0s_0Bc_
FNDA:1,_RNCINvNtNtNtCsagClJoJoeWA_11kona_client8fpvm_evm11precompiles10test_utils27test_accelerated_precompileNCNCNvNtNtB6_10bn128_pair4tests_30test_accelerated_bn128_pairing00E0Ba_
FNDA:1,_RNCINvNtNtNtCsagClJoJoeWA_11kona_client8fpvm_evm11precompiles10test_utils27test_accelerated_precompileNCNCNvNtNtB6_10bn128_pair4tests_38test_accelerated_bn128_pairing_granite00E0Ba_
FNDA:1,_RNCINvNtNtNtCsagClJoJoeWA_11kona_client8fpvm_evm11precompiles10test_utils27test_accelerated_precompileNCNCNvNtNtB6_10bn128_pair4tests_44test_accelerated_bn128_pairing_bad_input_len00E0Ba_
FNDA:1,_RNCINvNtNtNtCsagClJoJoeWA_11kona_client8fpvm_evm11precompiles10test_utils27test_accelerated_precompileNCNCNvNtNtB6_10bn128_pair4tests_45test_accelerated_bn128_pairing_not_enough_gas00E0Ba_
FNDA:1,_RNCINvNtNtNtCsagClJoJoeWA_11kona_client8fpvm_evm11precompiles10test_utils27test_accelerated_precompileNCNCNvNtNtB6_10bn128_pair4tests_52test_accelerated_bn128_pairing_bad_input_len_granite00E0Ba_
FNDA:0,_RNCNCINvNtNtNtCsagClJoJoeWA_11kona_client8fpvm_evm11precompiles10test_utils27test_accelerated_precompileNCNCNvNtNtB8_10bn128_pair4tests_30test_accelerated_bn128_pairing00E0s_0Bc_
FNDA:0,_RNCNCINvNtNtNtCsagClJoJoeWA_11kona_client8fpvm_evm11precompiles10test_utils27test_accelerated_precompileNCNCNvNtNtB8_10bn128_pair4tests_38test_accelerated_bn128_pairing_granite00E0s_0Bc_
FNDA:0,_RNCNCINvNtNtNtCsagClJoJoeWA_11kona_client8fpvm_evm11precompiles10test_utils27test_accelerated_precompileNCNCNvNtNtB8_10bn128_pair4tests_44test_accelerated_bn128_pairing_bad_input_len00E0s_0Bc_
FNDA:0,_RNCNCINvNtNtNtCsagClJoJoeWA_11kona_client8fpvm_evm11precompiles10test_utils27test_accelerated_precompileNCNCNvNtNtB8_10bn128_pair4tests_45test_accelerated_bn128_pairing_not_enough_gas00E0s_0Bc_
FNDA:0,_RNCNCINvNtNtNtCsagClJoJoeWA_11kona_client8fpvm_evm11precompiles10test_utils27test_accelerated_precompileNCNCNvNtNtB8_10bn128_pair4tests_52test_accelerated_bn128_pairing_bad_input_len_granite00E0s_0Bc_
FNDA:1,_RNCINvNtNtNtCsagClJoJoeWA_11kona_client8fpvm_evm11precompiles10test_utils27test_accelerated_precompileNCNCNvNtNtB6_12bls12_map_fp4tests_36test_accelerated_bls12_381_map_fp_g100E0Ba_
FNDA:1,_RNCINvNtNtNtCsagClJoJoeWA_11kona_client8fpvm_evm11precompiles10test_utils27test_accelerated_precompileNCNCNvNtNtB6_12bls12_map_fp4tests_50test_accelerated_bls12_381_map_fp_g1_bad_gas_limit00E0Ba_
FNDA:1,_RNCINvNtNtNtCsagClJoJoeWA_11kona_client8fpvm_evm11precompiles10test_utils27test_accelerated_precompileNCNCNvNtNtB6_12bls12_map_fp4tests_51test_accelerated_bls12_381_map_fp_g1_bad_input_size00E0Ba_
FNDA:0,_RNCNCINvNtNtNtCsagClJoJoeWA_11kona_client8fpvm_evm11precompiles10test_utils27test_accelerated_precompileNCNCNvNtNtB8_12bls12_map_fp4tests_36test_accelerated_bls12_381_map_fp_g100E0s_0Bc_
FNDA:0,_RNCNCINvNtNtNtCsagClJoJoeWA_11kona_client8fpvm_evm11precompiles10test_utils27test_accelerated_precompileNCNCNvNtNtB8_12bls12_map_fp4tests_50test_accelerated_bls12_381_map_fp_g1_bad_gas_limit00E0s_0Bc_
FNDA:0,_RNCNCINvNtNtNtCsagClJoJoeWA_11kona_client8fpvm_evm11precompiles10test_utils27test_accelerated_precompileNCNCNvNtNtB8_12bls12_map_fp4tests_51test_accelerated_bls12_381_map_fp_g1_bad_input_size00E0s_0Bc_
FNDA:1,_RNCINvNtNtNtCsagClJoJoeWA_11kona_client8fpvm_evm11precompiles10test_utils27test_accelerated_precompileNCNCNvNtNtB6_14kzg_point_eval4tests_31test_accelerated_kzg_point_eval00E0Ba_
FNDA:1,_RNCINvNtNtNtCsagClJoJoeWA_11kona_client8fpvm_evm11precompiles10test_utils27test_accelerated_precompileNCNCNvNtNtB6_14kzg_point_eval4tests_42test_accelerated_kzg_point_eval_out_of_gas00E0Ba_
FNDA:1,_RNCINvNtNtNtCsagClJoJoeWA_11kona_client8fpvm_evm11precompiles10test_utils27test_accelerated_precompileNCNCNvNtNtB6_14kzg_point_eval4tests_46test_accelerated_kzg_point_eval_bad_input_size00E0Ba_
FNDA:0,_RNCNCINvNtNtNtCsagClJoJoeWA_11kona_client8fpvm_evm11precompiles10test_utils27test_accelerated_precompileNCNCNvNtNtB8_14kzg_point_eval4tests_31test_accelerated_kzg_point_eval00E0s_0Bc_
FNDA:0,_RNCNCINvNtNtNtCsagClJoJoeWA_11kona_client8fpvm_evm11precompiles10test_utils27test_accelerated_precompileNCNCNvNtNtB8_14kzg_point_eval4tests_42test_accelerated_kzg_point_eval_out_of_gas00E0s_0Bc_
FNDA:0,_RNCNCINvNtNtNtCsagClJoJoeWA_11kona_client8fpvm_evm11precompiles10test_utils27test_accelerated_precompileNCNCNvNtNtB8_14kzg_point_eval4tests_46test_accelerated_kzg_point_eval_bad_input_size00E0s_0Bc_
FNDA:0,_RNCNCNvXs1_NtNtNtCsagClJoJoeWA_11kona_client8fpvm_evm11precompiles10test_utilsNtB9_25PrecompilePreimageFetcherNtNtCsbcJAgMR32cv_13kona_preimage6traits15PreimageFetcher12get_preimage00Bf_
FNDA:11,_RNCNCNvXs1_NtNtNtCsagClJoJoeWA_11kona_client8fpvm_evm11precompiles10test_utilsNtB9_25PrecompilePreimageFetcherNtNtCsbcJAgMR32cv_13kona_preimage6traits15PreimageFetcher12get_preimage0s_0Bf_
FNDA:11,_RNCNvXs1_NtNtNtCsagClJoJoeWA_11kona_client8fpvm_evm11precompiles10test_utilsNtB7_25PrecompilePreimageFetcherNtNtCsbcJAgMR32cv_13kona_preimage6traits15PreimageFetcher12get_preimage0Bd_
FNDA:11,_RNCNvXs5_NtNtNtCsagClJoJoeWA_11kona_client8fpvm_evm11precompiles10test_utilsNtB7_20PrecompileHintRouterNtNtCsbcJAgMR32cv_13kona_preimage6traits10HintRouter10route_hint0Bd_
FNDA:34,_RNvNtNtNtCsagClJoJoeWA_11kona_client8fpvm_evm11precompiles10test_utils15precompile_host
FNDA:11,_RNvXs1_NtNtNtCsagClJoJoeWA_11kona_client8fpvm_evm11precompiles10test_utilsNtB5_25PrecompilePreimageFetcherNtNtCsbcJAgMR32cv_13kona_preimage6traits15PreimageFetcher12get_preimage
FNDA:11,_RNvXs5_NtNtNtCsagClJoJoeWA_11kona_client8fpvm_evm11precompiles10test_utilsNtB5_20PrecompileHintRouterNtNtCsbcJAgMR32cv_13kona_preimage6traits10HintRouter10route_hint
FNDA:1,_RNCINvNtNtNtCsagClJoJoeWA_11kona_client8fpvm_evm11precompiles10test_utils27test_accelerated_precompileNCNCNvNtNtB6_12bls12_g1_msm4tests_33test_accelerated_bls12_381_g1_msm00E0Ba_
FNDA:1,_RNCINvNtNtNtCsagClJoJoeWA_11kona_client8fpvm_evm11precompiles10test_utils27test_accelerated_precompileNCNCNvNtNtB6_12bls12_g1_msm4tests_47test_accelerated_bls12_381_g1_msm_bad_gas_limit00E0Ba_
FNDA:1,_RNCINvNtNtNtCsagClJoJoeWA_11kona_client8fpvm_evm11precompiles10test_utils27test_accelerated_precompileNCNCNvNtNtB6_12bls12_g1_msm4tests_47test_accelerated_bls12_381_g1_msm_bad_input_len00E0Ba_
FNDA:1,_RNCINvNtNtNtCsagClJoJoeWA_11kona_client8fpvm_evm11precompiles10test_utils27test_accelerated_precompileNCNCNvNtNtB6_12bls12_g1_msm4tests_55test_accelerated_bls12_381_g1_msm_bad_input_len_isthmus00E0Ba_
FNDA:0,_RNCNCINvNtNtNtCsagClJoJoeWA_11kona_client8fpvm_evm11precompiles10test_utils27test_accelerated_precompileNCNCNvNtNtB8_12bls12_g1_msm4tests_33test_accelerated_bls12_381_g1_msm00E0s_0Bc_
FNDA:0,_RNCNCINvNtNtNtCsagClJoJoeWA_11kona_client8fpvm_evm11precompiles10test_utils27test_accelerated_precompileNCNCNvNtNtB8_12bls12_g1_msm4tests_47test_accelerated_bls12_381_g1_msm_bad_gas_limit00E0s_0Bc_
FNDA:0,_RNCNCINvNtNtNtCsagClJoJoeWA_11kona_client8fpvm_evm11precompiles10test_utils27test_accelerated_precompileNCNCNvNtNtB8_12bls12_g1_msm4tests_47test_accelerated_bls12_381_g1_msm_bad_input_len00E0s_0Bc_
FNDA:0,_RNCNCINvNtNtNtCsagClJoJoeWA_11kona_client8fpvm_evm11precompiles10test_utils27test_accelerated_precompileNCNCNvNtNtB8_12bls12_g1_msm4tests_55test_accelerated_bls12_381_g1_msm_bad_input_len_isthmus00E0s_0Bc_
FNDA:1,_RNCINvNtNtNtCsagClJoJoeWA_11kona_client8fpvm_evm11precompiles10test_utils27test_accelerated_precompileNCNCNvNtNtB6_12bls12_g2_add4tests_33test_accelerated_bls12_381_g2_add00E0Ba_
FNDA:1,_RNCINvNtNtNtCsagClJoJoeWA_11kona_client8fpvm_evm11precompiles10test_utils27test_accelerated_precompileNCNCNvNtNtB6_12bls12_g2_add4tests_47test_accelerated_bls12_381_g2_add_bad_gas_limit00E0Ba_
FNDA:1,_RNCINvNtNtNtCsagClJoJoeWA_11kona_client8fpvm_evm11precompiles10test_utils27test_accelerated_precompileNCNCNvNtNtB6_12bls12_g2_add4tests_47test_accelerated_bls12_381_g2_add_bad_input_len00E0Ba_
FNDA:0,_RNCNCINvNtNtNtCsagClJoJoeWA_11kona_client8fpvm_evm11precompiles10test_utils27test_accelerated_precompileNCNCNvNtNtB8_12bls12_g2_add4tests_33test_accelerated_bls12_381_g2_add00E0s_0Bc_
FNDA:0,_RNCNCINvNtNtNtCsagClJoJoeWA_11kona_client8fpvm_evm11precompiles10test_utils27test_accelerated_precompileNCNCNvNtNtB8_12bls12_g2_add4tests_47test_accelerated_bls12_381_g2_add_bad_gas_limit00E0s_0Bc_
FNDA:0,_RNCNCINvNtNtNtCsagClJoJoeWA_11kona_client8fpvm_evm11precompiles10test_utils27test_accelerated_precompileNCNCNvNtNtB8_12bls12_g2_add4tests_47test_accelerated_bls12_381_g2_add_bad_input_len00E0s_0Bc_
FNDA:1,_RNCNCINvNtNtNtCsagClJoJoeWA_11kona_client8fpvm_evm11precompiles10test_utils27test_accelerated_precompileNCNCNvNtNtB8_10bls12_pair4tests_34test_accelerated_bls12_381_pairing00E00Bc_
FNDA:1,_RNCNCINvNtNtNtCsagClJoJoeWA_11kona_client8fpvm_evm11precompiles10test_utils27test_accelerated_precompileNCNCNvNtNtB8_10bls12_pair4tests_48test_accelerated_bls12_381_pairing_bad_gas_limit00E00Bc_
FNDA:1,_RNCNCINvNtNtNtCsagClJoJoeWA_11kona_client8fpvm_evm11precompiles10test_utils27test_accelerated_precompileNCNCNvNtNtB8_10bls12_pair4tests_48test_accelerated_bls12_381_pairing_bad_input_len00E00Bc_
FNDA:1,_RNCNCINvNtNtNtCsagClJoJoeWA_11kona_client8fpvm_evm11precompiles10test_utils27test_accelerated_precompileNCNCNvNtNtB8_10bls12_pair4tests_56test_accelerated_bls12_381_pairing_bad_input_len_isthmus00E00Bc_
FNDA:1,_RNCNCINvNtNtNtCsagClJoJoeWA_11kona_client8fpvm_evm11precompiles10test_utils27test_accelerated_precompileNCNCNvNtNtB8_10bn128_pair4tests_30test_accelerated_bn128_pairing00E00Bc_
FNDA:1,_RNCNCINvNtNtNtCsagClJoJoeWA_11kona_client8fpvm_evm11precompiles10test_utils27test_accelerated_precompileNCNCNvNtNtB8_10bn128_pair4tests_38test_accelerated_bn128_pairing_granite00E00Bc_
FNDA:1,_RNCNCINvNtNtNtCsagClJoJoeWA_11kona_client8fpvm_evm11precompiles10test_utils27test_accelerated_precompileNCNCNvNtNtB8_10bn128_pair4tests_44test_accelerated_bn128_pairing_bad_input_len00E00Bc_
FNDA:1,_RNCNCINvNtNtNtCsagClJoJoeWA_11kona_client8fpvm_evm11precompiles10test_utils27test_accelerated_precompileNCNCNvNtNtB8_10bn128_pair4tests_45test_accelerated_bn128_pairing_not_enough_gas00E00Bc_
FNDA:1,_RNCNCINvNtNtNtCsagClJoJoeWA_11kona_client8fpvm_evm11precompiles10test_utils27test_accelerated_precompileNCNCNvNtNtB8_10bn128_pair4tests_52test_accelerated_bn128_pairing_bad_input_len_granite00E00Bc_
FNDA:1,_RNCNCINvNtNtNtCsagClJoJoeWA_11kona_client8fpvm_evm11precompiles10test_utils27test_accelerated_precompileNCNCNvNtNtB8_12bls12_g1_add4tests_33test_accelerated_bls12_381_g1_add00E00Bc_
FNDA:1,_RNCNCINvNtNtNtCsagClJoJoeWA_11kona_client8fpvm_evm11precompiles10test_utils27test_accelerated_precompileNCNCNvNtNtB8_12bls12_g1_add4tests_47test_accelerated_bls12_381_g1_add_bad_gas_limit00E00Bc_
FNDA:1,_RNCNCINvNtNtNtCsagClJoJoeWA_11kona_client8fpvm_evm11precompiles10test_utils27test_accelerated_precompileNCNCNvNtNtB8_12bls12_g1_add4tests_47test_accelerated_bls12_381_g1_add_bad_input_len00E00Bc_
FNDA:1,_RNCNCINvNtNtNtCsagClJoJoeWA_11kona_client8fpvm_evm11precompiles10test_utils27test_accelerated_precompileNCNCNvNtNtB8_12bls12_g1_msm4tests_33test_accelerated_bls12_381_g1_msm00E00Bc_
FNDA:1,_RNCNCINvNtNtNtCsagClJoJoeWA_11kona_client8fpvm_evm11precompiles10test_utils27test_accelerated_precompileNCNCNvNtNtB8_12bls12_g1_msm4tests_47test_accelerated_bls12_381_g1_msm_bad_gas_limit00E00Bc_
FNDA:1,_RNCNCINvNtNtNtCsagClJoJoeWA_11kona_client8fpvm_evm11precompiles10test_utils27test_accelerated_precompileNCNCNvNtNtB8_12bls12_g1_msm4tests_47test_accelerated_bls12_381_g1_msm_bad_input_len00E00Bc_
FNDA:1,_RNCNCINvNtNtNtCsagClJoJoeWA_11kona_client8fpvm_evm11precompiles10test_utils27test_accelerated_precompileNCNCNvNtNtB8_12bls12_g1_msm4tests_55test_accelerated_bls12_381_g1_msm_bad_input_len_isthmus00E00Bc_
FNDA:1,_RNCNCINvNtNtNtCsagClJoJoeWA_11kona_client8fpvm_evm11precompiles10test_utils27test_accelerated_precompileNCNCNvNtNtB8_12bls12_g2_add4tests_33test_accelerated_bls12_381_g2_add00E00Bc_
FNDA:1,_RNCNCINvNtNtNtCsagClJoJoeWA_11kona_client8fpvm_evm11precompiles10test_utils27test_accelerated_precompileNCNCNvNtNtB8_12bls12_g2_add4tests_47test_accelerated_bls12_381_g2_add_bad_gas_limit00E00Bc_
FNDA:1,_RNCNCINvNtNtNtCsagClJoJoeWA_11kona_client8fpvm_evm11precompiles10test_utils27test_accelerated_precompileNCNCNvNtNtB8_12bls12_g2_add4tests_47test_accelerated_bls12_381_g2_add_bad_input_len00E00Bc_
FNDA:1,_RNCNCINvNtNtNtCsagClJoJoeWA_11kona_client8fpvm_evm11precompiles10test_utils27test_accelerated_precompileNCNCNvNtNtB8_12bls12_g2_msm4tests_33test_accelerated_bls12_381_g2_msm00E00Bc_
FNDA:1,_RNCNCINvNtNtNtCsagClJoJoeWA_11kona_client8fpvm_evm11precompiles10test_utils27test_accelerated_precompileNCNCNvNtNtB8_12bls12_g2_msm4tests_47test_accelerated_bls12_381_g2_msm_bad_gas_limit00E00Bc_
FNDA:1,_RNCNCINvNtNtNtCsagClJoJoeWA_11kona_client8fpvm_evm11precompiles10test_utils27test_accelerated_precompileNCNCNvNtNtB8_12bls12_g2_msm4tests_47test_accelerated_bls12_381_g2_msm_bad_input_len00E00Bc_
FNDA:1,_RNCNCINvNtNtNtCsagClJoJoeWA_11kona_client8fpvm_evm11precompiles10test_utils27test_accelerated_precompileNCNCNvNtNtB8_12bls12_g2_msm4tests_55test_accelerated_bls12_381_g2_msm_bad_input_len_isthmus00E00Bc_
FNDA:1,_RNCNCINvNtNtNtCsagClJoJoeWA_11kona_client8fpvm_evm11precompiles10test_utils27test_accelerated_precompileNCNCNvNtNtB8_12bls12_map_fp4tests_36test_accelerated_bls12_381_map_fp_g100E00Bc_
FNDA:1,_RNCNCINvNtNtNtCsagClJoJoeWA_11kona_client8fpvm_evm11precompiles10test_utils27test_accelerated_precompileNCNCNvNtNtB8_12bls12_map_fp4tests_50test_accelerated_bls12_381_map_fp_g1_bad_gas_limit00E00Bc_
FNDA:1,_RNCNCINvNtNtNtCsagClJoJoeWA_11kona_client8fpvm_evm11precompiles10test_utils27test_accelerated_precompileNCNCNvNtNtB8_12bls12_map_fp4tests_51test_accelerated_bls12_381_map_fp_g1_bad_input_size00E00Bc_
FNDA:1,_RNCNCINvNtNtNtCsagClJoJoeWA_11kona_client8fpvm_evm11precompiles10test_utils27test_accelerated_precompileNCNCNvNtNtB8_13bls12_map_fp24tests_36test_accelerated_bls12_381_map_fp_g200E00Bc_
FNDA:1,_RNCNCINvNtNtNtCsagClJoJoeWA_11kona_client8fpvm_evm11precompiles10test_utils27test_accelerated_precompileNCNCNvNtNtB8_13bls12_map_fp24tests_50test_accelerated_bls12_381_map_fp_g2_bad_gas_limit00E00Bc_
FNDA:1,_RNCNCINvNtNtNtCsagClJoJoeWA_11kona_client8fpvm_evm11precompiles10test_utils27test_accelerated_precompileNCNCNvNtNtB8_13bls12_map_fp24tests_51test_accelerated_bls12_381_map_fp_g2_bad_input_size00E00Bc_
FNDA:1,_RNCNCINvNtNtNtCsagClJoJoeWA_11kona_client8fpvm_evm11precompiles10test_utils27test_accelerated_precompileNCNCNvNtNtB8_14kzg_point_eval4tests_31test_accelerated_kzg_point_eval00E00Bc_
FNDA:1,_RNCNCINvNtNtNtCsagClJoJoeWA_11kona_client8fpvm_evm11precompiles10test_utils27test_accelerated_precompileNCNCNvNtNtB8_14kzg_point_eval4tests_42test_accelerated_kzg_point_eval_out_of_gas00E00Bc_
FNDA:1,_RNCNCINvNtNtNtCsagClJoJoeWA_11kona_client8fpvm_evm11precompiles10test_utils27test_accelerated_precompileNCNCNvNtNtB8_14kzg_point_eval4tests_46test_accelerated_kzg_point_eval_bad_input_size00E00Bc_
FNDA:1,_RNCNCINvNtNtNtCsagClJoJoeWA_11kona_client8fpvm_evm11precompiles10test_utils27test_accelerated_precompileNCNCNvNtNtB8_9ecrecover4tests_26test_accelerated_ecrecover00E00Bc_
FNDA:1,_RNCNCINvNtNtNtCsagClJoJoeWA_11kona_client8fpvm_evm11precompiles10test_utils27test_accelerated_precompileNCNCNvNtNtB8_9ecrecover4tests_37test_accelerated_ecrecover_out_of_gas00E00Bc_
FNDA:34,_RNCNCNvNtNtNtCsagClJoJoeWA_11kona_client8fpvm_evm11precompiles10test_utils15precompile_host00Bb_
FNDA:0,_RNCNCNvNtNtNtCsagClJoJoeWA_11kona_client8fpvm_evm11precompiles10test_utils15precompile_host0s0_0Bb_
FNDA:34,_RNCNCNvNtNtNtCsagClJoJoeWA_11kona_client8fpvm_evm11precompiles10test_utils15precompile_host0s_0Bb_
FNDA:34,_RNCNvNtNtNtCsagClJoJoeWA_11kona_client8fpvm_evm11precompiles10test_utils15precompile_host0B9_
FNDA:1,_RNCINvNtNtNtCsagClJoJoeWA_11kona_client8fpvm_evm11precompiles10test_utils27test_accelerated_precompileNCNCNvNtNtB6_10bls12_pair4tests_34test_accelerated_bls12_381_pairing00E0Ba_
FNDA:1,_RNCINvNtNtNtCsagClJoJoeWA_11kona_client8fpvm_evm11precompiles10test_utils27test_accelerated_precompileNCNCNvNtNtB6_10bls12_pair4tests_48test_accelerated_bls12_381_pairing_bad_gas_limit00E0Ba_
FNDA:1,_RNCINvNtNtNtCsagClJoJoeWA_11kona_client8fpvm_evm11precompiles10test_utils27test_accelerated_precompileNCNCNvNtNtB6_10bls12_pair4tests_48test_accelerated_bls12_381_pairing_bad_input_len00E0Ba_
FNDA:1,_RNCINvNtNtNtCsagClJoJoeWA_11kona_client8fpvm_evm11precompiles10test_utils27test_accelerated_precompileNCNCNvNtNtB6_10bls12_pair4tests_56test_accelerated_bls12_381_pairing_bad_input_len_isthmus00E0Ba_
FNDA:0,_RNCNCINvNtNtNtCsagClJoJoeWA_11kona_client8fpvm_evm11precompiles10test_utils27test_accelerated_precompileNCNCNvNtNtB8_10bls12_pair4tests_34test_accelerated_bls12_381_pairing00E0s_0Bc_
FNDA:0,_RNCNCINvNtNtNtCsagClJoJoeWA_11kona_client8fpvm_evm11precompiles10test_utils27test_accelerated_precompileNCNCNvNtNtB8_10bls12_pair4tests_48test_accelerated_bls12_381_pairing_bad_gas_limit00E0s_0Bc_
FNDA:0,_RNCNCINvNtNtNtCsagClJoJoeWA_11kona_client8fpvm_evm11precompiles10test_utils27test_accelerated_precompileNCNCNvNtNtB8_10bls12_pair4tests_48test_accelerated_bls12_381_pairing_bad_input_len00E0s_0Bc_
FNDA:0,_RNCNCINvNtNtNtCsagClJoJoeWA_11kona_client8fpvm_evm11precompiles10test_utils27test_accelerated_precompileNCNCNvNtNtB8_10bls12_pair4tests_56test_accelerated_bls12_381_pairing_bad_input_len_isthmus00E0s_0Bc_
FNDA:1,_RNCINvNtNtNtCsagClJoJoeWA_11kona_client8fpvm_evm11precompiles10test_utils27test_accelerated_precompileNCNCNvNtNtB6_12bls12_g1_add4tests_33test_accelerated_bls12_381_g1_add00E0Ba_
FNDA:1,_RNCINvNtNtNtCsagClJoJoeWA_11kona_client8fpvm_evm11precompiles10test_utils27test_accelerated_precompileNCNCNvNtNtB6_12bls12_g1_add4tests_47test_accelerated_bls12_381_g1_add_bad_gas_limit00E0Ba_
FNDA:1,_RNCINvNtNtNtCsagClJoJoeWA_11kona_client8fpvm_evm11precompiles10test_utils27test_accelerated_precompileNCNCNvNtNtB6_12bls12_g1_add4tests_47test_accelerated_bls12_381_g1_add_bad_input_len00E0Ba_
FNDA:0,_RNCNCINvNtNtNtCsagClJoJoeWA_11kona_client8fpvm_evm11precompiles10test_utils27test_accelerated_precompileNCNCNvNtNtB8_12bls12_g1_add4tests_33test_accelerated_bls12_381_g1_add00E0s_0Bc_
FNDA:0,_RNCNCINvNtNtNtCsagClJoJoeWA_11kona_client8fpvm_evm11precompiles10test_utils27test_accelerated_precompileNCNCNvNtNtB8_12bls12_g1_add4tests_47test_accelerated_bls12_381_g1_add_bad_gas_limit00E0s_0Bc_
FNDA:0,_RNCNCINvNtNtNtCsagClJoJoeWA_11kona_client8fpvm_evm11precompiles10test_utils27test_accelerated_precompileNCNCNvNtNtB8_12bls12_g1_add4tests_47test_accelerated_bls12_381_g1_add_bad_input_len00E0s_0Bc_
FNDA:1,_RNCINvNtNtNtCsagClJoJoeWA_11kona_client8fpvm_evm11precompiles10test_utils27test_accelerated_precompileNCNCNvNtNtB6_9ecrecover4tests_26test_accelerated_ecrecover00E0Ba_
FNDA:1,_RNCINvNtNtNtCsagClJoJoeWA_11kona_client8fpvm_evm11precompiles10test_utils27test_accelerated_precompileNCNCNvNtNtB6_9ecrecover4tests_37test_accelerated_ecrecover_out_of_gas00E0Ba_
FNDA:0,_RNCNCINvNtNtNtCsagClJoJoeWA_11kona_client8fpvm_evm11precompiles10test_utils27test_accelerated_precompileNCNCNvNtNtB8_9ecrecover4tests_26test_accelerated_ecrecover00E0s_0Bc_
FNDA:0,_RNCNCINvNtNtNtCsagClJoJoeWA_11kona_client8fpvm_evm11precompiles10test_utils27test_accelerated_precompileNCNCNvNtNtB8_9ecrecover4tests_37test_accelerated_ecrecover_out_of_gas00E0s_0Bc_
FNDA:1,_RINvNtNtNtCsagClJoJoeWA_11kona_client8fpvm_evm11precompiles10test_utils25execute_native_precompileAhj100_EB8_
FNDA:1,_RINvNtNtNtCsagClJoJoeWA_11kona_client8fpvm_evm11precompiles10test_utils25execute_native_precompileAhj120_EB8_
FNDA:3,_RINvNtNtNtCsagClJoJoeWA_11kona_client8fpvm_evm11precompiles10test_utils25execute_native_precompileAhj180_EB8_
FNDA:1,_RINvNtNtNtCsagClJoJoeWA_11kona_client8fpvm_evm11precompiles10test_utils25execute_native_precompileAhj200_EB8_
FNDA:1,_RINvNtNtNtCsagClJoJoeWA_11kona_client8fpvm_evm11precompiles10test_utils25execute_native_precompileAhj40_EB8_
FNDA:2,_RINvNtNtNtCsagClJoJoeWA_11kona_client8fpvm_evm11precompiles10test_utils25execute_native_precompileAhj80_EB8_
FNDA:1,_RINvNtNtNtCsagClJoJoeWA_11kona_client8fpvm_evm11precompiles10test_utils25execute_native_precompileAhja0_EB8_
FNDA:12,_RINvNtNtNtCsagClJoJoeWA_11kona_client8fpvm_evm11precompiles10test_utils25execute_native_precompileINtNtCs7Lutq36SewB_5alloc3vec3VechEEB8_
FNDA:1,_RINvNtNtNtCsagClJoJoeWA_11kona_client8fpvm_evm11precompiles10test_utils27test_accelerated_precompileNCNCNvNtNtB4_10bls12_pair4tests_34test_accelerated_bls12_381_pairing00EB8_
FNDA:1,_RINvNtNtNtCsagClJoJoeWA_11kona_client8fpvm_evm11precompiles10test_utils27test_accelerated_precompileNCNCNvNtNtB4_10bls12_pair4tests_48test_accelerated_bls12_381_pairing_bad_gas_limit00EB8_
FNDA:1,_RINvNtNtNtCsagClJoJoeWA_11kona_client8fpvm_evm11precompiles10test_utils27test_accelerated_precompileNCNCNvNtNtB4_10bls12_pair4tests_48test_accelerated_bls12_381_pairing_bad_input_len00EB8_
FNDA:1,_RINvNtNtNtCsagClJoJoeWA_11kona_client8fpvm_evm11precompiles10test_utils27test_accelerated_precompileNCNCNvNtNtB4_10bls12_pair4tests_56test_accelerated_bls12_381_pairing_bad_input_len_isthmus00EB8_
FNDA:1,_RINvNtNtNtCsagClJoJoeWA_11kona_client8fpvm_evm11precompiles10test_utils27test_accelerated_precompileNCNCNvNtNtB4_10bn128_pair4tests_30test_accelerated_bn128_pairing00EB8_
FNDA:1,_RINvNtNtNtCsagClJoJoeWA_11kona_client8fpvm_evm11precompiles10test_utils27test_accelerated_precompileNCNCNvNtNtB4_10bn128_pair4tests_38test_accelerated_bn128_pairing_granite00EB8_
FNDA:1,_RINvNtNtNtCsagClJoJoeWA_11kona_client8fpvm_evm11precompiles10test_utils27test_accelerated_precompileNCNCNvNtNtB4_10bn128_pair4tests_44test_accelerated_bn128_pairing_bad_input_len00EB8_
FNDA:1,_RINvNtNtNtCsagClJoJoeWA_11kona_client8fpvm_evm11precompiles10test_utils27test_accelerated_precompileNCNCNvNtNtB4_10bn128_pair4tests_45test_accelerated_bn128_pairing_not_enough_gas00EB8_
FNDA:1,_RINvNtNtNtCsagClJoJoeWA_11kona_client8fpvm_evm11precompiles10test_utils27test_accelerated_precompileNCNCNvNtNtB4_10bn128_pair4tests_52test_accelerated_bn128_pairing_bad_input_len_granite00EB8_
FNDA:1,_RINvNtNtNtCsagClJoJoeWA_11kona_client8fpvm_evm11precompiles10test_utils27test_accelerated_precompileNCNCNvNtNtB4_12bls12_g1_add4tests_33test_accelerated_bls12_381_g1_add00EB8_
FNDA:1,_RINvNtNtNtCsagClJoJoeWA_11kona_client8fpvm_evm11precompiles10test_utils27test_accelerated_precompileNCNCNvNtNtB4_12bls12_g1_add4tests_47test_accelerated_bls12_381_g1_add_bad_gas_limit00EB8_
FNDA:1,_RINvNtNtNtCsagClJoJoeWA_11kona_client8fpvm_evm11precompiles10test_utils27test_accelerated_precompileNCNCNvNtNtB4_12bls12_g1_add4tests_47test_accelerated_bls12_381_g1_add_bad_input_len00EB8_
FNDA:1,_RINvNtNtNtCsagClJoJoeWA_11kona_client8fpvm_evm11precompiles10test_utils27test_accelerated_precompileNCNCNvNtNtB4_12bls12_g1_msm4tests_33test_accelerated_bls12_381_g1_msm00EB8_
FNDA:1,_RINvNtNtNtCsagClJoJoeWA_11kona_client8fpvm_evm11precompiles10test_utils27test_accelerated_precompileNCNCNvNtNtB4_12bls12_g1_msm4tests_47test_accelerated_bls12_381_g1_msm_bad_gas_limit00EB8_
FNDA:1,_RINvNtNtNtCsagClJoJoeWA_11kona_client8fpvm_evm11precompiles10test_utils27test_accelerated_precompileNCNCNvNtNtB4_12bls12_g1_msm4tests_47test_accelerated_bls12_381_g1_msm_bad_input_len00EB8_
FNDA:1,_RINvNtNtNtCsagClJoJoeWA_11kona_client8fpvm_evm11precompiles10test_utils27test_accelerated_precompileNCNCNvNtNtB4_12bls12_g1_msm4tests_55test_accelerated_bls12_381_g1_msm_bad_input_len_isthmus00EB8_
FNDA:1,_RINvNtNtNtCsagClJoJoeWA_11kona_client8fpvm_evm11precompiles10test_utils27test_accelerated_precompileNCNCNvNtNtB4_12bls12_g2_add4tests_33test_accelerated_bls12_381_g2_add00EB8_
FNDA:1,_RINvNtNtNtCsagClJoJoeWA_11kona_client8fpvm_evm11precompiles10test_utils27test_accelerated_precompileNCNCNvNtNtB4_12bls12_g2_add4tests_47test_accelerated_bls12_381_g2_add_bad_gas_limit00EB8_
FNDA:1,_RINvNtNtNtCsagClJoJoeWA_11kona_client8fpvm_evm11precompiles10test_utils27test_accelerated_precompileNCNCNvNtNtB4_12bls12_g2_add4tests_47test_accelerated_bls12_381_g2_add_bad_input_len00EB8_
FNDA:1,_RINvNtNtNtCsagClJoJoeWA_11kona_client8fpvm_evm11precompiles10test_utils27test_accelerated_precompileNCNCNvNtNtB4_12bls12_g2_msm4tests_33test_accelerated_bls12_381_g2_msm00EB8_
FNDA:1,_RINvNtNtNtCsagClJoJoeWA_11kona_client8fpvm_evm11precompiles10test_utils27test_accelerated_precompileNCNCNvNtNtB4_12bls12_g2_msm4tests_47test_accelerated_bls12_381_g2_msm_bad_gas_limit00EB8_
FNDA:1,_RINvNtNtNtCsagClJoJoeWA_11kona_client8fpvm_evm11precompiles10test_utils27test_accelerated_precompileNCNCNvNtNtB4_12bls12_g2_msm4tests_47test_accelerated_bls12_381_g2_msm_bad_input_len00EB8_
FNDA:1,_RINvNtNtNtCsagClJoJoeWA_11kona_client8fpvm_evm11precompiles10test_utils27test_accelerated_precompileNCNCNvNtNtB4_12bls12_g2_msm4tests_55test_accelerated_bls12_381_g2_msm_bad_input_len_isthmus00EB8_
FNDA:1,_RINvNtNtNtCsagClJoJoeWA_11kona_client8fpvm_evm11precompiles10test_utils27test_accelerated_precompileNCNCNvNtNtB4_12bls12_map_fp4tests_36test_accelerated_bls12_381_map_fp_g100EB8_
FNDA:1,_RINvNtNtNtCsagClJoJoeWA_11kona_client8fpvm_evm11precompiles10test_utils27test_accelerated_precompileNCNCNvNtNtB4_12bls12_map_fp4tests_50test_accelerated_bls12_381_map_fp_g1_bad_gas_limit00EB8_
FNDA:1,_RINvNtNtNtCsagClJoJoeWA_11kona_client8fpvm_evm11precompiles10test_utils27test_accelerated_precompileNCNCNvNtNtB4_12bls12_map_fp4tests_51test_accelerated_bls12_381_map_fp_g1_bad_input_size00EB8_
FNDA:1,_RINvNtNtNtCsagClJoJoeWA_11kona_client8fpvm_evm11precompiles10test_utils27test_accelerated_precompileNCNCNvNtNtB4_13bls12_map_fp24tests_36test_accelerated_bls12_381_map_fp_g200EB8_
FNDA:1,_RINvNtNtNtCsagClJoJoeWA_11kona_client8fpvm_evm11precompiles10test_utils27test_accelerated_precompileNCNCNvNtNtB4_13bls12_map_fp24tests_50test_accelerated_bls12_381_map_fp_g2_bad_gas_limit00EB8_
FNDA:1,_RINvNtNtNtCsagClJoJoeWA_11kona_client8fpvm_evm11precompiles10test_utils27test_accelerated_precompileNCNCNvNtNtB4_13bls12_map_fp24tests_51test_accelerated_bls12_381_map_fp_g2_bad_input_size00EB8_
FNDA:1,_RINvNtNtNtCsagClJoJoeWA_11kona_client8fpvm_evm11precompiles10test_utils27test_accelerated_precompileNCNCNvNtNtB4_14kzg_point_eval4tests_31test_accelerated_kzg_point_eval00EB8_
FNDA:1,_RINvNtNtNtCsagClJoJoeWA_11kona_client8fpvm_evm11precompiles10test_utils27test_accelerated_precompileNCNCNvNtNtB4_14kzg_point_eval4tests_42test_accelerated_kzg_point_eval_out_of_gas00EB8_
FNDA:1,_RINvNtNtNtCsagClJoJoeWA_11kona_client8fpvm_evm11precompiles10test_utils27test_accelerated_precompileNCNCNvNtNtB4_14kzg_point_eval4tests_46test_accelerated_kzg_point_eval_bad_input_size00EB8_
FNDA:1,_RINvNtNtNtCsagClJoJoeWA_11kona_client8fpvm_evm11precompiles10test_utils27test_accelerated_precompileNCNCNvNtNtB4_9ecrecover4tests_26test_accelerated_ecrecover00EB8_
FNDA:1,_RINvNtNtNtCsagClJoJoeWA_11kona_client8fpvm_evm11precompiles10test_utils27test_accelerated_precompileNCNCNvNtNtB4_9ecrecover4tests_37test_accelerated_ecrecover_out_of_gas00EB8_
FNDA:1,_RNCINvNtNtNtCsagClJoJoeWA_11kona_client8fpvm_evm11precompiles10test_utils27test_accelerated_precompileNCNCNvNtNtB6_13bls12_map_fp24tests_36test_accelerated_bls12_381_map_fp_g200E0Ba_
FNDA:1,_RNCINvNtNtNtCsagClJoJoeWA_11kona_client8fpvm_evm11precompiles10test_utils27test_accelerated_precompileNCNCNvNtNtB6_13bls12_map_fp24tests_50test_accelerated_bls12_381_map_fp_g2_bad_gas_limit00E0Ba_
FNDA:1,_RNCINvNtNtNtCsagClJoJoeWA_11kona_client8fpvm_evm11precompiles10test_utils27test_accelerated_precompileNCNCNvNtNtB6_13bls12_map_fp24tests_51test_accelerated_bls12_381_map_fp_g2_bad_input_size00E0Ba_
FNDA:0,_RNCNCINvNtNtNtCsagClJoJoeWA_11kona_client8fpvm_evm11precompiles10test_utils27test_accelerated_precompileNCNCNvNtNtB8_13bls12_map_fp24tests_36test_accelerated_bls12_381_map_fp_g200E0s_0Bc_
FNDA:0,_RNCNCINvNtNtNtCsagClJoJoeWA_11kona_client8fpvm_evm11precompiles10test_utils27test_accelerated_precompileNCNCNvNtNtB8_13bls12_map_fp24tests_50test_accelerated_bls12_381_map_fp_g2_bad_gas_limit00E0s_0Bc_
FNDA:0,_RNCNCINvNtNtNtCsagClJoJoeWA_11kona_client8fpvm_evm11precompiles10test_utils27test_accelerated_precompileNCNCNvNtNtB8_13bls12_map_fp24tests_51test_accelerated_bls12_381_map_fp_g2_bad_input_size00E0s_0Bc_
FNDA:1,_RNCINvNtNtNtCsagClJoJoeWA_11kona_client8fpvm_evm11precompiles10test_utils27test_accelerated_precompileNCNCNvNtNtB6_12bls12_g2_msm4tests_33test_accelerated_bls12_381_g2_msm00E0Ba_
FNDA:1,_RNCINvNtNtNtCsagClJoJoeWA_11kona_client8fpvm_evm11precompiles10test_utils27test_accelerated_precompileNCNCNvNtNtB6_12bls12_g2_msm4tests_47test_accelerated_bls12_381_g2_msm_bad_gas_limit00E0Ba_
FNDA:1,_RNCINvNtNtNtCsagClJoJoeWA_11kona_client8fpvm_evm11precompiles10test_utils27test_accelerated_precompileNCNCNvNtNtB6_12bls12_g2_msm4tests_47test_accelerated_bls12_381_g2_msm_bad_input_len00E0Ba_
FNDA:1,_RNCINvNtNtNtCsagClJoJoeWA_11kona_client8fpvm_evm11precompiles10test_utils27test_accelerated_precompileNCNCNvNtNtB6_12bls12_g2_msm4tests_55test_accelerated_bls12_381_g2_msm_bad_input_len_isthmus00E0Ba_
FNDA:0,_RNCNCINvNtNtNtCsagClJoJoeWA_11kona_client8fpvm_evm11precompiles10test_utils27test_accelerated_precompileNCNCNvNtNtB8_12bls12_g2_msm4tests_33test_accelerated_bls12_381_g2_msm00E0s_0Bc_
FNDA:0,_RNCNCINvNtNtNtCsagClJoJoeWA_11kona_client8fpvm_evm11precompiles10test_utils27test_accelerated_precompileNCNCNvNtNtB8_12bls12_g2_msm4tests_47test_accelerated_bls12_381_g2_msm_bad_gas_limit00E0s_0Bc_
FNDA:0,_RNCNCINvNtNtNtCsagClJoJoeWA_11kona_client8fpvm_evm11precompiles10test_utils27test_accelerated_precompileNCNCNvNtNtB8_12bls12_g2_msm4tests_47test_accelerated_bls12_381_g2_msm_bad_input_len00E0s_0Bc_
FNDA:0,_RNCNCINvNtNtNtCsagClJoJoeWA_11kona_client8fpvm_evm11precompiles10test_utils27test_accelerated_precompileNCNCNvNtNtB8_12bls12_g2_msm4tests_55test_accelerated_bls12_381_g2_msm_bad_input_len_isthmus00E0s_0Bc_
FNF:16
FNH:13
DA:18,34
DA:19,34
DA:20,34
DA:21,34
DA:22,34
DA:23,34
DA:24,34
DA:25,34
DA:26,34
DA:27,34
DA:28,34
DA:29,34
DA:30,34
DA:31,34
DA:32,34
DA:33,34
DA:34,34
DA:35,34
DA:36,0
DA:37,34
DA:38,34
DA:41,22
DA:42,22
DA:43,22
DA:44,22
DA:45,22
DA:46,22
DA:47,22
DA:48,0
DA:50,22
DA:51,22
DA:54,34
DA:55,34
DA:56,34
DA:57,34
DA:58,34
DA:59,34
DA:60,34
DA:61,34
DA:62,34
DA:63,34
DA:65,45
DA:66,11
DA:67,34
DA:68,0
DA:69,0
DA:73,34
DA:74,34
DA:76,45
DA:77,11
DA:78,34
DA:79,0
DA:80,0
DA:84,34
DA:85,34
DA:86,34
DA:87,0
DA:88,34
DA:89,34
DA:101,11
DA:102,11
DA:103,11
DA:104,0
DA:105,11
DA:107,11
DA:108,11
DA:110,11
DA:111,11
DA:112,11
DA:113,11
DA:114,11
DA:115,11
DA:116,11
DA:117,11
DA:118,11
DA:119,11
DA:120,11
DA:121,11
DA:122,11
DA:123,11
DA:124,11
DA:125,11
DA:126,11
DA:127,11
DA:128,11
DA:129,11
DA:131,0
DA:133,22
DA:144,11
DA:145,11
DA:146,11
DA:147,22
BRF:0
BRH:0
LF:107
LH:95
end_of_record
SF:/Users/andreasbigger/kona/bin/client/src/fpvm_evm/precompiles/utils.rs
FN:31,_RNCINvNtNtNtCsagClJoJoeWA_11kona_client8fpvm_evm11precompiles10bls12_pair18fpvm_bls12_pairingINtNtCsbcJAgMR32cv_13kona_preimage4hint10HintWriterNtNtB1y_14native_channel13NativeChannelEINtNtB1y_6oracle12OracleReaderB2i_EEs_0Ba_
FN:31,_RNCINvNtNtNtCsagClJoJoeWA_11kona_client8fpvm_evm11precompiles10bn128_pair15fpvm_bn128_pairINtNtCsbcJAgMR32cv_13kona_preimage4hint10HintWriterNtNtB1v_14native_channel13NativeChannelEINtNtB1v_6oracle12OracleReaderB2f_EEs_0Ba_
FN:31,_RNCINvNtNtNtCsagClJoJoeWA_11kona_client8fpvm_evm11precompiles12bls12_g1_add17fpvm_bls12_g1_addINtNtCsbcJAgMR32cv_13kona_preimage4hint10HintWriterNtNtB1z_14native_channel13NativeChannelEINtNtB1z_6oracle12OracleReaderB2j_EEs_0Ba_
FN:31,_RNCINvNtNtNtCsagClJoJoeWA_11kona_client8fpvm_evm11precompiles12bls12_g1_msm17fpvm_bls12_g1_msmINtNtCsbcJAgMR32cv_13kona_preimage4hint10HintWriterNtNtB1z_14native_channel13NativeChannelEINtNtB1z_6oracle12OracleReaderB2j_EEs_0Ba_
FN:31,_RNCINvNtNtNtCsagClJoJoeWA_11kona_client8fpvm_evm11precompiles12bls12_g2_add17fpvm_bls12_g2_addINtNtCsbcJAgMR32cv_13kona_preimage4hint10HintWriterNtNtB1z_14native_channel13NativeChannelEINtNtB1z_6oracle12OracleReaderB2j_EEs_0Ba_
FN:31,_RNCINvNtNtNtCsagClJoJoeWA_11kona_client8fpvm_evm11precompiles12bls12_g2_msm17fpvm_bls12_g2_msmINtNtCsbcJAgMR32cv_13kona_preimage4hint10HintWriterNtNtB1z_14native_channel13NativeChannelEINtNtB1z_6oracle12OracleReaderB2j_EEs_0Ba_
FN:31,_RNCINvNtNtNtCsagClJoJoeWA_11kona_client8fpvm_evm11precompiles12bls12_map_fp17fpvm_bls12_map_fpINtNtCsbcJAgMR32cv_13kona_preimage4hint10HintWriterNtNtB1z_14native_channel13NativeChannelEINtNtB1z_6oracle12OracleReaderB2j_EEs_0Ba_
FN:31,_RNCINvNtNtNtCsagClJoJoeWA_11kona_client8fpvm_evm11precompiles13bls12_map_fp218fpvm_bls12_map_fp2INtNtCsbcJAgMR32cv_13kona_preimage4hint10HintWriterNtNtB1B_14native_channel13NativeChannelEINtNtB1B_6oracle12OracleReaderB2l_EEs_0Ba_
FN:31,_RNCINvNtNtNtCsagClJoJoeWA_11kona_client8fpvm_evm11precompiles14kzg_point_eval19fpvm_kzg_point_evalINtNtCsbcJAgMR32cv_13kona_preimage4hint10HintWriterNtNtB1D_14native_channel13NativeChannelEINtNtB1D_6oracle12OracleReaderB2n_EEs_0Ba_
FN:31,_RNCINvNtNtNtCsagClJoJoeWA_11kona_client8fpvm_evm11precompiles9ecrecover15fpvm_ec_recoverINtNtCsbcJAgMR32cv_13kona_preimage4hint10HintWriterNtNtB1t_14native_channel13NativeChannelEINtNtB1t_6oracle12OracleReaderB2d_EEs_0Ba_
FN:8,_RNvNtNtNtCsagClJoJoeWA_11kona_client8fpvm_evm11precompiles5utils16msm_required_gas
FNDA:1,_RNCINvNtNtNtCsagClJoJoeWA_11kona_client8fpvm_evm11precompiles10bls12_pair18fpvm_bls12_pairingINtNtCsbcJAgMR32cv_13kona_preimage4hint10HintWriterNtNtB1y_14native_channel13NativeChannelEINtNtB1y_6oracle12OracleReaderB2i_EEs_0Ba_
FNDA:2,_RNCINvNtNtNtCsagClJoJoeWA_11kona_client8fpvm_evm11precompiles10bn128_pair15fpvm_bn128_pairINtNtCsbcJAgMR32cv_13kona_preimage4hint10HintWriterNtNtB1v_14native_channel13NativeChannelEINtNtB1v_6oracle12OracleReaderB2f_EEs_0Ba_
FNDA:1,_RNCINvNtNtNtCsagClJoJoeWA_11kona_client8fpvm_evm11precompiles12bls12_g1_add17fpvm_bls12_g1_addINtNtCsbcJAgMR32cv_13kona_preimage4hint10HintWriterNtNtB1z_14native_channel13NativeChannelEINtNtB1z_6oracle12OracleReaderB2j_EEs_0Ba_
FNDA:1,_RNCINvNtNtNtCsagClJoJoeWA_11kona_client8fpvm_evm11precompiles12bls12_g1_msm17fpvm_bls12_g1_msmINtNtCsbcJAgMR32cv_13kona_preimage4hint10HintWriterNtNtB1z_14native_channel13NativeChannelEINtNtB1z_6oracle12OracleReaderB2j_EEs_0Ba_
FNDA:1,_RNCINvNtNtNtCsagClJoJoeWA_11kona_client8fpvm_evm11precompiles12bls12_g2_add17fpvm_bls12_g2_addINtNtCsbcJAgMR32cv_13kona_preimage4hint10HintWriterNtNtB1z_14native_channel13NativeChannelEINtNtB1z_6oracle12OracleReaderB2j_EEs_0Ba_
FNDA:1,_RNCINvNtNtNtCsagClJoJoeWA_11kona_client8fpvm_evm11precompiles12bls12_g2_msm17fpvm_bls12_g2_msmINtNtCsbcJAgMR32cv_13kona_preimage4hint10HintWriterNtNtB1z_14native_channel13NativeChannelEINtNtB1z_6oracle12OracleReaderB2j_EEs_0Ba_
FNDA:1,_RNCINvNtNtNtCsagClJoJoeWA_11kona_client8fpvm_evm11precompiles12bls12_map_fp17fpvm_bls12_map_fpINtNtCsbcJAgMR32cv_13kona_preimage4hint10HintWriterNtNtB1z_14native_channel13NativeChannelEINtNtB1z_6oracle12OracleReaderB2j_EEs_0Ba_
FNDA:1,_RNCINvNtNtNtCsagClJoJoeWA_11kona_client8fpvm_evm11precompiles13bls12_map_fp218fpvm_bls12_map_fp2INtNtCsbcJAgMR32cv_13kona_preimage4hint10HintWriterNtNtB1B_14native_channel13NativeChannelEINtNtB1B_6oracle12OracleReaderB2l_EEs_0Ba_
FNDA:1,_RNCINvNtNtNtCsagClJoJoeWA_11kona_client8fpvm_evm11precompiles14kzg_point_eval19fpvm_kzg_point_evalINtNtCsbcJAgMR32cv_13kona_preimage4hint10HintWriterNtNtB1D_14native_channel13NativeChannelEINtNtB1D_6oracle12OracleReaderB2n_EEs_0Ba_
FNDA:1,_RNCINvNtNtNtCsagClJoJoeWA_11kona_client8fpvm_evm11precompiles9ecrecover15fpvm_ec_recoverINtNtCsbcJAgMR32cv_13kona_preimage4hint10HintWriterNtNtB1t_14native_channel13NativeChannelEINtNtB1t_6oracle12OracleReaderB2d_EEs_0Ba_
FNDA:4,_RNvNtNtNtCsagClJoJoeWA_11kona_client8fpvm_evm11precompiles5utils16msm_required_gas
FNF:2
FNH:2
DA:8,4
DA:12,4
DA:13,0
DA:14,4
DA:15,4
DA:16,4
DA:17,4
DA:18,4
DA:19,4
DA:20,4
DA:31,11
DA:37,11
DA:38,11
DA:41,11
DA:42,11
DA:45,11
DA:46,11
DA:47,11
DA:48,11
DA:51,11
DA:52,0
DA:53,0
DA:54,0
DA:55,11
DA:56,11
DA:57,11
DA:58,11
DA:59,0
DA:60,0
DA:61,0
DA:62,11
DA:63,11
DA:64,11
DA:65,11
DA:66,11
BRF:0
BRH:0
LF:35
LH:28
end_of_record
SF:/Users/andreasbigger/kona/bin/client/src/interop/consolidate.rs
FN:26,_RINvNtNtCsagClJoJoeWA_11kona_client7interop11consolidate24consolidate_dependenciespppEB6_
FN:36,_RNCINvNtNtCsagClJoJoeWA_11kona_client7interop11consolidate24consolidate_dependenciespppE0B8_
FN:51,_RNCNCINvNtNtCsagClJoJoeWA_11kona_client7interop11consolidate24consolidate_dependenciespppE00Ba_
FN:68,_RNCNCINvNtNtCsagClJoJoeWA_11kona_client7interop11consolidate24consolidate_dependenciespppE0s_0Ba_
FNDA:0,_RINvNtNtCsagClJoJoeWA_11kona_client7interop11consolidate24consolidate_dependenciespppEB6_
FNDA:0,_RNCINvNtNtCsagClJoJoeWA_11kona_client7interop11consolidate24consolidate_dependenciespppE0B8_
FNDA:0,_RNCNCINvNtNtCsagClJoJoeWA_11kona_client7interop11consolidate24consolidate_dependenciespppE00Ba_
FNDA:0,_RNCNCINvNtNtCsagClJoJoeWA_11kona_client7interop11consolidate24consolidate_dependenciespppE0s_0Ba_
FNF:4
FNH:0
DA:26,0
DA:27,0
DA:28,0
DA:29,0
DA:30,0
DA:31,0
DA:32,0
DA:33,0
DA:34,0
DA:35,0
DA:36,0
DA:37,0
DA:42,0
DA:43,0
DA:47,0
DA:48,0
DA:49,0
DA:50,0
DA:51,0
DA:52,0
DA:53,0
DA:54,0
DA:55,0
DA:56,0
DA:58,0
DA:59,0
DA:60,0
DA:61,0
DA:62,0
DA:63,0
DA:66,0
DA:67,0
DA:68,0
DA:69,0
DA:72,0
DA:73,0
DA:74,0
DA:75,0
DA:76,0
DA:77,0
DA:78,0
DA:79,0
DA:80,0
DA:81,0
DA:82,0
DA:83,0
DA:84,0
DA:85,0
DA:86,0
DA:87,0
DA:88,0
DA:89,0
DA:90,0
DA:91,0
DA:92,0
DA:95,0
DA:97,0
DA:98,0
DA:101,0
DA:103,0
DA:104,0
DA:108,0
DA:109,0
DA:110,0
DA:111,0
DA:114,0
DA:115,0
DA:116,0
DA:117,0
DA:118,0
DA:119,0
DA:120,0
DA:121,0
DA:122,0
DA:126,0
DA:128,0
DA:129,0
DA:130,0
DA:131,0
DA:134,0
DA:136,0
DA:137,0
BRF:0
BRH:0
LF:85
LH:0
end_of_record
SF:/Users/andreasbigger/kona/bin/client/src/interop/mod.rs
FN:57,_RINvNtCsagClJoJoeWA_11kona_client7interop3runppEB4_
FN:61,_RNCINvNtCsagClJoJoeWA_11kona_client7interop3runppE0B6_
FNDA:0,_RINvNtCsagClJoJoeWA_11kona_client7interop3runppEB4_
FNDA:0,_RNCINvNtCsagClJoJoeWA_11kona_client7interop3runppE0B6_
FNF:2
FNH:0
DA:57,0
DA:58,0
DA:59,0
DA:60,0
DA:61,0
DA:65,0
DA:66,0
DA:67,0
DA:68,0
DA:70,0
DA:71,0
DA:73,0
DA:74,0
DA:75,0
DA:79,0
DA:80,0
DA:81,0
DA:82,0
DA:83,0
DA:84,0
DA:85,0
DA:86,0
DA:87,0
DA:88,0
DA:89,0
DA:91,0
DA:92,0
DA:93,0
DA:94,0
DA:96,0
DA:97,0
DA:98,0
DA:99,0
DA:101,0
DA:102,0
DA:103,0
DA:104,0
DA:105,0
DA:106,0
DA:107,0
DA:108,0
DA:109,0
DA:110,0
DA:111,0
DA:112,0
DA:113,0
DA:114,0
DA:115,0
DA:117,0
DA:121,0
DA:123,0
DA:128,0
BRF:0
BRH:0
LF:53
LH:0
end_of_record
SF:/Users/andreasbigger/kona/bin/client/src/interop/transition.rs
FN:28,_RINvNtNtCsagClJoJoeWA_11kona_client7interop10transition14sub_transitionpppEB6_
FN:38,_RNCINvNtNtCsagClJoJoeWA_11kona_client7interop10transition14sub_transitionpppE0B8_
FN:72,_RNCNCINvNtNtCsagClJoJoeWA_11kona_client7interop10transition14sub_transitionpppE00Ba_
FN:164,_RNvNtNtCsagClJoJoeWA_11kona_client7interop10transition20transition_and_check
FNDA:0,_RINvNtNtCsagClJoJoeWA_11kona_client7interop10transition14sub_transitionpppEB6_
FNDA:0,_RNCINvNtNtCsagClJoJoeWA_11kona_client7interop10transition14sub_transitionpppE0B8_
FNDA:0,_RNCNCINvNtNtCsagClJoJoeWA_11kona_client7interop10transition14sub_transitionpppE00Ba_
FNDA:0,_RNvNtNtCsagClJoJoeWA_11kona_client7interop10transition20transition_and_check
FNF:4
FNH:0
DA:28,0
DA:29,0
DA:30,0
DA:31,0
DA:32,0
DA:33,0
DA:34,0
DA:35,0
DA:36,0
DA:37,0
DA:38,0
DA:40,0
DA:41,0
DA:42,0
DA:44,0
DA:47,0
DA:48,0
DA:49,0
DA:52,0
DA:55,0
DA:56,0
DA:57,0
DA:58,0
DA:61,0
DA:62,0
DA:63,0
DA:64,0
DA:65,0
DA:66,0
DA:67,0
DA:70,0
DA:71,0
DA:72,0
DA:73,0
DA:74,0
DA:75,0
DA:76,0
DA:77,0
DA:78,0
DA:80,0
DA:83,0
DA:84,0
DA:85,0
DA:86,0
DA:87,0
DA:88,0
DA:89,0
DA:90,0
DA:91,0
DA:92,0
DA:93,0
DA:96,0
DA:97,0
DA:98,0
DA:99,0
DA:101,0
DA:102,0
DA:103,0
DA:104,0
DA:105,0
DA:106,0
DA:107,0
DA:108,0
DA:109,0
DA:110,0
DA:111,0
DA:112,0
DA:113,0
DA:114,0
DA:115,0
DA:116,0
DA:117,0
DA:118,0
DA:119,0
DA:120,0
DA:121,0
DA:122,0
DA:123,0
DA:124,0
DA:125,0
DA:126,0
DA:127,0
DA:128,0
DA:130,0
DA:132,0
DA:136,0
DA:139,0
DA:141,0
DA:144,0
DA:145,0
DA:146,0
DA:147,0
DA:148,0
DA:149,0
DA:151,0
DA:152,0
DA:154,0
DA:157,0
DA:160,0
DA:164,0
DA:165,0
DA:166,0
DA:167,0
DA:168,0
DA:169,0
DA:170,0
DA:171,0
DA:172,0
DA:173,0
DA:174,0
DA:175,0
DA:176,0
DA:178,0
DA:180,0
DA:182,0
DA:183,0
DA:185,0
DA:190,0
DA:191,0
DA:192,0
DA:193,0
DA:194,0
DA:195,0
DA:196,0
DA:198,0
DA:201,0
DA:202,0
BRF:0
BRH:0
LF:129
LH:0
end_of_record
SF:/Users/andreasbigger/kona/bin/client/src/interop/util.rs
FN:11,_RINvNtNtCsagClJoJoeWA_11kona_client7interop4util23fetch_l2_safe_head_hashpEB6_
FN:27,_RINvNtNtCsagClJoJoeWA_11kona_client7interop4util23fetch_output_block_hashpEB6_
FN:17,_RNCINvNtNtCsagClJoJoeWA_11kona_client7interop4util23fetch_l2_safe_head_hashpE0B8_
FN:34,_RNCINvNtNtCsagClJoJoeWA_11kona_client7interop4util23fetch_output_block_hashpE0B8_
FNDA:0,_RINvNtNtCsagClJoJoeWA_11kona_client7interop4util23fetch_l2_safe_head_hashpEB6_
FNDA:0,_RINvNtNtCsagClJoJoeWA_11kona_client7interop4util23fetch_output_block_hashpEB6_
FNDA:0,_RNCINvNtNtCsagClJoJoeWA_11kona_client7interop4util23fetch_l2_safe_head_hashpE0B8_
FNDA:0,_RNCINvNtNtCsagClJoJoeWA_11kona_client7interop4util23fetch_output_block_hashpE0B8_
FNF:4
FNH:0
DA:11,0
DA:12,0
DA:13,0
DA:14,0
DA:15,0
DA:16,0
DA:17,0
DA:19,0
DA:20,0
DA:21,0
DA:23,0
DA:24,0
DA:27,0
DA:28,0
DA:29,0
DA:30,0
DA:31,0
DA:32,0
DA:33,0
DA:34,0
DA:35,0
DA:36,0
DA:37,0
DA:38,0
DA:39,0
DA:40,0
DA:41,0
DA:42,0
DA:44,0
DA:45,0
BRF:0
BRH:0
LF:32
LH:0
end_of_record
SF:/Users/andreasbigger/kona/bin/client/src/single.rs
FN:156,_RINvNtCsagClJoJoeWA_11kona_client6single20fetch_safe_head_hashpEB4_
FN:43,_RINvNtCsagClJoJoeWA_11kona_client6single3runppEB4_
FN:162,_RNCINvNtCsagClJoJoeWA_11kona_client6single20fetch_safe_head_hashpE0B6_
FN:47,_RNCINvNtCsagClJoJoeWA_11kona_client6single3runppE0B6_
FN:68,_RNCNCINvNtCsagClJoJoeWA_11kona_client6single3runppE00B8_
FNDA:0,_RINvNtCsagClJoJoeWA_11kona_client6single20fetch_safe_head_hashpEB4_
FNDA:0,_RINvNtCsagClJoJoeWA_11kona_client6single3runppEB4_
FNDA:0,_RNCINvNtCsagClJoJoeWA_11kona_client6single20fetch_safe_head_hashpE0B6_
FNDA:0,_RNCINvNtCsagClJoJoeWA_11kona_client6single3runppE0B6_
FNDA:0,_RNCNCINvNtCsagClJoJoeWA_11kona_client6single3runppE00B8_
FNF:5
FNH:0
DA:43,0
DA:44,0
DA:45,0
DA:46,0
DA:47,0
DA:54,0
DA:55,0
DA:56,0
DA:57,0
DA:58,0
DA:60,0
DA:61,0
DA:62,0
DA:63,0
DA:66,0
DA:67,0
DA:68,0
DA:72,0
DA:73,0
DA:76,0
DA:77,0
DA:79,0
DA:80,0
DA:81,0
DA:82,0
DA:83,0
DA:84,0
DA:85,0
DA:86,0
DA:87,0
DA:88,0
DA:90,0
DA:92,0
DA:93,0
DA:100,0
DA:101,0
DA:102,0
DA:103,0
DA:104,0
DA:105,0
DA:106,0
DA:107,0
DA:108,0
DA:109,0
DA:110,0
DA:111,0
DA:112,0
DA:113,0
DA:114,0
DA:115,0
DA:116,0
DA:117,0
DA:118,0
DA:119,0
DA:120,0
DA:121,0
DA:122,0
DA:126,0
DA:127,0
DA:128,0
DA:134,0
DA:135,0
DA:139,0
DA:141,0
DA:142,0
DA:143,0
DA:144,0
DA:148,0
DA:151,0
DA:152,0
DA:156,0
DA:157,0
DA:158,0
DA:159,0
DA:160,0
DA:161,0
DA:162,0
DA:163,0
DA:164,0
DA:165,0
DA:166,0
DA:167,0
DA:168,0
DA:169,0
DA:170,0
DA:172,0
DA:173,0
BRF:0
BRH:0
LF:90
LH:0
end_of_record
SF:/Users/andreasbigger/kona/bin/host/src/backend/offline.rs
FN:36,_RNCNvXININtNtCsiXsDAYXhF23_9kona_host7backend7offlines0_0pEINtB7_18OfflineHostBackendpENtNtCsbcJAgMR32cv_13kona_preimage6traits15PreimageFetcher12get_preimage0Bb_
FN:47,_RNCNvXININtNtCsiXsDAYXhF23_9kona_host7backend7offlines1_0pEINtB7_18OfflineHostBackendpENtNtCsbcJAgMR32cv_13kona_preimage6traits10HintRouter10route_hint0Bb_
FN:26,_RNvMNtNtCsiXsDAYXhF23_9kona_host7backend7offlineINtB2_18OfflineHostBackendpE3newB6_
FN:39,_RNvXININtNtCsiXsDAYXhF23_9kona_host7backend7offlines0_0pEINtB5_18OfflineHostBackendpENtNtCsbcJAgMR32cv_13kona_preimage6traits15PreimageFetcher12get_preimageB9_
FN:49,_RNvXININtNtCsiXsDAYXhF23_9kona_host7backend7offlines1_0pEINtB5_18OfflineHostBackendpENtNtCsbcJAgMR32cv_13kona_preimage6traits10HintRouter10route_hintB9_
FNDA:0,_RNCNvXININtNtCsiXsDAYXhF23_9kona_host7backend7offlines0_0pEINtB7_18OfflineHostBackendpENtNtCsbcJAgMR32cv_13kona_preimage6traits15PreimageFetcher12get_preimage0Bb_
FNDA:0,_RNCNvXININtNtCsiXsDAYXhF23_9kona_host7backend7offlines1_0pEINtB7_18OfflineHostBackendpENtNtCsbcJAgMR32cv_13kona_preimage6traits10HintRouter10route_hint0Bb_
FNDA:0,_RNvMNtNtCsiXsDAYXhF23_9kona_host7backend7offlineINtB2_18OfflineHostBackendpE3newB6_
FNDA:0,_RNvXININtNtCsiXsDAYXhF23_9kona_host7backend7offlines0_0pEINtB5_18OfflineHostBackendpENtNtCsbcJAgMR32cv_13kona_preimage6traits15PreimageFetcher12get_preimageB9_
FNDA:0,_RNvXININtNtCsiXsDAYXhF23_9kona_host7backend7offlines1_0pEINtB5_18OfflineHostBackendpENtNtCsbcJAgMR32cv_13kona_preimage6traits10HintRouter10route_hintB9_
FNF:5
FNH:0
DA:26,0
DA:27,0
DA:28,0
DA:36,0
DA:37,0
DA:38,0
DA:39,0
DA:47,0
DA:48,0
DA:49,0
BRF:0
BRH:0
LF:12
LH:0
end_of_record
SF:/Users/andreasbigger/kona/bin/host/src/backend/online.rs
FN:102,_RNCNCNvXININtNtCsiXsDAYXhF23_9kona_host7backend6onlines_0ppEINtB9_17OnlineHostBackendppENtNtCsbcJAgMR32cv_13kona_preimage6traits10HintRouter10route_hint00Bd_
FN:107,_RNCNCNvXININtNtCsiXsDAYXhF23_9kona_host7backend6onlines_0ppEINtB9_17OnlineHostBackendppENtNtCsbcJAgMR32cv_13kona_preimage6traits10HintRouter10route_hint0s_0Bd_
FN:124,_RNCNvXININtNtCsiXsDAYXhF23_9kona_host7backend6onlines0_0ppEINtB7_17OnlineHostBackendppENtNtCsbcJAgMR32cv_13kona_preimage6traits15PreimageFetcher12get_preimage0Bb_
FN:97,_RNCNvXININtNtCsiXsDAYXhF23_9kona_host7backend6onlines_0ppEINtB7_17OnlineHostBackendppENtNtCsbcJAgMR32cv_13kona_preimage6traits10HintRouter10route_hint0Bb_
FN:84,_RNvMNtNtCsiXsDAYXhF23_9kona_host7backend6onlineINtB2_17OnlineHostBackendppE19with_proactive_hintB6_
FN:72,_RNvMNtNtCsiXsDAYXhF23_9kona_host7backend6onlineINtB2_17OnlineHostBackendppE3newB6_
FN:151,_RNvXININtNtCsiXsDAYXhF23_9kona_host7backend6onlines0_0ppEINtB5_17OnlineHostBackendppENtNtCsbcJAgMR32cv_13kona_preimage6traits15PreimageFetcher12get_preimageB9_
FN:114,_RNvXININtNtCsiXsDAYXhF23_9kona_host7backend6onlines_0ppEINtB5_17OnlineHostBackendppENtNtCsbcJAgMR32cv_13kona_preimage6traits10HintRouter10route_hintB9_
FNDA:0,_RNCNCNvXININtNtCsiXsDAYXhF23_9kona_host7backend6onlines_0ppEINtB9_17OnlineHostBackendppENtNtCsbcJAgMR32cv_13kona_preimage6traits10HintRouter10route_hint00Bd_
FNDA:0,_RNCNCNvXININtNtCsiXsDAYXhF23_9kona_host7backend6onlines_0ppEINtB9_17OnlineHostBackendppENtNtCsbcJAgMR32cv_13kona_preimage6traits10HintRouter10route_hint0s_0Bd_
FNDA:0,_RNCNvXININtNtCsiXsDAYXhF23_9kona_host7backend6onlines0_0ppEINtB7_17OnlineHostBackendppENtNtCsbcJAgMR32cv_13kona_preimage6traits15PreimageFetcher12get_preimage0Bb_
FNDA:0,_RNCNvXININtNtCsiXsDAYXhF23_9kona_host7backend6onlines_0ppEINtB7_17OnlineHostBackendppENtNtCsbcJAgMR32cv_13kona_preimage6traits10HintRouter10route_hint0Bb_
FNDA:0,_RNvMNtNtCsiXsDAYXhF23_9kona_host7backend6onlineINtB2_17OnlineHostBackendppE19with_proactive_hintB6_
FNDA:0,_RNvMNtNtCsiXsDAYXhF23_9kona_host7backend6onlineINtB2_17OnlineHostBackendppE3newB6_
FNDA:0,_RNvXININtNtCsiXsDAYXhF23_9kona_host7backend6onlines0_0ppEINtB5_17OnlineHostBackendppENtNtCsbcJAgMR32cv_13kona_preimage6traits15PreimageFetcher12get_preimageB9_
FNDA:0,_RNvXININtNtCsiXsDAYXhF23_9kona_host7backend6onlines_0ppEINtB5_17OnlineHostBackendppENtNtCsbcJAgMR32cv_13kona_preimage6traits10HintRouter10route_hintB9_
FNF:8
FNH:0
DA:72,0
DA:73,0
DA:74,0
DA:75,0
DA:76,0
DA:77,0
DA:78,0
DA:79,0
DA:80,0
DA:81,0
DA:84,0
DA:85,0
DA:86,0
DA:87,0
DA:97,0
DA:98,0
DA:100,0
DA:101,0
DA:102,0
DA:103,0
DA:104,0
DA:105,0
DA:106,0
DA:107,0
DA:109,0
DA:110,0
DA:113,0
DA:114,0
DA:124,0
DA:125,0
DA:128,0
DA:129,0
DA:130,0
DA:131,0
DA:132,0
DA:135,0
DA:136,0
DA:137,0
DA:138,0
DA:140,0
DA:141,0
DA:142,0
DA:143,0
DA:145,0
DA:146,0
DA:147,0
DA:150,0
DA:151,0
BRF:0
BRH:0
LF:52
LH:0
end_of_record
SF:/Users/andreasbigger/kona/bin/host/src/backend/util.rs
FN:13,_RINvNtNtCsiXsDAYXhF23_9kona_host7backend4util18store_ordered_trieppEB6_
FN:16,_RNCINvNtNtCsiXsDAYXhF23_9kona_host7backend4util18store_ordered_trieppE0B8_
FN:27,_RNCNCINvNtNtCsiXsDAYXhF23_9kona_host7backend4util18store_ordered_trieppE00Ba_
FNDA:0,_RINvNtNtCsiXsDAYXhF23_9kona_host7backend4util18store_ordered_trieppEB6_
FNDA:0,_RNCINvNtNtCsiXsDAYXhF23_9kona_host7backend4util18store_ordered_trieppE0B8_
FNDA:0,_RNCNCINvNtNtCsiXsDAYXhF23_9kona_host7backend4util18store_ordered_trieppE00Ba_
FNF:3
FNH:0
DA:13,0
DA:14,0
DA:15,0
DA:16,0
DA:17,0
DA:22,0
DA:23,0
DA:24,0
DA:25,0
DA:26,0
DA:27,0
DA:28,0
DA:29,0
DA:30,0
DA:31,0
DA:33,0
DA:34,0
DA:35,0
DA:36,0
DA:37,0
DA:40,0
DA:41,0
BRF:0
BRH:0
LF:25
LH:0
end_of_record
SF:/Users/andreasbigger/kona/bin/host/src/bin/host.rs
FN:49,_RNCNvCsgEtlZJxCzfm_9kona_host4main0B3_
FN:30,_RNCNvXs0_CsgEtlZJxCzfm_9kona_hostNtB7_7HostCliNtNtCsbIcgn47pbcF_12clap_builder6derive14FromArgMatches20from_arg_matches_mut0B7_
FN:30,_RNCNvXs0_CsgEtlZJxCzfm_9kona_hostNtB7_7HostCliNtNtCsbIcgn47pbcF_12clap_builder6derive14FromArgMatches27update_from_arg_matches_mut0B7_
FN:49,_RNvCsgEtlZJxCzfm_9kona_host4main
FNDA:0,_RNCNvCsgEtlZJxCzfm_9kona_host4main0B3_
FNDA:0,_RNCNvXs0_CsgEtlZJxCzfm_9kona_hostNtB7_7HostCliNtNtCsbIcgn47pbcF_12clap_builder6derive14FromArgMatches20from_arg_matches_mut0B7_
FNDA:0,_RNCNvXs0_CsgEtlZJxCzfm_9kona_hostNtB7_7HostCliNtNtCsbIcgn47pbcF_12clap_builder6derive14FromArgMatches27update_from_arg_matches_mut0B7_
FNDA:0,_RNvCsgEtlZJxCzfm_9kona_host4main
FNF:3
FNH:0
DA:30,0
DA:49,0
DA:50,0
DA:51,0
DA:52,0
DA:53,0
DA:54,0
DA:55,0
DA:56,0
DA:57,0
DA:58,0
DA:59,0
DA:60,0
DA:61,0
DA:62,0
DA:63,0
DA:64,0
DA:65,0
DA:66,0
BRF:0
BRH:0
LF:29
LH:0
end_of_record
SF:/Users/andreasbigger/kona/bin/host/src/eth/mod.rs
FN:12,_RINvNtCsiXsDAYXhF23_9kona_host3eth13http_providerpEB4_
FNDA:0,_RINvNtCsiXsDAYXhF23_9kona_host3eth13http_providerpEB4_
FNF:1
FNH:0
DA:12,0
DA:13,0
DA:14,0
DA:15,0
DA:16,0
BRF:0
BRH:0
LF:5
LH:0
end_of_record
SF:/Users/andreasbigger/kona/bin/host/src/eth/precompiles.rs
FN:23,_RINvNtNtCsiXsDAYXhF23_9kona_host3eth11precompiles7executepEB6_
FN:25,_RNCINvNtNtCsiXsDAYXhF23_9kona_host3eth11precompiles7executepE0B8_
FN:28,_RNCINvNtNtCsiXsDAYXhF23_9kona_host3eth11precompiles7executepEs_0B8_
FNDA:0,_RINvNtNtCsiXsDAYXhF23_9kona_host3eth11precompiles7executepEB6_
FNDA:0,_RNCINvNtNtCsiXsDAYXhF23_9kona_host3eth11precompiles7executepE0B8_
FNDA:0,_RNCINvNtNtCsiXsDAYXhF23_9kona_host3eth11precompiles7executepEs_0B8_
FNF:3
FNH:0
DA:23,0
DA:24,0
DA:25,0
DA:27,0
DA:28,0
DA:30,0
DA:32,0
DA:34,0
BRF:0
BRH:0
LF:10
LH:0
end_of_record
SF:/Users/andreasbigger/kona/bin/host/src/interop/cfg.rs
FN:35,_RNCNvXs4_NtNtCsiXsDAYXhF23_9kona_host7interop3cfgNtB7_11InteropHostNtNtCsbIcgn47pbcF_12clap_builder6derive14FromArgMatches20from_arg_matches_mut0Bb_
FN:43,_RNCNvXs4_NtNtCsiXsDAYXhF23_9kona_host7interop3cfgNtB7_11InteropHostNtNtCsbIcgn47pbcF_12clap_builder6derive14FromArgMatches20from_arg_matches_muts0_0Bb_
FN:46,_RNCNvXs4_NtNtCsiXsDAYXhF23_9kona_host7interop3cfgNtB7_11InteropHostNtNtCsbIcgn47pbcF_12clap_builder6derive14FromArgMatches20from_arg_matches_muts1_0Bb_
FN:56,_RNCNvXs4_NtNtCsiXsDAYXhF23_9kona_host7interop3cfgNtB7_11InteropHostNtNtCsbIcgn47pbcF_12clap_builder6derive14FromArgMatches20from_arg_matches_muts2_0Bb_
FN:86,_RNCNvXs4_NtNtCsiXsDAYXhF23_9kona_host7interop3cfgNtB7_11InteropHostNtNtCsbIcgn47pbcF_12clap_builder6derive14FromArgMatches20from_arg_matches_muts3_0Bb_
FN:90,_RNCNvXs4_NtNtCsiXsDAYXhF23_9kona_host7interop3cfgNtB7_11InteropHostNtNtCsbIcgn47pbcF_12clap_builder6derive14FromArgMatches20from_arg_matches_muts4_0Bb_
FN:94,_RNCNvXs4_NtNtCsiXsDAYXhF23_9kona_host7interop3cfgNtB7_11InteropHostNtNtCsbIcgn47pbcF_12clap_builder6derive14FromArgMatches20from_arg_matches_muts5_0Bb_
FN:40,_RNCNvXs4_NtNtCsiXsDAYXhF23_9kona_host7interop3cfgNtB7_11InteropHostNtNtCsbIcgn47pbcF_12clap_builder6derive14FromArgMatches20from_arg_matches_muts_0Bb_
FN:138,_RINvMNtNtCsiXsDAYXhF23_9kona_host7interop3cfgNtB3_11InteropHost12start_serverpEB7_
FN:145,_RNCINvMNtNtCsiXsDAYXhF23_9kona_host7interop3cfgNtB5_11InteropHost12start_serverpE0B9_
FN:149,_RNCNCINvMNtNtCsiXsDAYXhF23_9kona_host7interop3cfgNtB7_11InteropHost12start_serverpE00Bb_
FN:169,_RNCNCINvMNtNtCsiXsDAYXhF23_9kona_host7interop3cfgNtB7_11InteropHost12start_serverpE0s_0Bb_
FN:186,_RNCNvMNtNtCsiXsDAYXhF23_9kona_host7interop3cfgNtB4_11InteropHost12start_native0B8_
FN:249,_RNCNvMNtNtCsiXsDAYXhF23_9kona_host7interop3cfgNtB4_11InteropHost16create_providers0B8_
FN:213,_RNCNvMNtNtCsiXsDAYXhF23_9kona_host7interop3cfgNtB4_11InteropHost19read_rollup_configs0B8_
FN:219,_RNCNvMNtNtCsiXsDAYXhF23_9kona_host7interop3cfgNtB4_11InteropHost19read_rollup_configss_0B8_
FN:125,_RNCNvMNtNtCsiXsDAYXhF23_9kona_host7interop3cfgNtB4_11InteropHost5start0B8_
FN:296,_RNCNvMs0_NtNtCsiXsDAYXhF23_9kona_host7interop3cfgNtB7_16InteropProviders2l20Bb_
FN:35,_RNCNvXs4_NtNtCsiXsDAYXhF23_9kona_host7interop3cfgNtB7_11InteropHostNtNtCsbIcgn47pbcF_12clap_builder6derive14FromArgMatches27update_from_arg_matches_mut0Bb_
FN:43,_RNCNvXs4_NtNtCsiXsDAYXhF23_9kona_host7interop3cfgNtB7_11InteropHostNtNtCsbIcgn47pbcF_12clap_builder6derive14FromArgMatches27update_from_arg_matches_muts0_0Bb_
FN:46,_RNCNvXs4_NtNtCsiXsDAYXhF23_9kona_host7interop3cfgNtB7_11InteropHostNtNtCsbIcgn47pbcF_12clap_builder6derive14FromArgMatches27update_from_arg_matches_muts1_0Bb_
FN:56,_RNCNvXs4_NtNtCsiXsDAYXhF23_9kona_host7interop3cfgNtB7_11InteropHostNtNtCsbIcgn47pbcF_12clap_builder6derive14FromArgMatches27update_from_arg_matches_muts2_0Bb_
FN:86,_RNCNvXs4_NtNtCsiXsDAYXhF23_9kona_host7interop3cfgNtB7_11InteropHostNtNtCsbIcgn47pbcF_12clap_builder6derive14FromArgMatches27update_from_arg_matches_muts3_0Bb_
FN:90,_RNCNvXs4_NtNtCsiXsDAYXhF23_9kona_host7interop3cfgNtB7_11InteropHostNtNtCsbIcgn47pbcF_12clap_builder6derive14FromArgMatches27update_from_arg_matches_muts4_0Bb_
FN:94,_RNCNvXs4_NtNtCsiXsDAYXhF23_9kona_host7interop3cfgNtB7_11InteropHostNtNtCsbIcgn47pbcF_12clap_builder6derive14FromArgMatches27update_from_arg_matches_muts5_0Bb_
FN:40,_RNCNvXs4_NtNtCsiXsDAYXhF23_9kona_host7interop3cfgNtB7_11InteropHostNtNtCsbIcgn47pbcF_12clap_builder6derive14FromArgMatches27update_from_arg_matches_muts_0Bb_
FN:203,_RNvMNtNtCsiXsDAYXhF23_9kona_host7interop3cfgNtB2_11InteropHost10is_offline
FN:186,_RNvMNtNtCsiXsDAYXhF23_9kona_host7interop3cfgNtB2_11InteropHost12start_native
FN:249,_RNvMNtNtCsiXsDAYXhF23_9kona_host7interop3cfgNtB2_11InteropHost16create_providers
FN:212,_RNvMNtNtCsiXsDAYXhF23_9kona_host7interop3cfgNtB2_11InteropHost19read_rollup_configs
FN:232,_RNvMNtNtCsiXsDAYXhF23_9kona_host7interop3cfgNtB2_11InteropHost22create_key_value_store
FN:125,_RNvMNtNtCsiXsDAYXhF23_9kona_host7interop3cfgNtB2_11InteropHost5start
FN:295,_RNvMs0_NtNtCsiXsDAYXhF23_9kona_host7interop3cfgNtB5_16InteropProviders2l2
FN:306,_RNvNtNtNtCsiXsDAYXhF23_9kona_host7interop3cfg5testss_27test_parse_interop_host_cli
FN:334,_RNvNtNtNtCsiXsDAYXhF23_9kona_host7interop3cfg5testss_28test_parse_interop_hex_bytes
FNDA:0,_RNCNvXs4_NtNtCsiXsDAYXhF23_9kona_host7interop3cfgNtB7_11InteropHostNtNtCsbIcgn47pbcF_12clap_builder6derive14FromArgMatches20from_arg_matches_mut0Bb_
FNDA:0,_RNCNvXs4_NtNtCsiXsDAYXhF23_9kona_host7interop3cfgNtB7_11InteropHostNtNtCsbIcgn47pbcF_12clap_builder6derive14FromArgMatches20from_arg_matches_muts0_0Bb_
FNDA:0,_RNCNvXs4_NtNtCsiXsDAYXhF23_9kona_host7interop3cfgNtB7_11InteropHostNtNtCsbIcgn47pbcF_12clap_builder6derive14FromArgMatches20from_arg_matches_muts1_0Bb_
FNDA:2,_RNCNvXs4_NtNtCsiXsDAYXhF23_9kona_host7interop3cfgNtB7_11InteropHostNtNtCsbIcgn47pbcF_12clap_builder6derive14FromArgMatches20from_arg_matches_muts2_0Bb_
FNDA:0,_RNCNvXs4_NtNtCsiXsDAYXhF23_9kona_host7interop3cfgNtB7_11InteropHostNtNtCsbIcgn47pbcF_12clap_builder6derive14FromArgMatches20from_arg_matches_muts3_0Bb_
FNDA:0,_RNCNvXs4_NtNtCsiXsDAYXhF23_9kona_host7interop3cfgNtB7_11InteropHostNtNtCsbIcgn47pbcF_12clap_builder6derive14FromArgMatches20from_arg_matches_muts4_0Bb_
FNDA:0,_RNCNvXs4_NtNtCsiXsDAYXhF23_9kona_host7interop3cfgNtB7_11InteropHostNtNtCsbIcgn47pbcF_12clap_builder6derive14FromArgMatches20from_arg_matches_muts5_0Bb_
FNDA:0,_RNCNvXs4_NtNtCsiXsDAYXhF23_9kona_host7interop3cfgNtB7_11InteropHostNtNtCsbIcgn47pbcF_12clap_builder6derive14FromArgMatches20from_arg_matches_muts_0Bb_
FNDA:0,_RINvMNtNtCsiXsDAYXhF23_9kona_host7interop3cfgNtB3_11InteropHost12start_serverpEB7_
FNDA:0,_RNCINvMNtNtCsiXsDAYXhF23_9kona_host7interop3cfgNtB5_11InteropHost12start_serverpE0B9_
FNDA:0,_RNCNCINvMNtNtCsiXsDAYXhF23_9kona_host7interop3cfgNtB7_11InteropHost12start_serverpE00Bb_
FNDA:0,_RNCNCINvMNtNtCsiXsDAYXhF23_9kona_host7interop3cfgNtB7_11InteropHost12start_serverpE0s_0Bb_
FNDA:0,_RNCNvMNtNtCsiXsDAYXhF23_9kona_host7interop3cfgNtB4_11InteropHost12start_native0B8_
FNDA:0,_RNCNvMNtNtCsiXsDAYXhF23_9kona_host7interop3cfgNtB4_11InteropHost16create_providers0B8_
FNDA:0,_RNCNvMNtNtCsiXsDAYXhF23_9kona_host7interop3cfgNtB4_11InteropHost19read_rollup_configs0B8_
FNDA:0,_RNCNvMNtNtCsiXsDAYXhF23_9kona_host7interop3cfgNtB4_11InteropHost19read_rollup_configss_0B8_
FNDA:0,_RNCNvMNtNtCsiXsDAYXhF23_9kona_host7interop3cfgNtB4_11InteropHost5start0B8_
FNDA:0,_RNCNvMs0_NtNtCsiXsDAYXhF23_9kona_host7interop3cfgNtB7_16InteropProviders2l20Bb_
FNDA:0,_RNCNvXs4_NtNtCsiXsDAYXhF23_9kona_host7interop3cfgNtB7_11InteropHostNtNtCsbIcgn47pbcF_12clap_builder6derive14FromArgMatches27update_from_arg_matches_mut0Bb_
FNDA:0,_RNCNvXs4_NtNtCsiXsDAYXhF23_9kona_host7interop3cfgNtB7_11InteropHostNtNtCsbIcgn47pbcF_12clap_builder6derive14FromArgMatches27update_from_arg_matches_muts0_0Bb_
FNDA:0,_RNCNvXs4_NtNtCsiXsDAYXhF23_9kona_host7interop3cfgNtB7_11InteropHostNtNtCsbIcgn47pbcF_12clap_builder6derive14FromArgMatches27update_from_arg_matches_muts1_0Bb_
FNDA:0,_RNCNvXs4_NtNtCsiXsDAYXhF23_9kona_host7interop3cfgNtB7_11InteropHostNtNtCsbIcgn47pbcF_12clap_builder6derive14FromArgMatches27update_from_arg_matches_muts2_0Bb_
FNDA:0,_RNCNvXs4_NtNtCsiXsDAYXhF23_9kona_host7interop3cfgNtB7_11InteropHostNtNtCsbIcgn47pbcF_12clap_builder6derive14FromArgMatches27update_from_arg_matches_muts3_0Bb_
FNDA:0,_RNCNvXs4_NtNtCsiXsDAYXhF23_9kona_host7interop3cfgNtB7_11InteropHostNtNtCsbIcgn47pbcF_12clap_builder6derive14FromArgMatches27update_from_arg_matches_muts4_0Bb_
FNDA:0,_RNCNvXs4_NtNtCsiXsDAYXhF23_9kona_host7interop3cfgNtB7_11InteropHostNtNtCsbIcgn47pbcF_12clap_builder6derive14FromArgMatches27update_from_arg_matches_muts5_0Bb_
FNDA:0,_RNCNvXs4_NtNtCsiXsDAYXhF23_9kona_host7interop3cfgNtB7_11InteropHostNtNtCsbIcgn47pbcF_12clap_builder6derive14FromArgMatches27update_from_arg_matches_muts_0Bb_
FNDA:0,_RNvMNtNtCsiXsDAYXhF23_9kona_host7interop3cfgNtB2_11InteropHost10is_offline
FNDA:0,_RNvMNtNtCsiXsDAYXhF23_9kona_host7interop3cfgNtB2_11InteropHost12start_native
FNDA:0,_RNvMNtNtCsiXsDAYXhF23_9kona_host7interop3cfgNtB2_11InteropHost16create_providers
FNDA:0,_RNvMNtNtCsiXsDAYXhF23_9kona_host7interop3cfgNtB2_11InteropHost19read_rollup_configs
FNDA:0,_RNvMNtNtCsiXsDAYXhF23_9kona_host7interop3cfgNtB2_11InteropHost22create_key_value_store
FNDA:0,_RNvMNtNtCsiXsDAYXhF23_9kona_host7interop3cfgNtB2_11InteropHost5start
FNDA:0,_RNvMs0_NtNtCsiXsDAYXhF23_9kona_host7interop3cfgNtB5_16InteropProviders2l2
FNDA:1,_RNvNtNtNtCsiXsDAYXhF23_9kona_host7interop3cfg5testss_27test_parse_interop_host_cli
FNDA:1,_RNvNtNtNtCsiXsDAYXhF23_9kona_host7interop3cfg5testss_28test_parse_interop_hex_bytes
FNF:27
FNH:3
DA:35,0
DA:40,0
DA:43,0
DA:46,0
DA:56,2
DA:86,0
DA:90,0
DA:94,0
DA:125,0
DA:126,0
DA:127,0
DA:128,0
DA:129,0
DA:130,0
DA:131,0
DA:133,0
DA:135,0
DA:138,0
DA:139,0
DA:140,0
DA:141,0
DA:142,0
DA:143,0
DA:144,0
DA:145,0
DA:146,0
DA:148,0
DA:149,0
DA:150,0
DA:151,0
DA:152,0
DA:153,0
DA:154,0
DA:155,0
DA:156,0
DA:157,0
DA:158,0
DA:160,0
DA:161,0
DA:162,0
DA:163,0
DA:164,0
DA:165,0
DA:166,0
DA:167,0
DA:168,0
DA:169,0
DA:170,0
DA:171,0
DA:172,0
DA:173,0
DA:174,0
DA:175,0
DA:176,0
DA:177,0
DA:178,0
DA:181,0
DA:182,0
DA:186,0
DA:187,0
DA:188,0
DA:190,0
DA:191,0
DA:192,0
DA:193,0
DA:194,0
DA:196,0
DA:199,0
DA:200,0
DA:203,0
DA:204,0
DA:205,0
DA:206,0
DA:207,0
DA:208,0
DA:212,0
DA:213,0
DA:214,0
DA:215,0
DA:216,0
DA:217,0
DA:219,0
DA:221,0
DA:224,0
DA:226,0
DA:227,0
DA:228,0
DA:229,0
DA:232,0
DA:233,0
DA:235,0
DA:236,0
DA:237,0
DA:238,0
DA:240,0
DA:241,0
DA:242,0
DA:245,0
DA:246,0
DA:249,0
DA:250,0
DA:251,0
DA:254,0
DA:255,0
DA:256,0
DA:257,0
DA:259,0
DA:262,0
DA:263,0
DA:264,0
DA:265,0
DA:266,0
DA:267,0
DA:268,0
DA:269,0
DA:270,0
DA:273,0
DA:274,0
DA:295,0
DA:296,0
DA:297,0
DA:306,1
DA:307,1
DA:308,1
DA:309,1
DA:310,1
DA:311,1
DA:312,1
DA:313,1
DA:314,1
DA:315,1
DA:316,1
DA:317,1
DA:318,1
DA:319,1
DA:320,1
DA:321,1
DA:322,1
DA:323,1
DA:324,1
DA:325,1
DA:326,1
DA:327,1
DA:328,1
DA:329,1
DA:330,1
DA:331,1
DA:334,1
DA:335,1
DA:336,1
DA:337,1
DA:338,1
DA:339,1
DA:340,1
DA:341,1
DA:342,1
DA:343,1
DA:344,1
DA:345,1
DA:346,1
DA:347,1
DA:348,1
DA:349,1
DA:350,1
DA:351,1
DA:352,1
DA:353,1
DA:354,1
DA:355,1
DA:356,1
DA:357,1
DA:358,1
DA:359,1
BRF:0
BRH:0
LF:186
LH:53
end_of_record
SF:/Users/andreasbigger/kona/bin/host/src/interop/handler.rs
FN:490,_RNCNCNCNvXs1_NtNtCsiXsDAYXhF23_9kona_host7interop7handlerNtBb_18InteropHintHandlerNtNtNtBf_7backend6online11HintHandler10fetch_hint0sa_00Bf_
FN:526,_RNCNCNCNvXs1_NtNtCsiXsDAYXhF23_9kona_host7interop7handlerNtBb_18InteropHintHandlerNtNtNtBf_7backend6online11HintHandler10fetch_hint0sa_0s_0Bf_
FN:78,_RNCNCNvXs1_NtNtCsiXsDAYXhF23_9kona_host7interop7handlerNtB9_18InteropHintHandlerNtNtNtBd_7backend6online11HintHandler10fetch_hint00Bd_
FN:166,_RNCNCNvXs1_NtNtCsiXsDAYXhF23_9kona_host7interop7handlerNtB9_18InteropHintHandlerNtNtNtBd_7backend6online11HintHandler10fetch_hint0s0_0Bd_
FN:167,_RNCNCNvXs1_NtNtCsiXsDAYXhF23_9kona_host7interop7handlerNtB9_18InteropHintHandlerNtNtNtBd_7backend6online11HintHandler10fetch_hint0s1_0Bd_
FN:218,_RNCNCNvXs1_NtNtCsiXsDAYXhF23_9kona_host7interop7handlerNtB9_18InteropHintHandlerNtNtNtBd_7backend6online11HintHandler10fetch_hint0s2_0Bd_
FN:231,_RNCNCNvXs1_NtNtCsiXsDAYXhF23_9kona_host7interop7handlerNtB9_18InteropHintHandlerNtNtNtBd_7backend6online11HintHandler10fetch_hint0s3_0Bd_
FN:284,_RNCNCNvXs1_NtNtCsiXsDAYXhF23_9kona_host7interop7handlerNtB9_18InteropHintHandlerNtNtNtBd_7backend6online11HintHandler10fetch_hint0s4_0Bd_
FN:328,_RNCNCNvXs1_NtNtCsiXsDAYXhF23_9kona_host7interop7handlerNtB9_18InteropHintHandlerNtNtNtBd_7backend6online11HintHandler10fetch_hint0s5_0Bd_
FN:362,_RNCNCNvXs1_NtNtCsiXsDAYXhF23_9kona_host7interop7handlerNtB9_18InteropHintHandlerNtNtNtBd_7backend6online11HintHandler10fetch_hint0s6_0Bd_
FN:386,_RNCNCNvXs1_NtNtCsiXsDAYXhF23_9kona_host7interop7handlerNtB9_18InteropHintHandlerNtNtNtBd_7backend6online11HintHandler10fetch_hint0s7_0Bd_
FN:395,_RNCNCNvXs1_NtNtCsiXsDAYXhF23_9kona_host7interop7handlerNtB9_18InteropHintHandlerNtNtNtBd_7backend6online11HintHandler10fetch_hint0s8_0Bd_
FN:425,_RNCNCNvXs1_NtNtCsiXsDAYXhF23_9kona_host7interop7handlerNtB9_18InteropHintHandlerNtNtNtBd_7backend6online11HintHandler10fetch_hint0s9_0Bd_
FN:111,_RNCNCNvXs1_NtNtCsiXsDAYXhF23_9kona_host7interop7handlerNtB9_18InteropHintHandlerNtNtNtBd_7backend6online11HintHandler10fetch_hint0s_0Bd_
FN:471,_RNCNCNvXs1_NtNtCsiXsDAYXhF23_9kona_host7interop7handlerNtB9_18InteropHintHandlerNtNtNtBd_7backend6online11HintHandler10fetch_hint0sa_0Bd_
FN:552,_RNCNCNvXs1_NtNtCsiXsDAYXhF23_9kona_host7interop7handlerNtB9_18InteropHintHandlerNtNtNtBd_7backend6online11HintHandler10fetch_hint0sb_0Bd_
FN:54,_RNCNvXs1_NtNtCsiXsDAYXhF23_9kona_host7interop7handlerNtB7_18InteropHintHandlerNtNtNtBb_7backend6online11HintHandler10fetch_hint0Bb_
FN:568,_RNvXs1_NtNtCsiXsDAYXhF23_9kona_host7interop7handlerNtB5_18InteropHintHandlerNtNtNtB9_7backend6online11HintHandler10fetch_hint
FNDA:0,_RNCNCNCNvXs1_NtNtCsiXsDAYXhF23_9kona_host7interop7handlerNtBb_18InteropHintHandlerNtNtNtBf_7backend6online11HintHandler10fetch_hint0sa_00Bf_
FNDA:0,_RNCNCNCNvXs1_NtNtCsiXsDAYXhF23_9kona_host7interop7handlerNtBb_18InteropHintHandlerNtNtNtBf_7backend6online11HintHandler10fetch_hint0sa_0s_0Bf_
FNDA:0,_RNCNCNvXs1_NtNtCsiXsDAYXhF23_9kona_host7interop7handlerNtB9_18InteropHintHandlerNtNtNtBd_7backend6online11HintHandler10fetch_hint00Bd_
FNDA:0,_RNCNCNvXs1_NtNtCsiXsDAYXhF23_9kona_host7interop7handlerNtB9_18InteropHintHandlerNtNtNtBd_7backend6online11HintHandler10fetch_hint0s0_0Bd_
FNDA:0,_RNCNCNvXs1_NtNtCsiXsDAYXhF23_9kona_host7interop7handlerNtB9_18InteropHintHandlerNtNtNtBd_7backend6online11HintHandler10fetch_hint0s1_0Bd_
FNDA:0,_RNCNCNvXs1_NtNtCsiXsDAYXhF23_9kona_host7interop7handlerNtB9_18InteropHintHandlerNtNtNtBd_7backend6online11HintHandler10fetch_hint0s2_0Bd_
FNDA:0,_RNCNCNvXs1_NtNtCsiXsDAYXhF23_9kona_host7interop7handlerNtB9_18InteropHintHandlerNtNtNtBd_7backend6online11HintHandler10fetch_hint0s3_0Bd_
FNDA:0,_RNCNCNvXs1_NtNtCsiXsDAYXhF23_9kona_host7interop7handlerNtB9_18InteropHintHandlerNtNtNtBd_7backend6online11HintHandler10fetch_hint0s4_0Bd_
FNDA:0,_RNCNCNvXs1_NtNtCsiXsDAYXhF23_9kona_host7interop7handlerNtB9_18InteropHintHandlerNtNtNtBd_7backend6online11HintHandler10fetch_hint0s5_0Bd_
FNDA:0,_RNCNCNvXs1_NtNtCsiXsDAYXhF23_9kona_host7interop7handlerNtB9_18InteropHintHandlerNtNtNtBd_7backend6online11HintHandler10fetch_hint0s6_0Bd_
FNDA:0,_RNCNCNvXs1_NtNtCsiXsDAYXhF23_9kona_host7interop7handlerNtB9_18InteropHintHandlerNtNtNtBd_7backend6online11HintHandler10fetch_hint0s7_0Bd_
FNDA:0,_RNCNCNvXs1_NtNtCsiXsDAYXhF23_9kona_host7interop7handlerNtB9_18InteropHintHandlerNtNtNtBd_7backend6online11HintHandler10fetch_hint0s8_0Bd_
FNDA:0,_RNCNCNvXs1_NtNtCsiXsDAYXhF23_9kona_host7interop7handlerNtB9_18InteropHintHandlerNtNtNtBd_7backend6online11HintHandler10fetch_hint0s9_0Bd_
FNDA:0,_RNCNCNvXs1_NtNtCsiXsDAYXhF23_9kona_host7interop7handlerNtB9_18InteropHintHandlerNtNtNtBd_7backend6online11HintHandler10fetch_hint0s_0Bd_
FNDA:0,_RNCNCNvXs1_NtNtCsiXsDAYXhF23_9kona_host7interop7handlerNtB9_18InteropHintHandlerNtNtNtBd_7backend6online11HintHandler10fetch_hint0sa_0Bd_
FNDA:0,_RNCNCNvXs1_NtNtCsiXsDAYXhF23_9kona_host7interop7handlerNtB9_18InteropHintHandlerNtNtNtBd_7backend6online11HintHandler10fetch_hint0sb_0Bd_
FNDA:0,_RNCNvXs1_NtNtCsiXsDAYXhF23_9kona_host7interop7handlerNtB7_18InteropHintHandlerNtNtNtBb_7backend6online11HintHandler10fetch_hint0Bb_
FNDA:0,_RNvXs1_NtNtCsiXsDAYXhF23_9kona_host7interop7handlerNtB5_18InteropHintHandlerNtNtNtB9_7backend6online11HintHandler10fetch_hint
FNF:18
FNH:0
DA:54,0
DA:55,0
DA:57,0
DA:59,0
DA:60,0
DA:61,0
DA:63,0
DA:64,0
DA:67,0
DA:69,0
DA:70,0
DA:71,0
DA:72,0
DA:73,0
DA:74,0
DA:75,0
DA:76,0
DA:77,0
DA:78,0
DA:79,0
DA:80,0
DA:81,0
DA:84,0
DA:86,0
DA:87,0
DA:88,0
DA:90,0
DA:93,0
DA:95,0
DA:96,0
DA:97,0
DA:99,0
DA:100,0
DA:101,0
DA:102,0
DA:103,0
DA:104,0
DA:107,0
DA:108,0
DA:109,0
DA:110,0
DA:111,0
DA:112,0
DA:113,0
DA:114,0
DA:115,0
DA:118,0
DA:121,0
DA:122,0
DA:123,0
DA:124,0
DA:129,0
DA:130,0
DA:131,0
DA:132,0
DA:133,0
DA:134,0
DA:135,0
DA:136,0
DA:137,0
DA:138,0
DA:139,0
DA:140,0
DA:141,0
DA:142,0
DA:148,0
DA:149,0
DA:150,0
DA:151,0
DA:152,0
DA:153,0
DA:154,0
DA:155,0
DA:158,0
DA:160,0
DA:161,0
DA:162,0
DA:163,0
DA:164,0
DA:165,0
DA:166,0
DA:167,0
DA:168,0
DA:169,0
DA:170,0
DA:171,0
DA:172,0
DA:173,0
DA:175,0
DA:176,0
DA:177,0
DA:178,0
DA:179,0
DA:180,0
DA:183,0
DA:185,0
DA:187,0
DA:188,0
DA:189,0
DA:191,0
DA:192,0
DA:193,0
DA:194,0
DA:195,0
DA:198,0
DA:200,0
DA:201,0
DA:202,0
DA:205,0
DA:206,0
DA:207,0
DA:208,0
DA:209,0
DA:215,0
DA:216,0
DA:217,0
DA:218,0
DA:219,0
DA:220,0
DA:221,0
DA:222,0
DA:223,0
DA:224,0
DA:227,0
DA:228,0
DA:229,0
DA:230,0
DA:231,0
DA:232,0
DA:235,0
DA:236,0
DA:237,0
DA:238,0
DA:240,0
DA:241,0
DA:242,0
DA:243,0
DA:244,0
DA:245,0
DA:246,0
DA:247,0
DA:248,0
DA:249,0
DA:252,0
DA:253,0
DA:254,0
DA:255,0
DA:256,0
DA:259,0
DA:261,0
DA:262,0
DA:264,0
DA:265,0
DA:267,0
DA:268,0
DA:271,0
DA:273,0
DA:274,0
DA:276,0
DA:277,0
DA:278,0
DA:279,0
DA:280,0
DA:281,0
DA:282,0
DA:283,0
DA:284,0
DA:285,0
DA:286,0
DA:287,0
DA:290,0
DA:292,0
DA:293,0
DA:295,0
DA:296,0
DA:297,0
DA:298,0
DA:299,0
DA:301,0
DA:303,0
DA:304,0
DA:305,0
DA:307,0
DA:309,0
DA:310,0
DA:311,0
DA:314,0
DA:315,0
DA:316,0
DA:317,0
DA:318,0
DA:322,0
DA:323,0
DA:324,0
DA:325,0
DA:326,0
DA:327,0
DA:328,0
DA:331,0
DA:332,0
DA:335,0
DA:337,0
DA:338,0
DA:341,0
DA:342,0
DA:344,0
DA:345,0
DA:348,0
DA:350,0
DA:351,0
DA:352,0
DA:354,0
DA:355,0
DA:356,0
DA:357,0
DA:358,0
DA:361,0
DA:362,0
DA:363,0
DA:364,0
DA:365,0
DA:366,0
DA:367,0
DA:370,0
DA:372,0
DA:373,0
DA:374,0
DA:375,0
DA:377,0
DA:378,0
DA:379,0
DA:380,0
DA:381,0
DA:383,0
DA:386,0
DA:387,0
DA:388,0
DA:389,0
DA:390,0
DA:391,0
DA:394,0
DA:395,0
DA:396,0
DA:397,0
DA:398,0
DA:399,0
DA:400,0
DA:403,0
DA:405,0
DA:406,0
DA:407,0
DA:412,0
DA:413,0
DA:416,0
DA:418,0
DA:419,0
DA:421,0
DA:422,0
DA:423,0
DA:424,0
DA:425,0
DA:426,0
DA:427,0
DA:428,0
DA:429,0
DA:430,0
DA:433,0
DA:434,0
DA:435,0
DA:436,0
DA:437,0
DA:438,0
DA:439,0
DA:440,0
DA:444,0
DA:445,0
DA:447,0
DA:448,0
DA:449,0
DA:451,0
DA:452,0
DA:456,0
DA:457,0
DA:458,0
DA:459,0
DA:460,0
DA:461,0
DA:462,0
DA:463,0
DA:464,0
DA:465,0
DA:466,0
DA:467,0
DA:468,0
DA:469,0
DA:470,0
DA:471,0
DA:472,0
DA:473,0
DA:474,0
DA:475,0
DA:476,0
DA:477,0
DA:478,0
DA:479,0
DA:480,0
DA:481,0
DA:482,0
DA:483,0
DA:484,0
DA:485,0
DA:486,0
DA:488,0
DA:489,0
DA:490,0
DA:491,0
DA:493,0
DA:494,0
DA:495,0
DA:496,0
DA:497,0
DA:498,0
DA:499,0
DA:500,0
DA:502,0
DA:503,0
DA:504,0
DA:505,0
DA:506,0
DA:507,0
DA:508,0
DA:509,0
DA:510,0
DA:511,0
DA:512,0
DA:513,0
DA:514,0
DA:515,0
DA:516,0
DA:517,0
DA:518,0
DA:519,0
DA:520,0
DA:521,0
DA:522,0
DA:524,0
DA:525,0
DA:526,0
DA:527,0
DA:528,0
DA:531,0
DA:532,0
DA:535,0
DA:536,0
DA:537,0
DA:538,0
DA:539,0
DA:540,0
DA:541,0
DA:542,0
DA:545,0
DA:548,0
DA:549,0
DA:550,0
DA:551,0
DA:552,0
DA:553,0
DA:554,0
DA:557,0
DA:560,0
DA:562,0
DA:567,0
DA:568,0
BRF:0
BRH:0
LF:397
LH:0
end_of_record
SF:/Users/andreasbigger/kona/bin/host/src/interop/local_kv.rs
FN:22,_RNvMNtNtCsiXsDAYXhF23_9kona_host7interop8local_kvNtB2_18InteropLocalInputs3new
FN:28,_RNvXs_NtNtCsiXsDAYXhF23_9kona_host7interop8local_kvNtB4_18InteropLocalInputsNtNtB8_2kv13KeyValueStore3get
FN:45,_RNvXs_NtNtCsiXsDAYXhF23_9kona_host7interop8local_kvNtB4_18InteropLocalInputsNtNtB8_2kv13KeyValueStore3set
FNDA:0,_RNvMNtNtCsiXsDAYXhF23_9kona_host7interop8local_kvNtB2_18InteropLocalInputs3new
FNDA:0,_RNvXs_NtNtCsiXsDAYXhF23_9kona_host7interop8local_kvNtB4_18InteropLocalInputsNtNtB8_2kv13KeyValueStore3get
FNDA:0,_RNvXs_NtNtCsiXsDAYXhF23_9kona_host7interop8local_kvNtB4_18InteropLocalInputsNtNtB8_2kv13KeyValueStore3set
FNF:3
FNH:0
DA:22,0
DA:23,0
DA:24,0
DA:28,0
DA:29,0
DA:30,0
DA:31,0
DA:33,0
DA:35,0
DA:36,0
DA:38,0
DA:39,0
DA:41,0
DA:43,0
DA:45,0
DA:46,0
BRF:0
BRH:0
LF:16
LH:0
end_of_record
SF:/Users/andreasbigger/kona/bin/host/src/kv/disk.rs
FN:21,_RNCNvMNtNtCsiXsDAYXhF23_9kona_host2kv4diskNtB4_17DiskKeyValueStore3new0B8_
FN:41,_RNCNvXs_NtNtCsiXsDAYXhF23_9kona_host2kv4diskNtB6_17DiskKeyValueStoreNtB8_13KeyValueStore3set0Ba_
FN:27,_RNvMNtNtCsiXsDAYXhF23_9kona_host2kv4diskNtB2_17DiskKeyValueStore14get_db_options
FN:19,_RNvMNtNtCsiXsDAYXhF23_9kona_host2kv4diskNtB2_17DiskKeyValueStore3new
FN:40,_RNvXs_NtNtCsiXsDAYXhF23_9kona_host2kv4diskNtB4_17DiskKeyValueStoreNtB6_13KeyValueStore3set
FN:90,_RNCNCNvNtNtNtCsiXsDAYXhF23_9kona_host2kv4disk4tests_25convert_disk_kv_to_mem_kvs_00Bb_
FN:36,_RNvXs_NtNtCsiXsDAYXhF23_9kona_host2kv4diskNtB4_17DiskKeyValueStoreNtB6_13KeyValueStore3get
FN:46,_RNvXs0_NtNtCsiXsDAYXhF23_9kona_host2kv4diskNtB5_17DiskKeyValueStoreNtNtNtCs8dmkrYGpicx_4core3ops4drop4Drop4drop
FN:61,_RNCNvXs1_NtNtCsiXsDAYXhF23_9kona_host2kv4diskNtNtB9_3mem19MemoryKeyValueStoreINtNtCs8dmkrYGpicx_4core7convert7TryFromNtB7_17DiskKeyValueStoreE8try_from0Bb_
FN:54,_RNvXs1_NtNtCsiXsDAYXhF23_9kona_host2kv4diskNtNtB7_3mem19MemoryKeyValueStoreINtNtCs8dmkrYGpicx_4core7convert7TryFromNtB5_17DiskKeyValueStoreE8try_from
FNDA:0,_RNCNvMNtNtCsiXsDAYXhF23_9kona_host2kv4diskNtB4_17DiskKeyValueStore3new0B8_
FNDA:0,_RNCNvXs_NtNtCsiXsDAYXhF23_9kona_host2kv4diskNtB6_17DiskKeyValueStoreNtB8_13KeyValueStore3set0Ba_
FNDA:32,_RNvMNtNtCsiXsDAYXhF23_9kona_host2kv4diskNtB2_17DiskKeyValueStore14get_db_options
FNDA:16,_RNvMNtNtCsiXsDAYXhF23_9kona_host2kv4diskNtB2_17DiskKeyValueStore3new
FNDA:821,_RNvXs_NtNtCsiXsDAYXhF23_9kona_host2kv4diskNtB4_17DiskKeyValueStoreNtB6_13KeyValueStore3set
FNDA:821,_RNCNCNvNtNtNtCsiXsDAYXhF23_9kona_host2kv4disk4tests_25convert_disk_kv_to_mem_kvs_00Bb_
FNDA:0,_RNvXs_NtNtCsiXsDAYXhF23_9kona_host2kv4diskNtB4_17DiskKeyValueStoreNtB6_13KeyValueStore3get
FNDA:16,_RNvXs0_NtNtCsiXsDAYXhF23_9kona_host2kv4diskNtB5_17DiskKeyValueStoreNtNtNtCs8dmkrYGpicx_4core3ops4drop4Drop4drop
FNDA:0,_RNCNvXs1_NtNtCsiXsDAYXhF23_9kona_host2kv4diskNtNtB9_3mem19MemoryKeyValueStoreINtNtCs8dmkrYGpicx_4core7convert7TryFromNtB7_17DiskKeyValueStoreE8try_from0Bb_
FNDA:16,_RNvXs1_NtNtCsiXsDAYXhF23_9kona_host2kv4diskNtNtB7_3mem19MemoryKeyValueStoreINtNtCs8dmkrYGpicx_4core7convert7TryFromNtB5_17DiskKeyValueStoreE8try_from
FNF:10
FNH:6
DA:19,16
DA:20,16
DA:21,16
DA:22,16
DA:23,16
DA:24,16
DA:27,32
DA:28,32
DA:29,32
DA:30,32
DA:31,32
DA:32,32
DA:36,0
DA:37,0
DA:38,0
DA:40,821
DA:41,821
DA:42,821
DA:46,16
DA:47,16
DA:48,16
DA:54,16
DA:55,16
DA:56,16
DA:58,752452
DA:59,752436
DA:60,752436
DA:61,752436
DA:62,752436
DA:63,0
DA:66,16
DA:67,16
DA:90,821
DA:91,821
DA:92,821
BRF:0
BRH:0
LF:38
LH:31
end_of_record
SF:/Users/andreasbigger/kona/bin/host/src/kv/mem.rs
FN:18,_RNvMNtNtCsiXsDAYXhF23_9kona_host2kv3memNtB2_19MemoryKeyValueStore3new
FN:24,_RNvXs_NtNtCsiXsDAYXhF23_9kona_host2kv3memNtB4_19MemoryKeyValueStoreNtB6_13KeyValueStore3get
FN:28,_RNvXs_NtNtCsiXsDAYXhF23_9kona_host2kv3memNtB4_19MemoryKeyValueStoreNtB6_13KeyValueStore3set
FNDA:16,_RNvMNtNtCsiXsDAYXhF23_9kona_host2kv3memNtB2_19MemoryKeyValueStore3new
FNDA:821,_RNvXs_NtNtCsiXsDAYXhF23_9kona_host2kv3memNtB4_19MemoryKeyValueStoreNtB6_13KeyValueStore3get
FNDA:752436,_RNvXs_NtNtCsiXsDAYXhF23_9kona_host2kv3memNtB4_19MemoryKeyValueStoreNtB6_13KeyValueStore3set
FNF:3
FNH:3
DA:18,16
DA:19,16
DA:20,16
DA:24,821
DA:25,821
DA:26,821
DA:28,752436
DA:29,752436
DA:30,752436
DA:31,752436
BRF:0
BRH:0
LF:10
LH:10
end_of_record
SF:/Users/andreasbigger/kona/bin/host/src/kv/split.rs
FN:27,_RNvMNtNtCsiXsDAYXhF23_9kona_host2kv5splitINtB2_18SplitKeyValueStoreppE3newB6_
FN:37,_RNvXININtNtCsiXsDAYXhF23_9kona_host2kv5splits_0ppEINtB5_18SplitKeyValueStoreppENtB7_13KeyValueStore3getB9_
FN:44,_RNvXININtNtCsiXsDAYXhF23_9kona_host2kv5splits_0ppEINtB5_18SplitKeyValueStoreppENtB7_13KeyValueStore3setB9_
FNDA:0,_RNvMNtNtCsiXsDAYXhF23_9kona_host2kv5splitINtB2_18SplitKeyValueStoreppE3newB6_
FNDA:0,_RNvXININtNtCsiXsDAYXhF23_9kona_host2kv5splits_0ppEINtB5_18SplitKeyValueStoreppENtB7_13KeyValueStore3getB9_
FNDA:0,_RNvXININtNtCsiXsDAYXhF23_9kona_host2kv5splits_0ppEINtB5_18SplitKeyValueStoreppENtB7_13KeyValueStore3setB9_
FNF:3
FNH:0
DA:27,0
DA:28,0
DA:29,0
DA:37,0
DA:38,0
DA:39,0
DA:40,0
DA:42,0
DA:44,0
DA:45,0
DA:46,0
BRF:0
BRH:0
LF:11
LH:0
end_of_record
SF:/Users/andreasbigger/kona/bin/host/src/server.rs
FN:84,_RNCNvMNtCsiXsDAYXhF23_9kona_host6serverINtB4_14PreimageServerpppE17start_hint_router0B6_
FN:66,_RNCNvMNtCsiXsDAYXhF23_9kona_host6serverINtB4_14PreimageServerpppE19start_oracle_server0B6_
FN:49,_RNCNvMNtCsiXsDAYXhF23_9kona_host6serverINtB4_14PreimageServerpppE5start0B6_
FN:84,_RNvMNtCsiXsDAYXhF23_9kona_host6serverINtB2_14PreimageServerpppE17start_hint_routerB4_
FN:63,_RNvMNtCsiXsDAYXhF23_9kona_host6serverINtB2_14PreimageServerpppE19start_oracle_serverB4_
FN:44,_RNvMNtCsiXsDAYXhF23_9kona_host6serverINtB2_14PreimageServerpppE3newB4_
FN:49,_RNvMNtCsiXsDAYXhF23_9kona_host6serverINtB2_14PreimageServerpppE5startB4_
FNDA:0,_RNCNvMNtCsiXsDAYXhF23_9kona_host6serverINtB4_14PreimageServerpppE17start_hint_router0B6_
FNDA:0,_RNCNvMNtCsiXsDAYXhF23_9kona_host6serverINtB4_14PreimageServerpppE19start_oracle_server0B6_
FNDA:0,_RNCNvMNtCsiXsDAYXhF23_9kona_host6serverINtB4_14PreimageServerpppE5start0B6_
FNDA:0,_RNvMNtCsiXsDAYXhF23_9kona_host6serverINtB2_14PreimageServerpppE17start_hint_routerB4_
FNDA:0,_RNvMNtCsiXsDAYXhF23_9kona_host6serverINtB2_14PreimageServerpppE19start_oracle_serverB4_
FNDA:0,_RNvMNtCsiXsDAYXhF23_9kona_host6serverINtB2_14PreimageServerpppE3newB4_
FNDA:0,_RNvMNtCsiXsDAYXhF23_9kona_host6serverINtB2_14PreimageServerpppE5startB4_
FNF:7
FNH:0
DA:44,0
DA:45,0
DA:46,0
DA:49,0
DA:50,0
DA:51,0
DA:52,0
DA:53,0
DA:54,0
DA:55,0
DA:56,0
DA:57,0
DA:59,0
DA:63,0
DA:64,0
DA:65,0
DA:66,0
DA:67,0
DA:71,0
DA:72,0
DA:73,0
DA:74,0
DA:75,0
DA:76,0
DA:80,0
DA:84,0
DA:85,0
DA:89,0
DA:90,0
DA:91,0
DA:92,0
DA:93,0
DA:94,0
DA:98,0
BRF:0
BRH:0
LF:37
LH:0
end_of_record
SF:/Users/andreasbigger/kona/bin/host/src/single/cfg.rs
FN:300,_RNvNtNtNtCsiXsDAYXhF23_9kona_host6single3cfg4tests_10test_flags
FN:34,_RNCNvXs3_NtNtCsiXsDAYXhF23_9kona_host6single3cfgNtB7_15SingleChainHostNtNtCsbIcgn47pbcF_12clap_builder6derive14FromArgMatches20from_arg_matches_mut0Bb_
FN:40,_RNCNvXs3_NtNtCsiXsDAYXhF23_9kona_host6single3cfgNtB7_15SingleChainHostNtNtCsbIcgn47pbcF_12clap_builder6derive14FromArgMatches20from_arg_matches_muts0_0Bb_
FN:43,_RNCNvXs3_NtNtCsiXsDAYXhF23_9kona_host6single3cfgNtB7_15SingleChainHostNtNtCsbIcgn47pbcF_12clap_builder6derive14FromArgMatches20from_arg_matches_muts1_0Bb_
FN:46,_RNCNvXs3_NtNtCsiXsDAYXhF23_9kona_host6single3cfgNtB7_15SingleChainHostNtNtCsbIcgn47pbcF_12clap_builder6derive14FromArgMatches20from_arg_matches_muts2_0Bb_
FN:85,_RNCNvXs3_NtNtCsiXsDAYXhF23_9kona_host6single3cfgNtB7_15SingleChainHostNtNtCsbIcgn47pbcF_12clap_builder6derive14FromArgMatches20from_arg_matches_muts3_0Bb_
FN:89,_RNCNvXs3_NtNtCsiXsDAYXhF23_9kona_host6single3cfgNtB7_15SingleChainHostNtNtCsbIcgn47pbcF_12clap_builder6derive14FromArgMatches20from_arg_matches_muts4_0Bb_
FN:112,_RNCNvXs3_NtNtCsiXsDAYXhF23_9kona_host6single3cfgNtB7_15SingleChainHostNtNtCsbIcgn47pbcF_12clap_builder6derive14FromArgMatches20from_arg_matches_muts5_0Bb_
FN:37,_RNCNvXs3_NtNtCsiXsDAYXhF23_9kona_host6single3cfgNtB7_15SingleChainHostNtNtCsbIcgn47pbcF_12clap_builder6derive14FromArgMatches20from_arg_matches_muts_0Bb_
FN:150,_RINvMNtNtCsiXsDAYXhF23_9kona_host6single3cfgNtB3_15SingleChainHost12start_serverpEB7_
FN:157,_RNCINvMNtNtCsiXsDAYXhF23_9kona_host6single3cfgNtB5_15SingleChainHost12start_serverpE0B9_
FN:161,_RNCNCINvMNtNtCsiXsDAYXhF23_9kona_host6single3cfgNtB7_15SingleChainHost12start_serverpE00Bb_
FN:181,_RNCNCINvMNtNtCsiXsDAYXhF23_9kona_host6single3cfgNtB7_15SingleChainHost12start_serverpE0s_0Bb_
FN:198,_RNCNvMNtNtCsiXsDAYXhF23_9kona_host6single3cfgNtB4_15SingleChainHost12start_native0B8_
FN:255,_RNCNvMNtNtCsiXsDAYXhF23_9kona_host6single3cfgNtB4_15SingleChainHost16create_providers0B8_
FN:224,_RNCNvMNtNtCsiXsDAYXhF23_9kona_host6single3cfgNtB4_15SingleChainHost18read_rollup_config0B8_
FN:137,_RNCNvMNtNtCsiXsDAYXhF23_9kona_host6single3cfgNtB4_15SingleChainHost5start0B8_
FN:34,_RNCNvXs3_NtNtCsiXsDAYXhF23_9kona_host6single3cfgNtB7_15SingleChainHostNtNtCsbIcgn47pbcF_12clap_builder6derive14FromArgMatches27update_from_arg_matches_mut0Bb_
FN:40,_RNCNvXs3_NtNtCsiXsDAYXhF23_9kona_host6single3cfgNtB7_15SingleChainHostNtNtCsbIcgn47pbcF_12clap_builder6derive14FromArgMatches27update_from_arg_matches_muts0_0Bb_
FN:43,_RNCNvXs3_NtNtCsiXsDAYXhF23_9kona_host6single3cfgNtB7_15SingleChainHostNtNtCsbIcgn47pbcF_12clap_builder6derive14FromArgMatches27update_from_arg_matches_muts1_0Bb_
FN:46,_RNCNvXs3_NtNtCsiXsDAYXhF23_9kona_host6single3cfgNtB7_15SingleChainHostNtNtCsbIcgn47pbcF_12clap_builder6derive14FromArgMatches27update_from_arg_matches_muts2_0Bb_
FN:85,_RNCNvXs3_NtNtCsiXsDAYXhF23_9kona_host6single3cfgNtB7_15SingleChainHostNtNtCsbIcgn47pbcF_12clap_builder6derive14FromArgMatches27update_from_arg_matches_muts3_0Bb_
FN:89,_RNCNvXs3_NtNtCsiXsDAYXhF23_9kona_host6single3cfgNtB7_15SingleChainHostNtNtCsbIcgn47pbcF_12clap_builder6derive14FromArgMatches27update_from_arg_matches_muts4_0Bb_
FN:112,_RNCNvXs3_NtNtCsiXsDAYXhF23_9kona_host6single3cfgNtB7_15SingleChainHostNtNtCsbIcgn47pbcF_12clap_builder6derive14FromArgMatches27update_from_arg_matches_muts5_0Bb_
FN:37,_RNCNvXs3_NtNtCsiXsDAYXhF23_9kona_host6single3cfgNtB7_15SingleChainHostNtNtCsbIcgn47pbcF_12clap_builder6derive14FromArgMatches27update_from_arg_matches_muts_0Bb_
FN:215,_RNvMNtNtCsiXsDAYXhF23_9kona_host6single3cfgNtB2_15SingleChainHost10is_offline
FN:198,_RNvMNtNtCsiXsDAYXhF23_9kona_host6single3cfgNtB2_15SingleChainHost12start_native
FN:255,_RNvMNtNtCsiXsDAYXhF23_9kona_host6single3cfgNtB2_15SingleChainHost16create_providers
FN:223,_RNvMNtNtCsiXsDAYXhF23_9kona_host6single3cfgNtB2_15SingleChainHost18read_rollup_config
FN:238,_RNvMNtNtCsiXsDAYXhF23_9kona_host6single3cfgNtB2_15SingleChainHost22create_key_value_store
FN:137,_RNvMNtNtCsiXsDAYXhF23_9kona_host6single3cfgNtB2_15SingleChainHost5start
FNDA:1,_RNvNtNtNtCsiXsDAYXhF23_9kona_host6single3cfg4tests_10test_flags
FNDA:0,_RNCNvXs3_NtNtCsiXsDAYXhF23_9kona_host6single3cfgNtB7_15SingleChainHostNtNtCsbIcgn47pbcF_12clap_builder6derive14FromArgMatches20from_arg_matches_mut0Bb_
FNDA:0,_RNCNvXs3_NtNtCsiXsDAYXhF23_9kona_host6single3cfgNtB7_15SingleChainHostNtNtCsbIcgn47pbcF_12clap_builder6derive14FromArgMatches20from_arg_matches_muts0_0Bb_
FNDA:0,_RNCNvXs3_NtNtCsiXsDAYXhF23_9kona_host6single3cfgNtB7_15SingleChainHostNtNtCsbIcgn47pbcF_12clap_builder6derive14FromArgMatches20from_arg_matches_muts1_0Bb_
FNDA:0,_RNCNvXs3_NtNtCsiXsDAYXhF23_9kona_host6single3cfgNtB7_15SingleChainHostNtNtCsbIcgn47pbcF_12clap_builder6derive14FromArgMatches20from_arg_matches_muts2_0Bb_
FNDA:0,_RNCNvXs3_NtNtCsiXsDAYXhF23_9kona_host6single3cfgNtB7_15SingleChainHostNtNtCsbIcgn47pbcF_12clap_builder6derive14FromArgMatches20from_arg_matches_muts3_0Bb_
FNDA:0,_RNCNvXs3_NtNtCsiXsDAYXhF23_9kona_host6single3cfgNtB7_15SingleChainHostNtNtCsbIcgn47pbcF_12clap_builder6derive14FromArgMatches20from_arg_matches_muts4_0Bb_
FNDA:0,_RNCNvXs3_NtNtCsiXsDAYXhF23_9kona_host6single3cfgNtB7_15SingleChainHostNtNtCsbIcgn47pbcF_12clap_builder6derive14FromArgMatches20from_arg_matches_muts5_0Bb_
FNDA:0,_RNCNvXs3_NtNtCsiXsDAYXhF23_9kona_host6single3cfgNtB7_15SingleChainHostNtNtCsbIcgn47pbcF_12clap_builder6derive14FromArgMatches20from_arg_matches_muts_0Bb_
FNDA:0,_RINvMNtNtCsiXsDAYXhF23_9kona_host6single3cfgNtB3_15SingleChainHost12start_serverpEB7_
FNDA:0,_RNCINvMNtNtCsiXsDAYXhF23_9kona_host6single3cfgNtB5_15SingleChainHost12start_serverpE0B9_
FNDA:0,_RNCNCINvMNtNtCsiXsDAYXhF23_9kona_host6single3cfgNtB7_15SingleChainHost12start_serverpE00Bb_
FNDA:0,_RNCNCINvMNtNtCsiXsDAYXhF23_9kona_host6single3cfgNtB7_15SingleChainHost12start_serverpE0s_0Bb_
FNDA:0,_RNCNvMNtNtCsiXsDAYXhF23_9kona_host6single3cfgNtB4_15SingleChainHost12start_native0B8_
FNDA:0,_RNCNvMNtNtCsiXsDAYXhF23_9kona_host6single3cfgNtB4_15SingleChainHost16create_providers0B8_
FNDA:0,_RNCNvMNtNtCsiXsDAYXhF23_9kona_host6single3cfgNtB4_15SingleChainHost18read_rollup_config0B8_
FNDA:0,_RNCNvMNtNtCsiXsDAYXhF23_9kona_host6single3cfgNtB4_15SingleChainHost5start0B8_
FNDA:0,_RNCNvXs3_NtNtCsiXsDAYXhF23_9kona_host6single3cfgNtB7_15SingleChainHostNtNtCsbIcgn47pbcF_12clap_builder6derive14FromArgMatches27update_from_arg_matches_mut0Bb_
FNDA:0,_RNCNvXs3_NtNtCsiXsDAYXhF23_9kona_host6single3cfgNtB7_15SingleChainHostNtNtCsbIcgn47pbcF_12clap_builder6derive14FromArgMatches27update_from_arg_matches_muts0_0Bb_
FNDA:0,_RNCNvXs3_NtNtCsiXsDAYXhF23_9kona_host6single3cfgNtB7_15SingleChainHostNtNtCsbIcgn47pbcF_12clap_builder6derive14FromArgMatches27update_from_arg_matches_muts1_0Bb_
FNDA:0,_RNCNvXs3_NtNtCsiXsDAYXhF23_9kona_host6single3cfgNtB7_15SingleChainHostNtNtCsbIcgn47pbcF_12clap_builder6derive14FromArgMatches27update_from_arg_matches_muts2_0Bb_
FNDA:0,_RNCNvXs3_NtNtCsiXsDAYXhF23_9kona_host6single3cfgNtB7_15SingleChainHostNtNtCsbIcgn47pbcF_12clap_builder6derive14FromArgMatches27update_from_arg_matches_muts3_0Bb_
FNDA:0,_RNCNvXs3_NtNtCsiXsDAYXhF23_9kona_host6single3cfgNtB7_15SingleChainHostNtNtCsbIcgn47pbcF_12clap_builder6derive14FromArgMatches27update_from_arg_matches_muts4_0Bb_
FNDA:0,_RNCNvXs3_NtNtCsiXsDAYXhF23_9kona_host6single3cfgNtB7_15SingleChainHostNtNtCsbIcgn47pbcF_12clap_builder6derive14FromArgMatches27update_from_arg_matches_muts5_0Bb_
FNDA:0,_RNCNvXs3_NtNtCsiXsDAYXhF23_9kona_host6single3cfgNtB7_15SingleChainHostNtNtCsbIcgn47pbcF_12clap_builder6derive14FromArgMatches27update_from_arg_matches_muts_0Bb_
FNDA:0,_RNvMNtNtCsiXsDAYXhF23_9kona_host6single3cfgNtB2_15SingleChainHost10is_offline
FNDA:0,_RNvMNtNtCsiXsDAYXhF23_9kona_host6single3cfgNtB2_15SingleChainHost12start_native
FNDA:0,_RNvMNtNtCsiXsDAYXhF23_9kona_host6single3cfgNtB2_15SingleChainHost16create_providers
FNDA:0,_RNvMNtNtCsiXsDAYXhF23_9kona_host6single3cfgNtB2_15SingleChainHost18read_rollup_config
FNDA:0,_RNvMNtNtCsiXsDAYXhF23_9kona_host6single3cfgNtB2_15SingleChainHost22create_key_value_store
FNDA:0,_RNvMNtNtCsiXsDAYXhF23_9kona_host6single3cfgNtB2_15SingleChainHost5start
FNF:23
FNH:1
DA:34,0
DA:37,0
DA:40,0
DA:43,0
DA:46,0
DA:85,0
DA:89,0
DA:112,0
DA:137,0
DA:138,0
DA:139,0
DA:140,0
DA:141,0
DA:142,0
DA:143,0
DA:145,0
DA:147,0
DA:150,0
DA:151,0
DA:152,0
DA:153,0
DA:154,0
DA:155,0
DA:156,0
DA:157,0
DA:158,0
DA:160,0
DA:161,0
DA:162,0
DA:163,0
DA:164,0
DA:165,0
DA:166,0
DA:167,0
DA:168,0
DA:169,0
DA:170,0
DA:172,0
DA:173,0
DA:174,0
DA:175,0
DA:176,0
DA:177,0
DA:178,0
DA:179,0
DA:180,0
DA:181,0
DA:182,0
DA:183,0
DA:184,0
DA:185,0
DA:186,0
DA:187,0
DA:188,0
DA:189,0
DA:190,0
DA:193,0
DA:194,0
DA:198,0
DA:199,0
DA:200,0
DA:202,0
DA:203,0
DA:204,0
DA:205,0
DA:206,0
DA:208,0
DA:211,0
DA:212,0
DA:215,0
DA:216,0
DA:217,0
DA:218,0
DA:219,0
DA:220,0
DA:223,0
DA:224,0
DA:225,0
DA:226,0
DA:227,0
DA:228,0
DA:231,0
DA:234,0
DA:235,0
DA:238,0
DA:239,0
DA:241,0
DA:242,0
DA:243,0
DA:244,0
DA:246,0
DA:247,0
DA:248,0
DA:251,0
DA:252,0
DA:255,0
DA:256,0
DA:257,0
DA:258,0
DA:259,0
DA:261,0
DA:262,0
DA:263,0
DA:264,0
DA:266,0
DA:267,0
DA:268,0
DA:269,0
DA:270,0
DA:273,0
DA:274,0
DA:300,1
DA:301,1
DA:302,1
DA:303,1
DA:304,1
DA:305,1
DA:306,1
DA:307,1
DA:308,1
DA:309,1
DA:310,1
DA:311,1
DA:312,1
DA:313,1
DA:314,1
DA:315,1
DA:316,1
DA:317,1
DA:318,1
DA:319,1
DA:320,1
DA:321,1
DA:322,1
DA:323,1
DA:324,1
DA:325,1
DA:326,1
DA:327,1
DA:328,1
DA:329,1
DA:330,1
DA:331,1
DA:332,1
DA:333,1
DA:334,1
DA:335,1
DA:336,1
DA:337,1
DA:338,1
DA:339,1
DA:340,1
DA:341,1
DA:342,1
DA:343,1
DA:344,1
DA:345,1
DA:346,1
DA:347,1
DA:348,1
DA:349,1
DA:350,1
DA:351,1
DA:352,1
DA:353,1
DA:354,1
DA:355,1
DA:356,1
DA:357,1
DA:358,1
DA:359,1
DA:360,1
DA:362,16
DA:363,16
DA:364,16
DA:365,16
DA:366,16
DA:368,1
BRF:0
BRH:0
LF:188
LH:67
end_of_record
SF:/Users/andreasbigger/kona/bin/host/src/single/handler.rs
FN:62,_RNCNCNvXs1_NtNtCsiXsDAYXhF23_9kona_host6single7handlerNtB9_22SingleChainHintHandlerNtNtNtBd_7backend6online11HintHandler10fetch_hint00Bd_
FN:150,_RNCNCNvXs1_NtNtCsiXsDAYXhF23_9kona_host6single7handlerNtB9_22SingleChainHintHandlerNtNtNtBd_7backend6online11HintHandler10fetch_hint0s0_0Bd_
FN:151,_RNCNCNvXs1_NtNtCsiXsDAYXhF23_9kona_host6single7handlerNtB9_22SingleChainHintHandlerNtNtNtBd_7backend6online11HintHandler10fetch_hint0s1_0Bd_
FN:191,_RNCNCNvXs1_NtNtCsiXsDAYXhF23_9kona_host6single7handlerNtB9_22SingleChainHintHandlerNtNtNtBd_7backend6online11HintHandler10fetch_hint0s2_0Bd_
FN:256,_RNCNCNvXs1_NtNtCsiXsDAYXhF23_9kona_host6single7handlerNtB9_22SingleChainHintHandlerNtNtNtBd_7backend6online11HintHandler10fetch_hint0s3_0Bd_
FN:293,_RNCNCNvXs1_NtNtCsiXsDAYXhF23_9kona_host6single7handlerNtB9_22SingleChainHintHandlerNtNtNtBd_7backend6online11HintHandler10fetch_hint0s4_0Bd_
FN:316,_RNCNCNvXs1_NtNtCsiXsDAYXhF23_9kona_host6single7handlerNtB9_22SingleChainHintHandlerNtNtNtBd_7backend6online11HintHandler10fetch_hint0s5_0Bd_
FN:325,_RNCNCNvXs1_NtNtCsiXsDAYXhF23_9kona_host6single7handlerNtB9_22SingleChainHintHandlerNtNtNtBd_7backend6online11HintHandler10fetch_hint0s6_0Bd_
FN:95,_RNCNCNvXs1_NtNtCsiXsDAYXhF23_9kona_host6single7handlerNtB9_22SingleChainHintHandlerNtNtNtBd_7backend6online11HintHandler10fetch_hint0s_0Bd_
FN:38,_RNCNvXs1_NtNtCsiXsDAYXhF23_9kona_host6single7handlerNtB7_22SingleChainHintHandlerNtNtNtBb_7backend6online11HintHandler10fetch_hint0Bb_
FN:378,_RNvXs1_NtNtCsiXsDAYXhF23_9kona_host6single7handlerNtB5_22SingleChainHintHandlerNtNtNtB9_7backend6online11HintHandler10fetch_hint
FNDA:0,_RNCNCNvXs1_NtNtCsiXsDAYXhF23_9kona_host6single7handlerNtB9_22SingleChainHintHandlerNtNtNtBd_7backend6online11HintHandler10fetch_hint00Bd_
FNDA:0,_RNCNCNvXs1_NtNtCsiXsDAYXhF23_9kona_host6single7handlerNtB9_22SingleChainHintHandlerNtNtNtBd_7backend6online11HintHandler10fetch_hint0s0_0Bd_
FNDA:0,_RNCNCNvXs1_NtNtCsiXsDAYXhF23_9kona_host6single7handlerNtB9_22SingleChainHintHandlerNtNtNtBd_7backend6online11HintHandler10fetch_hint0s1_0Bd_
FNDA:0,_RNCNCNvXs1_NtNtCsiXsDAYXhF23_9kona_host6single7handlerNtB9_22SingleChainHintHandlerNtNtNtBd_7backend6online11HintHandler10fetch_hint0s2_0Bd_
FNDA:0,_RNCNCNvXs1_NtNtCsiXsDAYXhF23_9kona_host6single7handlerNtB9_22SingleChainHintHandlerNtNtNtBd_7backend6online11HintHandler10fetch_hint0s3_0Bd_
FNDA:0,_RNCNCNvXs1_NtNtCsiXsDAYXhF23_9kona_host6single7handlerNtB9_22SingleChainHintHandlerNtNtNtBd_7backend6online11HintHandler10fetch_hint0s4_0Bd_
FNDA:0,_RNCNCNvXs1_NtNtCsiXsDAYXhF23_9kona_host6single7handlerNtB9_22SingleChainHintHandlerNtNtNtBd_7backend6online11HintHandler10fetch_hint0s5_0Bd_
FNDA:0,_RNCNCNvXs1_NtNtCsiXsDAYXhF23_9kona_host6single7handlerNtB9_22SingleChainHintHandlerNtNtNtBd_7backend6online11HintHandler10fetch_hint0s6_0Bd_
FNDA:0,_RNCNCNvXs1_NtNtCsiXsDAYXhF23_9kona_host6single7handlerNtB9_22SingleChainHintHandlerNtNtNtBd_7backend6online11HintHandler10fetch_hint0s_0Bd_
FNDA:0,_RNCNvXs1_NtNtCsiXsDAYXhF23_9kona_host6single7handlerNtB7_22SingleChainHintHandlerNtNtNtBb_7backend6online11HintHandler10fetch_hint0Bb_
FNDA:0,_RNvXs1_NtNtCsiXsDAYXhF23_9kona_host6single7handlerNtB5_22SingleChainHintHandlerNtNtNtB9_7backend6online11HintHandler10fetch_hint
FNF:11
FNH:0
DA:38,0
DA:39,0
DA:41,0
DA:43,0
DA:44,0
DA:45,0
DA:47,0
DA:48,0
DA:51,0
DA:53,0
DA:54,0
DA:55,0
DA:56,0
DA:57,0
DA:58,0
DA:59,0
DA:60,0
DA:61,0
DA:62,0
DA:63,0
DA:64,0
DA:65,0
DA:68,0
DA:70,0
DA:71,0
DA:72,0
DA:74,0
DA:77,0
DA:79,0
DA:80,0
DA:81,0
DA:83,0
DA:84,0
DA:85,0
DA:86,0
DA:87,0
DA:88,0
DA:91,0
DA:92,0
DA:93,0
DA:94,0
DA:95,0
DA:96,0
DA:97,0
DA:98,0
DA:99,0
DA:102,0
DA:105,0
DA:106,0
DA:107,0
DA:108,0
DA:113,0
DA:114,0
DA:115,0
DA:116,0
DA:117,0
DA:118,0
DA:119,0
DA:120,0
DA:121,0
DA:122,0
DA:123,0
DA:124,0
DA:125,0
DA:126,0
DA:132,0
DA:133,0
DA:134,0
DA:135,0
DA:136,0
DA:137,0
DA:138,0
DA:139,0
DA:142,0
DA:144,0
DA:145,0
DA:146,0
DA:147,0
DA:148,0
DA:149,0
DA:150,0
DA:151,0
DA:152,0
DA:153,0
DA:154,0
DA:155,0
DA:156,0
DA:157,0
DA:159,0
DA:160,0
DA:161,0
DA:162,0
DA:163,0
DA:164,0
DA:167,0
DA:170,0
DA:171,0
DA:172,0
DA:175,0
DA:176,0
DA:179,0
DA:181,0
DA:182,0
DA:183,0
DA:184,0
DA:185,0
DA:186,0
DA:187,0
DA:189,0
DA:190,0
DA:191,0
DA:192,0
DA:193,0
DA:196,0
DA:199,0
DA:200,0
DA:201,0
DA:202,0
DA:203,0
DA:204,0
DA:207,0
DA:208,0
DA:209,0
DA:210,0
DA:211,0
DA:213,0
DA:214,0
DA:215,0
DA:216,0
DA:217,0
DA:218,0
DA:219,0
DA:220,0
DA:221,0
DA:222,0
DA:225,0
DA:226,0
DA:227,0
DA:228,0
DA:229,0
DA:231,0
DA:232,0
DA:233,0
DA:235,0
DA:237,0
DA:240,0
DA:241,0
DA:242,0
DA:243,0
DA:244,0
DA:245,0
DA:249,0
DA:250,0
DA:251,0
DA:252,0
DA:253,0
DA:254,0
DA:255,0
DA:256,0
DA:259,0
DA:260,0
DA:263,0
DA:265,0
DA:267,0
DA:268,0
DA:270,0
DA:274,0
DA:276,0
DA:277,0
DA:280,0
DA:282,0
DA:283,0
DA:285,0
DA:286,0
DA:287,0
DA:288,0
DA:289,0
DA:292,0
DA:293,0
DA:294,0
DA:295,0
DA:296,0
DA:297,0
DA:298,0
DA:301,0
DA:303,0
DA:304,0
DA:305,0
DA:307,0
DA:308,0
DA:309,0
DA:310,0
DA:311,0
DA:313,0
DA:316,0
DA:317,0
DA:318,0
DA:319,0
DA:320,0
DA:321,0
DA:324,0
DA:325,0
DA:326,0
DA:327,0
DA:328,0
DA:329,0
DA:330,0
DA:333,0
DA:334,0
DA:336,0
DA:338,0
DA:339,0
DA:340,0
DA:341,0
DA:343,0
DA:344,0
DA:345,0
DA:347,0
DA:348,0
DA:349,0
DA:350,0
DA:351,0
DA:352,0
DA:353,0
DA:354,0
DA:358,0
DA:361,0
DA:362,0
DA:363,0
DA:364,0
DA:365,0
DA:367,0
DA:368,0
DA:369,0
DA:370,0
DA:371,0
DA:372,0
DA:377,0
DA:378,0
BRF:0
BRH:0
LF:253
LH:0
end_of_record
SF:/Users/andreasbigger/kona/bin/host/src/single/local_kv.rs
FN:22,_RNvMNtNtCsiXsDAYXhF23_9kona_host6single8local_kvNtB2_22SingleChainLocalInputs3new
FN:28,_RNvXs_NtNtCsiXsDAYXhF23_9kona_host6single8local_kvNtB4_22SingleChainLocalInputsNtNtB8_2kv13KeyValueStore3get
FN:49,_RNvXs_NtNtCsiXsDAYXhF23_9kona_host6single8local_kvNtB4_22SingleChainLocalInputsNtNtB8_2kv13KeyValueStore3set
FNDA:0,_RNvMNtNtCsiXsDAYXhF23_9kona_host6single8local_kvNtB2_22SingleChainLocalInputs3new
FNDA:0,_RNvXs_NtNtCsiXsDAYXhF23_9kona_host6single8local_kvNtB4_22SingleChainLocalInputsNtNtB8_2kv13KeyValueStore3get
FNDA:0,_RNvXs_NtNtCsiXsDAYXhF23_9kona_host6single8local_kvNtB4_22SingleChainLocalInputsNtNtB8_2kv13KeyValueStore3set
FNF:3
FNH:0
DA:22,0
DA:23,0
DA:24,0
DA:28,0
DA:29,0
DA:30,0
DA:31,0
DA:32,0
DA:33,0
DA:35,0
DA:38,0
DA:41,0
DA:42,0
DA:43,0
DA:45,0
DA:47,0
DA:49,0
DA:50,0
BRF:0
BRH:0
LF:18
LH:0
end_of_record
SF:/Users/andreasbigger/kona/crates/node/engine/src/attributes.rs
FN:39,_RNCNvMNtCsjkCMiZKgH3A_11kona_engine10attributesNtB4_15AttributesMatch17check_withdrawals0B6_
FN:47,_RNCNvMNtCsjkCMiZKgH3A_11kona_engine10attributesNtB4_15AttributesMatch17check_withdrawalss0_0B6_
FN:44,_RNCNvMNtCsjkCMiZKgH3A_11kona_engine10attributesNtB4_15AttributesMatch17check_withdrawalss_0B6_
FN:254,_RNCNvMNtCsjkCMiZKgH3A_11kona_engine10attributesNtB4_15AttributesMatch5check0B6_
FN:254,_RNCNvMNtCsjkCMiZKgH3A_11kona_engine10attributesNtB4_15AttributesMatch5checks_0B6_
FN:28,_RNvMNtCsjkCMiZKgH3A_11kona_engine10attributesNtB2_15AttributesMatch11is_mismatch
FN:143,_RNvMNtCsjkCMiZKgH3A_11kona_engine10attributesNtB2_15AttributesMatch13check_eip1559
FN:33,_RNvMNtCsjkCMiZKgH3A_11kona_engine10attributesNtB2_15AttributesMatch17check_withdrawals
FN:77,_RNvMNtCsjkCMiZKgH3A_11kona_engine10attributesNtB2_15AttributesMatch18check_transactions
FN:221,_RNvMNtCsjkCMiZKgH3A_11kona_engine10attributesNtB2_15AttributesMatch5check
FN:23,_RNvMNtCsjkCMiZKgH3A_11kona_engine10attributesNtB2_15AttributesMatch8is_match
FN:355,_RNvXs_NtCsjkCMiZKgH3A_11kona_engine10attributesNtB4_15AttributesMatchINtNtCs8dmkrYGpicx_4core7convert4FromNtB4_18AttributesMismatchE4from
FN:506,_RNCNvNtNtCsjkCMiZKgH3A_11kona_engine10attributes5tests12generate_txs0B7_
FN:527,_RNCNvNtNtCsjkCMiZKgH3A_11kona_engine10attributes5tests30test_transactions_match_helper0B7_
FN:558,_RNCNvNtNtCsjkCMiZKgH3A_11kona_engine10attributes5testss_47test_attributes_mismatch_check_transactions_len0B7_
FN:500,_RNvNtNtCsjkCMiZKgH3A_11kona_engine10attributes5tests12generate_txs
FN:373,_RNvNtNtCsjkCMiZKgH3A_11kona_engine10attributes5tests18default_attributes
FN:706,_RNvNtNtCsjkCMiZKgH3A_11kona_engine10attributes5tests18eip1559_test_setup
FN:381,_RNvNtNtCsjkCMiZKgH3A_11kona_engine10attributes5tests21default_rollup_config
FN:518,_RNvNtNtCsjkCMiZKgH3A_11kona_engine10attributes5tests30test_transactions_match_helper
FN:922,_RNvNtNtCsjkCMiZKgH3A_11kona_engine10attributes5testss_21test_attributes_match
FN:620,_RNvNtNtCsjkCMiZKgH3A_11kona_engine10attributes5testss_36test_block_transactions_wrong_format
FN:691,_RNvNtNtCsjkCMiZKgH3A_11kona_engine10attributes5testss_37test_attributes_empty_and_block_uncle
FN:449,_RNvNtNtCsjkCMiZKgH3A_11kona_engine10attributes5testss_37test_attributes_match_check_gas_limit
FN:404,_RNvNtNtCsjkCMiZKgH3A_11kona_engine10attributes5testss_37test_attributes_match_check_timestamp
FN:420,_RNvNtNtCsjkCMiZKgH3A_11kona_engine10attributes5testss_39test_attributes_match_check_prev_randao
FN:437,_RNvNtNtCsjkCMiZKgH3A_11kona_engine10attributes5testss_39test_attributes_match_missing_gas_limit
FN:872,_RNvNtNtCsjkCMiZKgH3A_11kona_engine10attributes5testss_39test_eip1559_parameters_invalid_version
FN:546,_RNvNtNtCsjkCMiZKgH3A_11kona_engine10attributes5testss_40test_attributes_match_check_transactions
FN:896,_RNvNtNtCsjkCMiZKgH3A_11kona_engine10attributes5testss_40test_eip1559_default_param_cant_overflow
FN:484,_RNvNtNtCsjkCMiZKgH3A_11kona_engine10attributes5testss_41test_attributes_match_check_fee_recipient
FN:635,_RNvNtNtCsjkCMiZKgH3A_11kona_engine10attributes5testss_41test_attributes_transactions_wrong_format
FN:387,_RNvNtNtCsjkCMiZKgH3A_11kona_engine10attributes5testss_42test_attributes_match_parent_hash_mismatch
FN:793,_RNvNtNtCsjkCMiZKgH3A_11kona_engine10attributes5testss_43test_eip1559_parameters_custom_values_match
FN:777,_RNvNtNtCsjkCMiZKgH3A_11kona_engine10attributes5testss_43test_eip1559_parameters_empty_for_attr_only
FN:652,_RNvNtNtCsjkCMiZKgH3A_11kona_engine10attributes5testss_44test_attributes_and_block_transactions_empty
FN:603,_RNvNtNtCsjkCMiZKgH3A_11kona_engine10attributes5testss_44test_attributes_mismatch_empty_tx_attributes
FN:848,_RNvNtNtCsjkCMiZKgH3A_11kona_engine10attributes5testss_44test_eip1559_parameters_combination_mismatch
FN:813,_RNvNtNtCsjkCMiZKgH3A_11kona_engine10attributes5testss_46test_eip1559_parameters_custom_values_mismatch
FN:736,_RNvNtNtCsjkCMiZKgH3A_11kona_engine10attributes5testss_46test_eip1559_parameters_not_specified_holocene
FN:554,_RNvNtNtCsjkCMiZKgH3A_11kona_engine10attributes5testss_47test_attributes_mismatch_check_transactions_len
FN:759,_RNvNtNtCsjkCMiZKgH3A_11kona_engine10attributes5testss_48test_eip1559_parameters_specified_both_and_empty
FN:576,_RNvNtNtCsjkCMiZKgH3A_11kona_engine10attributes5testss_50test_attributes_mismatch_check_transaction_content
FN:466,_RNvNtNtCsjkCMiZKgH3A_11kona_engine10attributes5testss_52test_attributes_match_check_parent_beacon_block_root
FN:676,_RNvNtNtCsjkCMiZKgH3A_11kona_engine10attributes5testss_56test_attributes_and_block_transactions_empty_hash_format
FN:746,_RNvNtNtCsjkCMiZKgH3A_11kona_engine10attributes5testss_58test_eip1559_parameters_specified_attributes_but_not_block
FNDA:9,_RNCNvMNtCsjkCMiZKgH3A_11kona_engine10attributesNtB4_15AttributesMatch17check_withdrawals0B6_
FNDA:9,_RNCNvMNtCsjkCMiZKgH3A_11kona_engine10attributesNtB4_15AttributesMatch17check_withdrawalss0_0B6_
FNDA:9,_RNCNvMNtCsjkCMiZKgH3A_11kona_engine10attributesNtB4_15AttributesMatch17check_withdrawalss_0B6_
FNDA:16,_RNCNvMNtCsjkCMiZKgH3A_11kona_engine10attributesNtB4_15AttributesMatch5check0B6_
FNDA:8,_RNCNvMNtCsjkCMiZKgH3A_11kona_engine10attributesNtB4_15AttributesMatch5checks_0B6_
FNDA:19,_RNvMNtCsjkCMiZKgH3A_11kona_engine10attributesNtB2_15AttributesMatch11is_mismatch
FNDA:14,_RNvMNtCsjkCMiZKgH3A_11kona_engine10attributesNtB2_15AttributesMatch13check_eip1559
FNDA:16,_RNvMNtCsjkCMiZKgH3A_11kona_engine10attributesNtB2_15AttributesMatch17check_withdrawals
FNDA:24,_RNvMNtCsjkCMiZKgH3A_11kona_engine10attributesNtB2_15AttributesMatch18check_transactions
FNDA:27,_RNvMNtCsjkCMiZKgH3A_11kona_engine10attributesNtB2_15AttributesMatch5check
FNDA:3,_RNvMNtCsjkCMiZKgH3A_11kona_engine10attributesNtB2_15AttributesMatch8is_match
FNDA:33,_RNvXs_NtCsjkCMiZKgH3A_11kona_engine10attributesNtB4_15AttributesMatchINtNtCs8dmkrYGpicx_4core7convert4FromNtB4_18AttributesMismatchE4from
FNDA:90,_RNCNvNtNtCsjkCMiZKgH3A_11kona_engine10attributes5tests12generate_txs0B7_
FNDA:90,_RNCNvNtNtCsjkCMiZKgH3A_11kona_engine10attributes5tests30test_transactions_match_helper0B7_
FNDA:1,_RNCNvNtNtCsjkCMiZKgH3A_11kona_engine10attributes5testss_47test_attributes_mismatch_check_transactions_len0B7_
FNDA:9,_RNvNtNtCsjkCMiZKgH3A_11kona_engine10attributes5tests12generate_txs
FNDA:26,_RNvNtNtCsjkCMiZKgH3A_11kona_engine10attributes5tests18default_attributes
FNDA:9,_RNvNtNtCsjkCMiZKgH3A_11kona_engine10attributes5tests18eip1559_test_setup
FNDA:26,_RNvNtNtCsjkCMiZKgH3A_11kona_engine10attributes5tests21default_rollup_config
FNDA:9,_RNvNtNtCsjkCMiZKgH3A_11kona_engine10attributes5tests30test_transactions_match_helper
FNDA:1,_RNvNtNtCsjkCMiZKgH3A_11kona_engine10attributes5testss_21test_attributes_match
FNDA:1,_RNvNtNtCsjkCMiZKgH3A_11kona_engine10attributes5testss_36test_block_transactions_wrong_format
FNDA:1,_RNvNtNtCsjkCMiZKgH3A_11kona_engine10attributes5testss_37test_attributes_empty_and_block_uncle
FNDA:1,_RNvNtNtCsjkCMiZKgH3A_11kona_engine10attributes5testss_37test_attributes_match_check_gas_limit
FNDA:1,_RNvNtNtCsjkCMiZKgH3A_11kona_engine10attributes5testss_37test_attributes_match_check_timestamp
FNDA:1,_RNvNtNtCsjkCMiZKgH3A_11kona_engine10attributes5testss_39test_attributes_match_check_prev_randao
FNDA:1,_RNvNtNtCsjkCMiZKgH3A_11kona_engine10attributes5testss_39test_attributes_match_missing_gas_limit
FNDA:1,_RNvNtNtCsjkCMiZKgH3A_11kona_engine10attributes5testss_39test_eip1559_parameters_invalid_version
FNDA:1,_RNvNtNtCsjkCMiZKgH3A_11kona_engine10attributes5testss_40test_attributes_match_check_transactions
FNDA:1,_RNvNtNtCsjkCMiZKgH3A_11kona_engine10attributes5testss_40test_eip1559_default_param_cant_overflow
FNDA:1,_RNvNtNtCsjkCMiZKgH3A_11kona_engine10attributes5testss_41test_attributes_match_check_fee_recipient
FNDA:1,_RNvNtNtCsjkCMiZKgH3A_11kona_engine10attributes5testss_41test_attributes_transactions_wrong_format
FNDA:1,_RNvNtNtCsjkCMiZKgH3A_11kona_engine10attributes5testss_42test_attributes_match_parent_hash_mismatch
FNDA:1,_RNvNtNtCsjkCMiZKgH3A_11kona_engine10attributes5testss_43test_eip1559_parameters_custom_values_match
FNDA:1,_RNvNtNtCsjkCMiZKgH3A_11kona_engine10attributes5testss_43test_eip1559_parameters_empty_for_attr_only
FNDA:1,_RNvNtNtCsjkCMiZKgH3A_11kona_engine10attributes5testss_44test_attributes_and_block_transactions_empty
FNDA:1,_RNvNtNtCsjkCMiZKgH3A_11kona_engine10attributes5testss_44test_attributes_mismatch_empty_tx_attributes
FNDA:1,_RNvNtNtCsjkCMiZKgH3A_11kona_engine10attributes5testss_44test_eip1559_parameters_combination_mismatch
FNDA:1,_RNvNtNtCsjkCMiZKgH3A_11kona_engine10attributes5testss_46test_eip1559_parameters_custom_values_mismatch
FNDA:1,_RNvNtNtCsjkCMiZKgH3A_11kona_engine10attributes5testss_46test_eip1559_parameters_not_specified_holocene
FNDA:1,_RNvNtNtCsjkCMiZKgH3A_11kona_engine10attributes5testss_47test_attributes_mismatch_check_transactions_len
FNDA:1,_RNvNtNtCsjkCMiZKgH3A_11kona_engine10attributes5testss_48test_eip1559_parameters_specified_both_and_empty
FNDA:1,_RNvNtNtCsjkCMiZKgH3A_11kona_engine10attributes5testss_50test_attributes_mismatch_check_transaction_content
FNDA:1,_RNvNtNtCsjkCMiZKgH3A_11kona_engine10attributes5testss_52test_attributes_match_check_parent_beacon_block_root
FNDA:1,_RNvNtNtCsjkCMiZKgH3A_11kona_engine10attributes5testss_56test_attributes_and_block_transactions_empty_hash_format
FNDA:1,_RNvNtNtCsjkCMiZKgH3A_11kona_engine10attributes5testss_58test_eip1559_parameters_specified_attributes_but_not_block
FNF:46
FNH:46
DA:23,3
DA:24,3
DA:25,3
DA:28,19
DA:29,19
DA:30,19
DA:33,16
DA:34,16
DA:35,16
DA:36,16
DA:37,16
DA:38,16
DA:39,16
DA:40,16
DA:41,16
DA:42,16
DA:44,9
DA:45,0
DA:46,9
DA:47,9
DA:48,0
DA:49,9
DA:50,9
DA:52,9
DA:53,9
DA:54,0
DA:55,9
DA:56,0
DA:59,7
DA:60,0
DA:61,7
DA:64,16
DA:66,0
DA:67,0
DA:68,0
DA:69,16
DA:71,16
DA:72,16
DA:77,24
DA:81,6
DA:82,6
DA:83,6
DA:91,17
DA:95,2
DA:96,0
DA:99,2
DA:103,0
DA:104,0
DA:107,0
DA:109,5
DA:110,5
DA:111,5
DA:112,5
DA:113,5
DA:114,5
DA:115,5
DA:116,2
DA:117,3
DA:122,12
DA:124,12
DA:125,1
DA:126,0
DA:129,1
DA:132,11
DA:134,1
DA:135,1
DA:136,10
DA:139,1
DA:140,24
DA:143,14
DA:144,14
DA:145,14
DA:146,14
DA:147,14
DA:150,14
DA:155,6
DA:156,1
DA:157,0
DA:159,1
DA:160,5
DA:161,5
DA:162,5
DA:163,5
DA:165,5
DA:166,1
DA:167,0
DA:169,1
DA:175,4
DA:176,4
DA:177,4
DA:178,4
DA:180,3
DA:184,7
DA:185,5
DA:187,1
DA:188,0
DA:190,1
DA:192,1
DA:193,1
DA:195,0
DA:197,1
DA:199,0
DA:200,0
DA:202,0
DA:207,5
DA:208,3
DA:209,3
DA:210,3
DA:211,3
DA:212,3
DA:213,2
DA:214,2
DA:215,2
DA:216,14
DA:221,27
DA:222,27
DA:223,27
DA:224,27
DA:225,27
DA:226,27
DA:227,1
DA:228,1
DA:229,1
DA:230,1
DA:231,1
DA:232,26
DA:233,26
DA:234,26
DA:235,1
DA:236,1
DA:237,1
DA:238,1
DA:239,1
DA:240,25
DA:241,25
DA:242,25
DA:243,25
DA:244,1
DA:245,1
DA:246,1
DA:247,1
DA:248,1
DA:249,24
DA:250,24
DA:251,24
DA:252,24
DA:253,24
DA:254,24
DA:257,24
DA:258,6
DA:259,18
DA:261,18
DA:262,1
DA:265,17
DA:266,1
DA:267,16
DA:269,16
DA:270,0
DA:271,16
DA:272,16
DA:273,16
DA:274,16
DA:276,1
DA:277,1
DA:278,1
DA:279,1
DA:280,1
DA:281,15
DA:282,15
DA:283,15
DA:284,15
DA:286,1
DA:287,1
DA:288,1
DA:289,1
DA:290,1
DA:291,14
DA:294,14
DA:295,7
DA:296,7
DA:297,7
DA:298,7
DA:299,27
DA:355,33
DA:356,33
DA:357,33
DA:373,26
DA:374,26
DA:375,26
DA:376,26
DA:377,26
DA:378,26
DA:379,26
DA:381,26
DA:382,26
DA:383,26
DA:384,26
DA:387,1
DA:388,1
DA:389,1
DA:390,1
DA:391,1
DA:392,1
DA:393,1
DA:394,1
DA:395,1
DA:396,1
DA:397,1
DA:398,1
DA:399,1
DA:400,1
DA:401,1
DA:404,1
DA:405,1
DA:406,1
DA:407,1
DA:408,1
DA:409,1
DA:410,1
DA:411,1
DA:412,1
DA:413,1
DA:414,1
DA:415,1
DA:416,1
DA:417,1
DA:420,1
DA:421,1
DA:422,1
DA:423,1
DA:424,1
DA:425,1
DA:426,1
DA:427,1
DA:428,1
DA:429,1
DA:430,1
DA:431,1
DA:432,1
DA:433,1
DA:434,1
DA:437,1
DA:438,1
DA:439,1
DA:440,1
DA:441,1
DA:442,1
DA:443,1
DA:444,1
DA:445,1
DA:446,1
DA:449,1
DA:450,1
DA:451,1
DA:452,1
DA:453,1
DA:454,1
DA:455,1
DA:456,1
DA:457,1
DA:458,1
DA:459,1
DA:460,1
DA:461,1
DA:462,1
DA:463,1
DA:466,1
DA:467,1
DA:468,1
DA:469,1
DA:470,1
DA:471,1
DA:472,1
DA:473,1
DA:474,1
DA:475,1
DA:476,1
DA:477,1
DA:478,1
DA:479,1
DA:480,1
DA:481,1
DA:484,1
DA:485,1
DA:486,1
DA:487,1
DA:488,1
DA:489,1
DA:490,1
DA:491,1
DA:492,1
DA:493,1
DA:494,1
DA:495,1
DA:496,1
DA:497,1
DA:498,1
DA:500,9
DA:501,9
DA:502,9
DA:503,9
DA:504,9
DA:505,9
DA:506,90
DA:507,90
DA:508,90
DA:509,90
DA:510,90
DA:511,90
DA:512,90
DA:513,90
DA:514,90
DA:515,9
DA:516,9
DA:518,9
DA:521,9
DA:522,9
DA:523,9
DA:524,9
DA:525,9
DA:526,9
DA:527,90
DA:528,90
DA:529,90
DA:530,90
DA:531,90
DA:532,90
DA:533,90
DA:534,9
DA:535,9
DA:536,9
DA:537,9
DA:538,9
DA:539,9
DA:540,9
DA:541,9
DA:542,9
DA:543,9
DA:546,1
DA:547,1
DA:548,1
DA:549,1
DA:550,1
DA:551,1
DA:554,1
DA:555,1
DA:556,1
DA:557,1
DA:558,1
DA:559,1
DA:560,1
DA:561,1
DA:562,1
DA:563,1
DA:564,1
DA:565,1
DA:566,1
DA:567,1
DA:568,1
DA:569,1
DA:570,1
DA:571,1
DA:572,1
DA:573,1
DA:576,1
DA:577,1
DA:578,1
DA:579,1
DA:580,0
DA:583,1
DA:584,1
DA:585,1
DA:586,1
DA:587,1
DA:588,1
DA:589,1
DA:590,1
DA:591,1
DA:592,1
DA:593,1
DA:594,1
DA:595,1
DA:596,1
DA:597,1
DA:598,1
DA:599,1
DA:603,1
DA:604,1
DA:605,1
DA:606,1
DA:607,1
DA:608,1
DA:609,1
DA:610,1
DA:611,1
DA:612,1
DA:613,1
DA:614,1
DA:615,1
DA:620,1
DA:621,1
DA:622,1
DA:623,1
DA:624,1
DA:625,1
DA:626,1
DA:627,1
DA:628,1
DA:629,1
DA:630,1
DA:635,1
DA:636,1
DA:637,1
DA:638,1
DA:639,1
DA:640,1
DA:641,1
DA:642,1
DA:643,1
DA:644,1
DA:645,1
DA:646,1
DA:647,1
DA:652,1
DA:653,1
DA:654,1
DA:655,1
DA:656,1
DA:657,1
DA:658,1
DA:659,1
DA:660,1
DA:661,1
DA:662,1
DA:666,1
DA:667,1
DA:668,1
DA:669,1
DA:670,1
DA:671,1
DA:676,1
DA:677,1
DA:678,1
DA:679,1
DA:680,1
DA:681,1
DA:682,1
DA:683,1
DA:684,1
DA:685,1
DA:686,1
DA:687,1
DA:691,1
DA:692,1
DA:693,1
DA:694,1
DA:695,1
DA:696,1
DA:697,1
DA:698,1
DA:699,1
DA:700,1
DA:701,1
DA:702,1
DA:703,1
DA:704,1
DA:706,9
DA:707,9
DA:708,9
DA:709,9
DA:710,9
DA:711,9
DA:712,9
DA:713,9
DA:714,9
DA:715,9
DA:716,9
DA:717,9
DA:718,9
DA:719,9
DA:720,9
DA:721,9
DA:722,9
DA:723,9
DA:724,9
DA:725,9
DA:726,9
DA:727,9
DA:728,9
DA:729,9
DA:730,9
DA:731,9
DA:732,9
DA:736,1
DA:737,1
DA:738,1
DA:739,1
DA:740,1
DA:741,1
DA:742,1
DA:746,1
DA:747,1
DA:748,1
DA:749,1
DA:750,1
DA:751,1
DA:752,1
DA:753,1
DA:754,1
DA:759,1
DA:760,1
DA:761,1
DA:762,1
DA:763,1
DA:764,1
DA:765,1
DA:766,1
DA:767,1
DA:768,1
DA:769,1
DA:770,1
DA:771,1
DA:772,1
DA:773,1
DA:774,1
DA:777,1
DA:778,1
DA:779,1
DA:780,1
DA:781,1
DA:782,1
DA:783,1
DA:784,1
DA:785,1
DA:786,1
DA:787,1
DA:788,1
DA:789,1
DA:790,1
DA:793,1
DA:794,1
DA:795,1
DA:796,1
DA:797,1
DA:798,1
DA:799,1
DA:800,1
DA:801,1
DA:802,1
DA:803,1
DA:804,1
DA:805,1
DA:806,1
DA:807,1
DA:808,1
DA:809,1
DA:810,1
DA:813,1
DA:814,1
DA:815,1
DA:816,1
DA:817,1
DA:818,1
DA:819,1
DA:820,1
DA:821,1
DA:822,1
DA:823,1
DA:824,1
DA:825,1
DA:826,1
DA:827,1
DA:828,1
DA:829,1
DA:830,1
DA:831,1
DA:832,1
DA:833,1
DA:834,1
DA:835,1
DA:836,1
DA:837,1
DA:838,1
DA:839,1
DA:840,1
DA:841,1
DA:842,1
DA:843,1
DA:844,1
DA:848,1
DA:849,1
DA:850,1
DA:851,1
DA:852,1
DA:853,1
DA:854,1
DA:855,1
DA:856,1
DA:857,1
DA:858,1
DA:859,1
DA:860,1
DA:861,1
DA:862,1
DA:863,1
DA:864,1
DA:865,1
DA:866,1
DA:867,1
DA:868,1
DA:872,1
DA:873,1
DA:874,1
DA:875,1
DA:876,1
DA:877,1
DA:878,1
DA:879,1
DA:880,1
DA:881,1
DA:882,1
DA:883,1
DA:884,1
DA:885,1
DA:886,1
DA:887,1
DA:888,1
DA:889,1
DA:890,1
DA:891,1
DA:892,1
DA:896,1
DA:897,1
DA:898,1
DA:899,1
DA:900,1
DA:901,1
DA:902,1
DA:903,1
DA:904,1
DA:905,1
DA:906,1
DA:907,1
DA:908,1
DA:909,1
DA:910,1
DA:911,1
DA:912,1
DA:913,1
DA:914,1
DA:915,1
DA:916,1
DA:917,1
DA:918,1
DA:919,1
DA:922,1
DA:923,1
DA:924,1
DA:925,1
DA:926,1
DA:927,1
DA:928,1
DA:929,1
DA:930,1
BRF:0
BRH:0
LF:675
LH:653
end_of_record
SF:/Users/andreasbigger/kona/crates/node/engine/src/client.rs
FN:66,_RINvMNtCsjkCMiZKgH3A_11kona_engine6clientNtB3_12EngineClient10rpc_clientpEB5_
FN:89,_RNCNvMNtCsjkCMiZKgH3A_11kona_engine6clientNtB4_12EngineClient17l2_block_by_label0B6_
FN:97,_RNCNvMNtCsjkCMiZKgH3A_11kona_engine6clientNtB4_12EngineClient22l2_block_info_by_label0B6_
FN:165,_RNCNvXs7_NtCsjkCMiZKgH3A_11kona_engine6clientNtB7_12EngineClientINtNtNtCs1aheteX9J7U_17op_alloy_provider3ext6engine11OpEngineApiNtNtCs90fiQ0FreEW_13alloy_network3any10AnyNetworkINtCs7f4LQVE8LGp_20alloy_transport_http4HttpINtNtB2S_15hyper_transport11HyperClientINtNtCsczRRrLwzuhn_14http_body_util4full4FullNtNtCsgKRRzl9x21L_16alloy_primitives6bytes_5BytesEINtNtNtB2S_6layers4auth11AuthServiceINtNtNtNtCsfdvvibCssgi_10hyper_util6client6legacy6client6ClientNtNtNtB6m_7connect4http13HttpConnectorB4a_EEEEE14get_payload_v20B9_
FN:175,_RNCNvXs7_NtCsjkCMiZKgH3A_11kona_engine6clientNtB7_12EngineClientINtNtNtCs1aheteX9J7U_17op_alloy_provider3ext6engine11OpEngineApiNtNtCs90fiQ0FreEW_13alloy_network3any10AnyNetworkINtCs7f4LQVE8LGp_20alloy_transport_http4HttpINtNtB2S_15hyper_transport11HyperClientINtNtCsczRRrLwzuhn_14http_body_util4full4FullNtNtCsgKRRzl9x21L_16alloy_primitives6bytes_5BytesEINtNtNtB2S_6layers4auth11AuthServiceINtNtNtNtCsfdvvibCssgi_10hyper_util6client6legacy6client6ClientNtNtNtB6m_7connect4http13HttpConnectorB4a_EEEEE14get_payload_v30B9_
FN:185,_RNCNvXs7_NtCsjkCMiZKgH3A_11kona_engine6clientNtB7_12EngineClientINtNtNtCs1aheteX9J7U_17op_alloy_provider3ext6engine11OpEngineApiNtNtCs90fiQ0FreEW_13alloy_network3any10AnyNetworkINtCs7f4LQVE8LGp_20alloy_transport_http4HttpINtNtB2S_15hyper_transport11HyperClientINtNtCsczRRrLwzuhn_14http_body_util4full4FullNtNtCsgKRRzl9x21L_16alloy_primitives6bytes_5BytesEINtNtNtB2S_6layers4auth11AuthServiceINtNtNtNtCsfdvvibCssgi_10hyper_util6client6legacy6client6ClientNtNtNtB6m_7connect4http13HttpConnectorB4a_EEEEE14get_payload_v40B9_
FN:111,_RNCNvXs7_NtCsjkCMiZKgH3A_11kona_engine6clientNtB7_12EngineClientINtNtNtCs1aheteX9J7U_17op_alloy_provider3ext6engine11OpEngineApiNtNtCs90fiQ0FreEW_13alloy_network3any10AnyNetworkINtCs7f4LQVE8LGp_20alloy_transport_http4HttpINtNtB2S_15hyper_transport11HyperClientINtNtCsczRRrLwzuhn_14http_body_util4full4FullNtNtCsgKRRzl9x21L_16alloy_primitives6bytes_5BytesEINtNtNtB2S_6layers4auth11AuthServiceINtNtNtNtCsfdvvibCssgi_10hyper_util6client6legacy6client6ClientNtNtNtB6m_7connect4http13HttpConnectorB4a_EEEEE14new_payload_v20B9_
FN:122,_RNCNvXs7_NtCsjkCMiZKgH3A_11kona_engine6clientNtB7_12EngineClientINtNtNtCs1aheteX9J7U_17op_alloy_provider3ext6engine11OpEngineApiNtNtCs90fiQ0FreEW_13alloy_network3any10AnyNetworkINtCs7f4LQVE8LGp_20alloy_transport_http4HttpINtNtB2S_15hyper_transport11HyperClientINtNtCsczRRrLwzuhn_14http_body_util4full4FullNtNtCsgKRRzl9x21L_16alloy_primitives6bytes_5BytesEINtNtNtB2S_6layers4auth11AuthServiceINtNtNtNtCsfdvvibCssgi_10hyper_util6client6legacy6client6ClientNtNtNtB6m_7connect4http13HttpConnectorB4a_EEEEE14new_payload_v30B9_
FN:133,_RNCNvXs7_NtCsjkCMiZKgH3A_11kona_engine6clientNtB7_12EngineClientINtNtNtCs1aheteX9J7U_17op_alloy_provider3ext6engine11OpEngineApiNtNtCs90fiQ0FreEW_13alloy_network3any10AnyNetworkINtCs7f4LQVE8LGp_20alloy_transport_http4HttpINtNtB2S_15hyper_transport11HyperClientINtNtCsczRRrLwzuhn_14http_body_util4full4FullNtNtCsgKRRzl9x21L_16alloy_primitives6bytes_5BytesEINtNtNtB2S_6layers4auth11AuthServiceINtNtNtNtCsfdvvibCssgi_10hyper_util6client6legacy6client6ClientNtNtNtB6m_7connect4http13HttpConnectorB4a_EEEEE14new_payload_v40B9_
FN:226,_RNCNvXs7_NtCsjkCMiZKgH3A_11kona_engine6clientNtB7_12EngineClientINtNtNtCs1aheteX9J7U_17op_alloy_provider3ext6engine11OpEngineApiNtNtCs90fiQ0FreEW_13alloy_network3any10AnyNetworkINtCs7f4LQVE8LGp_20alloy_transport_http4HttpINtNtB2S_15hyper_transport11HyperClientINtNtCsczRRrLwzuhn_14http_body_util4full4FullNtNtCsgKRRzl9x21L_16alloy_primitives6bytes_5BytesEINtNtNtB2S_6layers4auth11AuthServiceINtNtNtNtCsfdvvibCssgi_10hyper_util6client6legacy6client6ClientNtNtNtB6m_7connect4http13HttpConnectorB4a_EEEEE21exchange_capabilities0B9_
FN:216,_RNCNvXs7_NtCsjkCMiZKgH3A_11kona_engine6clientNtB7_12EngineClientINtNtNtCs1aheteX9J7U_17op_alloy_provider3ext6engine11OpEngineApiNtNtCs90fiQ0FreEW_13alloy_network3any10AnyNetworkINtCs7f4LQVE8LGp_20alloy_transport_http4HttpINtNtB2S_15hyper_transport11HyperClientINtNtCsczRRrLwzuhn_14http_body_util4full4FullNtNtCsgKRRzl9x21L_16alloy_primitives6bytes_5BytesEINtNtNtB2S_6layers4auth11AuthServiceINtNtNtNtCsfdvvibCssgi_10hyper_util6client6legacy6client6ClientNtNtNtB6m_7connect4http13HttpConnectorB4a_EEEEE21get_client_version_v10B9_
FN:144,_RNCNvXs7_NtCsjkCMiZKgH3A_11kona_engine6clientNtB7_12EngineClientINtNtNtCs1aheteX9J7U_17op_alloy_provider3ext6engine11OpEngineApiNtNtCs90fiQ0FreEW_13alloy_network3any10AnyNetworkINtCs7f4LQVE8LGp_20alloy_transport_http4HttpINtNtB2S_15hyper_transport11HyperClientINtNtCsczRRrLwzuhn_14http_body_util4full4FullNtNtCsgKRRzl9x21L_16alloy_primitives6bytes_5BytesEINtNtNtB2S_6layers4auth11AuthServiceINtNtNtNtCsfdvvibCssgi_10hyper_util6client6legacy6client6ClientNtNtNtB6m_7connect4http13HttpConnectorB4a_EEEEE22fork_choice_updated_v20B9_
FN:155,_RNCNvXs7_NtCsjkCMiZKgH3A_11kona_engine6clientNtB7_12EngineClientINtNtNtCs1aheteX9J7U_17op_alloy_provider3ext6engine11OpEngineApiNtNtCs90fiQ0FreEW_13alloy_network3any10AnyNetworkINtCs7f4LQVE8LGp_20alloy_transport_http4HttpINtNtB2S_15hyper_transport11HyperClientINtNtCsczRRrLwzuhn_14http_body_util4full4FullNtNtCsgKRRzl9x21L_16alloy_primitives6bytes_5BytesEINtNtNtB2S_6layers4auth11AuthServiceINtNtNtNtCsfdvvibCssgi_10hyper_util6client6legacy6client6ClientNtNtNtB6m_7connect4http13HttpConnectorB4a_EEEEE22fork_choice_updated_v30B9_
FN:195,_RNCNvXs7_NtCsjkCMiZKgH3A_11kona_engine6clientNtB7_12EngineClientINtNtNtCs1aheteX9J7U_17op_alloy_provider3ext6engine11OpEngineApiNtNtCs90fiQ0FreEW_13alloy_network3any10AnyNetworkINtCs7f4LQVE8LGp_20alloy_transport_http4HttpINtNtB2S_15hyper_transport11HyperClientINtNtCsczRRrLwzuhn_14http_body_util4full4FullNtNtCsgKRRzl9x21L_16alloy_primitives6bytes_5BytesEINtNtNtB2S_6layers4auth11AuthServiceINtNtNtNtCsfdvvibCssgi_10hyper_util6client6legacy6client6ClientNtNtNtB6m_7connect4http13HttpConnectorB4a_EEEEE29get_payload_bodies_by_hash_v10B9_
FN:206,_RNCNvXs7_NtCsjkCMiZKgH3A_11kona_engine6clientNtB7_12EngineClientINtNtNtCs1aheteX9J7U_17op_alloy_provider3ext6engine11OpEngineApiNtNtCs90fiQ0FreEW_13alloy_network3any10AnyNetworkINtCs7f4LQVE8LGp_20alloy_transport_http4HttpINtNtB2S_15hyper_transport11HyperClientINtNtCsczRRrLwzuhn_14http_body_util4full4FullNtNtCsgKRRzl9x21L_16alloy_primitives6bytes_5BytesEINtNtNtB2S_6layers4auth11AuthServiceINtNtNtNtCsfdvvibCssgi_10hyper_util6client6legacy6client6ClientNtNtNtB6m_7connect4http13HttpConnectorB4a_EEEEE30get_payload_bodies_by_range_v10B9_
FN:86,_RNvMNtCsjkCMiZKgH3A_11kona_engine6clientNtB2_12EngineClient17l2_block_by_label
FN:94,_RNvMNtCsjkCMiZKgH3A_11kona_engine6clientNtB2_12EngineClient22l2_block_info_by_label
FN:78,_RNvMNtCsjkCMiZKgH3A_11kona_engine6clientNtB2_12EngineClient8new_http
FN:170,_RNvXs7_NtCsjkCMiZKgH3A_11kona_engine6clientNtB5_12EngineClientINtNtNtCs1aheteX9J7U_17op_alloy_provider3ext6engine11OpEngineApiNtNtCs90fiQ0FreEW_13alloy_network3any10AnyNetworkINtCs7f4LQVE8LGp_20alloy_transport_http4HttpINtNtB2Q_15hyper_transport11HyperClientINtNtCsczRRrLwzuhn_14http_body_util4full4FullNtNtCsgKRRzl9x21L_16alloy_primitives6bytes_5BytesEINtNtNtB2Q_6layers4auth11AuthServiceINtNtNtNtCsfdvvibCssgi_10hyper_util6client6legacy6client6ClientNtNtNtB6k_7connect4http13HttpConnectorB48_EEEEE14get_payload_v2
FN:180,_RNvXs7_NtCsjkCMiZKgH3A_11kona_engine6clientNtB5_12EngineClientINtNtNtCs1aheteX9J7U_17op_alloy_provider3ext6engine11OpEngineApiNtNtCs90fiQ0FreEW_13alloy_network3any10AnyNetworkINtCs7f4LQVE8LGp_20alloy_transport_http4HttpINtNtB2Q_15hyper_transport11HyperClientINtNtCsczRRrLwzuhn_14http_body_util4full4FullNtNtCsgKRRzl9x21L_16alloy_primitives6bytes_5BytesEINtNtNtB2Q_6layers4auth11AuthServiceINtNtNtNtCsfdvvibCssgi_10hyper_util6client6legacy6client6ClientNtNtNtB6k_7connect4http13HttpConnectorB48_EEEEE14get_payload_v3
FN:190,_RNvXs7_NtCsjkCMiZKgH3A_11kona_engine6clientNtB5_12EngineClientINtNtNtCs1aheteX9J7U_17op_alloy_provider3ext6engine11OpEngineApiNtNtCs90fiQ0FreEW_13alloy_network3any10AnyNetworkINtCs7f4LQVE8LGp_20alloy_transport_http4HttpINtNtB2Q_15hyper_transport11HyperClientINtNtCsczRRrLwzuhn_14http_body_util4full4FullNtNtCsgKRRzl9x21L_16alloy_primitives6bytes_5BytesEINtNtNtB2Q_6layers4auth11AuthServiceINtNtNtNtCsfdvvibCssgi_10hyper_util6client6legacy6client6ClientNtNtNtB6k_7connect4http13HttpConnectorB48_EEEEE14get_payload_v4
FN:116,_RNvXs7_NtCsjkCMiZKgH3A_11kona_engine6clientNtB5_12EngineClientINtNtNtCs1aheteX9J7U_17op_alloy_provider3ext6engine11OpEngineApiNtNtCs90fiQ0FreEW_13alloy_network3any10AnyNetworkINtCs7f4LQVE8LGp_20alloy_transport_http4HttpINtNtB2Q_15hyper_transport11HyperClientINtNtCsczRRrLwzuhn_14http_body_util4full4FullNtNtCsgKRRzl9x21L_16alloy_primitives6bytes_5BytesEINtNtNtB2Q_6layers4auth11AuthServiceINtNtNtNtCsfdvvibCssgi_10hyper_util6client6legacy6client6ClientNtNtNtB6k_7connect4http13HttpConnectorB48_EEEEE14new_payload_v2
FN:127,_RNvXs7_NtCsjkCMiZKgH3A_11kona_engine6clientNtB5_12EngineClientINtNtNtCs1aheteX9J7U_17op_alloy_provider3ext6engine11OpEngineApiNtNtCs90fiQ0FreEW_13alloy_network3any10AnyNetworkINtCs7f4LQVE8LGp_20alloy_transport_http4HttpINtNtB2Q_15hyper_transport11HyperClientINtNtCsczRRrLwzuhn_14http_body_util4full4FullNtNtCsgKRRzl9x21L_16alloy_primitives6bytes_5BytesEINtNtNtB2Q_6layers4auth11AuthServiceINtNtNtNtCsfdvvibCssgi_10hyper_util6client6legacy6client6ClientNtNtNtB6k_7connect4http13HttpConnectorB48_EEEEE14new_payload_v3
FN:138,_RNvXs7_NtCsjkCMiZKgH3A_11kona_engine6clientNtB5_12EngineClientINtNtNtCs1aheteX9J7U_17op_alloy_provider3ext6engine11OpEngineApiNtNtCs90fiQ0FreEW_13alloy_network3any10AnyNetworkINtCs7f4LQVE8LGp_20alloy_transport_http4HttpINtNtB2Q_15hyper_transport11HyperClientINtNtCsczRRrLwzuhn_14http_body_util4full4FullNtNtCsgKRRzl9x21L_16alloy_primitives6bytes_5BytesEINtNtNtB2Q_6layers4auth11AuthServiceINtNtNtNtCsfdvvibCssgi_10hyper_util6client6legacy6client6ClientNtNtNtB6k_7connect4http13HttpConnectorB48_EEEEE14new_payload_v4
FN:231,_RNvXs7_NtCsjkCMiZKgH3A_11kona_engine6clientNtB5_12EngineClientINtNtNtCs1aheteX9J7U_17op_alloy_provider3ext6engine11OpEngineApiNtNtCs90fiQ0FreEW_13alloy_network3any10AnyNetworkINtCs7f4LQVE8LGp_20alloy_transport_http4HttpINtNtB2Q_15hyper_transport11HyperClientINtNtCsczRRrLwzuhn_14http_body_util4full4FullNtNtCsgKRRzl9x21L_16alloy_primitives6bytes_5BytesEINtNtNtB2Q_6layers4auth11AuthServiceINtNtNtNtCsfdvvibCssgi_10hyper_util6client6legacy6client6ClientNtNtNtB6k_7connect4http13HttpConnectorB48_EEEEE21exchange_capabilities
FN:221,_RNvXs7_NtCsjkCMiZKgH3A_11kona_engine6clientNtB5_12EngineClientINtNtNtCs1aheteX9J7U_17op_alloy_provider3ext6engine11OpEngineApiNtNtCs90fiQ0FreEW_13alloy_network3any10AnyNetworkINtCs7f4LQVE8LGp_20alloy_transport_http4HttpINtNtB2Q_15hyper_transport11HyperClientINtNtCsczRRrLwzuhn_14http_body_util4full4FullNtNtCsgKRRzl9x21L_16alloy_primitives6bytes_5BytesEINtNtNtB2Q_6layers4auth11AuthServiceINtNtNtNtCsfdvvibCssgi_10hyper_util6client6legacy6client6ClientNtNtNtB6k_7connect4http13HttpConnectorB48_EEEEE21get_client_version_v1
FN:149,_RNvXs7_NtCsjkCMiZKgH3A_11kona_engine6clientNtB5_12EngineClientINtNtNtCs1aheteX9J7U_17op_alloy_provider3ext6engine11OpEngineApiNtNtCs90fiQ0FreEW_13alloy_network3any10AnyNetworkINtCs7f4LQVE8LGp_20alloy_transport_http4HttpINtNtB2Q_15hyper_transport11HyperClientINtNtCsczRRrLwzuhn_14http_body_util4full4FullNtNtCsgKRRzl9x21L_16alloy_primitives6bytes_5BytesEINtNtNtB2Q_6layers4auth11AuthServiceINtNtNtNtCsfdvvibCssgi_10hyper_util6client6legacy6client6ClientNtNtNtB6k_7connect4http13HttpConnectorB48_EEEEE22fork_choice_updated_v2
FN:160,_RNvXs7_NtCsjkCMiZKgH3A_11kona_engine6clientNtB5_12EngineClientINtNtNtCs1aheteX9J7U_17op_alloy_provider3ext6engine11OpEngineApiNtNtCs90fiQ0FreEW_13alloy_network3any10AnyNetworkINtCs7f4LQVE8LGp_20alloy_transport_http4HttpINtNtB2Q_15hyper_transport11HyperClientINtNtCsczRRrLwzuhn_14http_body_util4full4FullNtNtCsgKRRzl9x21L_16alloy_primitives6bytes_5BytesEINtNtNtB2Q_6layers4auth11AuthServiceINtNtNtNtCsfdvvibCssgi_10hyper_util6client6legacy6client6ClientNtNtNtB6k_7connect4http13HttpConnectorB48_EEEEE22fork_choice_updated_v3
FN:200,_RNvXs7_NtCsjkCMiZKgH3A_11kona_engine6clientNtB5_12EngineClientINtNtNtCs1aheteX9J7U_17op_alloy_provider3ext6engine11OpEngineApiNtNtCs90fiQ0FreEW_13alloy_network3any10AnyNetworkINtCs7f4LQVE8LGp_20alloy_transport_http4HttpINtNtB2Q_15hyper_transport11HyperClientINtNtCsczRRrLwzuhn_14http_body_util4full4FullNtNtCsgKRRzl9x21L_16alloy_primitives6bytes_5BytesEINtNtNtB2Q_6layers4auth11AuthServiceINtNtNtNtCsfdvvibCssgi_10hyper_util6client6legacy6client6ClientNtNtNtB6k_7connect4http13HttpConnectorB48_EEEEE29get_payload_bodies_by_hash_v1
FN:211,_RNvXs7_NtCsjkCMiZKgH3A_11kona_engine6clientNtB5_12EngineClientINtNtNtCs1aheteX9J7U_17op_alloy_provider3ext6engine11OpEngineApiNtNtCs90fiQ0FreEW_13alloy_network3any10AnyNetworkINtCs7f4LQVE8LGp_20alloy_transport_http4HttpINtNtB2Q_15hyper_transport11HyperClientINtNtCsczRRrLwzuhn_14http_body_util4full4FullNtNtCsgKRRzl9x21L_16alloy_primitives6bytes_5BytesEINtNtNtB2Q_6layers4auth11AuthServiceINtNtNtNtCsfdvvibCssgi_10hyper_util6client6legacy6client6ClientNtNtNtB6k_7connect4http13HttpConnectorB48_EEEEE30get_payload_bodies_by_range_v1
FNDA:0,_RINvMNtCsjkCMiZKgH3A_11kona_engine6clientNtB3_12EngineClient10rpc_clientpEB5_
FNDA:0,_RNCNvMNtCsjkCMiZKgH3A_11kona_engine6clientNtB4_12EngineClient17l2_block_by_label0B6_
FNDA:0,_RNCNvMNtCsjkCMiZKgH3A_11kona_engine6clientNtB4_12EngineClient22l2_block_info_by_label0B6_
FNDA:0,_RNCNvXs7_NtCsjkCMiZKgH3A_11kona_engine6clientNtB7_12EngineClientINtNtNtCs1aheteX9J7U_17op_alloy_provider3ext6engine11OpEngineApiNtNtCs90fiQ0FreEW_13alloy_network3any10AnyNetworkINtCs7f4LQVE8LGp_20alloy_transport_http4HttpINtNtB2S_15hyper_transport11HyperClientINtNtCsczRRrLwzuhn_14http_body_util4full4FullNtNtCsgKRRzl9x21L_16alloy_primitives6bytes_5BytesEINtNtNtB2S_6layers4auth11AuthServiceINtNtNtNtCsfdvvibCssgi_10hyper_util6client6legacy6client6ClientNtNtNtB6m_7connect4http13HttpConnectorB4a_EEEEE14get_payload_v20B9_
FNDA:0,_RNCNvXs7_NtCsjkCMiZKgH3A_11kona_engine6clientNtB7_12EngineClientINtNtNtCs1aheteX9J7U_17op_alloy_provider3ext6engine11OpEngineApiNtNtCs90fiQ0FreEW_13alloy_network3any10AnyNetworkINtCs7f4LQVE8LGp_20alloy_transport_http4HttpINtNtB2S_15hyper_transport11HyperClientINtNtCsczRRrLwzuhn_14http_body_util4full4FullNtNtCsgKRRzl9x21L_16alloy_primitives6bytes_5BytesEINtNtNtB2S_6layers4auth11AuthServiceINtNtNtNtCsfdvvibCssgi_10hyper_util6client6legacy6client6ClientNtNtNtB6m_7connect4http13HttpConnectorB4a_EEEEE14get_payload_v30B9_
FNDA:0,_RNCNvXs7_NtCsjkCMiZKgH3A_11kona_engine6clientNtB7_12EngineClientINtNtNtCs1aheteX9J7U_17op_alloy_provider3ext6engine11OpEngineApiNtNtCs90fiQ0FreEW_13alloy_network3any10AnyNetworkINtCs7f4LQVE8LGp_20alloy_transport_http4HttpINtNtB2S_15hyper_transport11HyperClientINtNtCsczRRrLwzuhn_14http_body_util4full4FullNtNtCsgKRRzl9x21L_16alloy_primitives6bytes_5BytesEINtNtNtB2S_6layers4auth11AuthServiceINtNtNtNtCsfdvvibCssgi_10hyper_util6client6legacy6client6ClientNtNtNtB6m_7connect4http13HttpConnectorB4a_EEEEE14get_payload_v40B9_
FNDA:0,_RNCNvXs7_NtCsjkCMiZKgH3A_11kona_engine6clientNtB7_12EngineClientINtNtNtCs1aheteX9J7U_17op_alloy_provider3ext6engine11OpEngineApiNtNtCs90fiQ0FreEW_13alloy_network3any10AnyNetworkINtCs7f4LQVE8LGp_20alloy_transport_http4HttpINtNtB2S_15hyper_transport11HyperClientINtNtCsczRRrLwzuhn_14http_body_util4full4FullNtNtCsgKRRzl9x21L_16alloy_primitives6bytes_5BytesEINtNtNtB2S_6layers4auth11AuthServiceINtNtNtNtCsfdvvibCssgi_10hyper_util6client6legacy6client6ClientNtNtNtB6m_7connect4http13HttpConnectorB4a_EEEEE14new_payload_v20B9_
FNDA:0,_RNCNvXs7_NtCsjkCMiZKgH3A_11kona_engine6clientNtB7_12EngineClientINtNtNtCs1aheteX9J7U_17op_alloy_provider3ext6engine11OpEngineApiNtNtCs90fiQ0FreEW_13alloy_network3any10AnyNetworkINtCs7f4LQVE8LGp_20alloy_transport_http4HttpINtNtB2S_15hyper_transport11HyperClientINtNtCsczRRrLwzuhn_14http_body_util4full4FullNtNtCsgKRRzl9x21L_16alloy_primitives6bytes_5BytesEINtNtNtB2S_6layers4auth11AuthServiceINtNtNtNtCsfdvvibCssgi_10hyper_util6client6legacy6client6ClientNtNtNtB6m_7connect4http13HttpConnectorB4a_EEEEE14new_payload_v30B9_
FNDA:0,_RNCNvXs7_NtCsjkCMiZKgH3A_11kona_engine6clientNtB7_12EngineClientINtNtNtCs1aheteX9J7U_17op_alloy_provider3ext6engine11OpEngineApiNtNtCs90fiQ0FreEW_13alloy_network3any10AnyNetworkINtCs7f4LQVE8LGp_20alloy_transport_http4HttpINtNtB2S_15hyper_transport11HyperClientINtNtCsczRRrLwzuhn_14http_body_util4full4FullNtNtCsgKRRzl9x21L_16alloy_primitives6bytes_5BytesEINtNtNtB2S_6layers4auth11AuthServiceINtNtNtNtCsfdvvibCssgi_10hyper_util6client6legacy6client6ClientNtNtNtB6m_7connect4http13HttpConnectorB4a_EEEEE14new_payload_v40B9_
FNDA:0,_RNCNvXs7_NtCsjkCMiZKgH3A_11kona_engine6clientNtB7_12EngineClientINtNtNtCs1aheteX9J7U_17op_alloy_provider3ext6engine11OpEngineApiNtNtCs90fiQ0FreEW_13alloy_network3any10AnyNetworkINtCs7f4LQVE8LGp_20alloy_transport_http4HttpINtNtB2S_15hyper_transport11HyperClientINtNtCsczRRrLwzuhn_14http_body_util4full4FullNtNtCsgKRRzl9x21L_16alloy_primitives6bytes_5BytesEINtNtNtB2S_6layers4auth11AuthServiceINtNtNtNtCsfdvvibCssgi_10hyper_util6client6legacy6client6ClientNtNtNtB6m_7connect4http13HttpConnectorB4a_EEEEE21exchange_capabilities0B9_
FNDA:0,_RNCNvXs7_NtCsjkCMiZKgH3A_11kona_engine6clientNtB7_12EngineClientINtNtNtCs1aheteX9J7U_17op_alloy_provider3ext6engine11OpEngineApiNtNtCs90fiQ0FreEW_13alloy_network3any10AnyNetworkINtCs7f4LQVE8LGp_20alloy_transport_http4HttpINtNtB2S_15hyper_transport11HyperClientINtNtCsczRRrLwzuhn_14http_body_util4full4FullNtNtCsgKRRzl9x21L_16alloy_primitives6bytes_5BytesEINtNtNtB2S_6layers4auth11AuthServiceINtNtNtNtCsfdvvibCssgi_10hyper_util6client6legacy6client6ClientNtNtNtB6m_7connect4http13HttpConnectorB4a_EEEEE21get_client_version_v10B9_
FNDA:0,_RNCNvXs7_NtCsjkCMiZKgH3A_11kona_engine6clientNtB7_12EngineClientINtNtNtCs1aheteX9J7U_17op_alloy_provider3ext6engine11OpEngineApiNtNtCs90fiQ0FreEW_13alloy_network3any10AnyNetworkINtCs7f4LQVE8LGp_20alloy_transport_http4HttpINtNtB2S_15hyper_transport11HyperClientINtNtCsczRRrLwzuhn_14http_body_util4full4FullNtNtCsgKRRzl9x21L_16alloy_primitives6bytes_5BytesEINtNtNtB2S_6layers4auth11AuthServiceINtNtNtNtCsfdvvibCssgi_10hyper_util6client6legacy6client6ClientNtNtNtB6m_7connect4http13HttpConnectorB4a_EEEEE22fork_choice_updated_v20B9_
FNDA:0,_RNCNvXs7_NtCsjkCMiZKgH3A_11kona_engine6clientNtB7_12EngineClientINtNtNtCs1aheteX9J7U_17op_alloy_provider3ext6engine11OpEngineApiNtNtCs90fiQ0FreEW_13alloy_network3any10AnyNetworkINtCs7f4LQVE8LGp_20alloy_transport_http4HttpINtNtB2S_15hyper_transport11HyperClientINtNtCsczRRrLwzuhn_14http_body_util4full4FullNtNtCsgKRRzl9x21L_16alloy_primitives6bytes_5BytesEINtNtNtB2S_6layers4auth11AuthServiceINtNtNtNtCsfdvvibCssgi_10hyper_util6client6legacy6client6ClientNtNtNtB6m_7connect4http13HttpConnectorB4a_EEEEE22fork_choice_updated_v30B9_
FNDA:0,_RNCNvXs7_NtCsjkCMiZKgH3A_11kona_engine6clientNtB7_12EngineClientINtNtNtCs1aheteX9J7U_17op_alloy_provider3ext6engine11OpEngineApiNtNtCs90fiQ0FreEW_13alloy_network3any10AnyNetworkINtCs7f4LQVE8LGp_20alloy_transport_http4HttpINtNtB2S_15hyper_transport11HyperClientINtNtCsczRRrLwzuhn_14http_body_util4full4FullNtNtCsgKRRzl9x21L_16alloy_primitives6bytes_5BytesEINtNtNtB2S_6layers4auth11AuthServiceINtNtNtNtCsfdvvibCssgi_10hyper_util6client6legacy6client6ClientNtNtNtB6m_7connect4http13HttpConnectorB4a_EEEEE29get_payload_bodies_by_hash_v10B9_
FNDA:0,_RNCNvXs7_NtCsjkCMiZKgH3A_11kona_engine6clientNtB7_12EngineClientINtNtNtCs1aheteX9J7U_17op_alloy_provider3ext6engine11OpEngineApiNtNtCs90fiQ0FreEW_13alloy_network3any10AnyNetworkINtCs7f4LQVE8LGp_20alloy_transport_http4HttpINtNtB2S_15hyper_transport11HyperClientINtNtCsczRRrLwzuhn_14http_body_util4full4FullNtNtCsgKRRzl9x21L_16alloy_primitives6bytes_5BytesEINtNtNtB2S_6layers4auth11AuthServiceINtNtNtNtCsfdvvibCssgi_10hyper_util6client6legacy6client6ClientNtNtNtB6m_7connect4http13HttpConnectorB4a_EEEEE30get_payload_bodies_by_range_v10B9_
FNDA:0,_RNvMNtCsjkCMiZKgH3A_11kona_engine6clientNtB2_12EngineClient17l2_block_by_label
FNDA:0,_RNvMNtCsjkCMiZKgH3A_11kona_engine6clientNtB2_12EngineClient22l2_block_info_by_label
FNDA:0,_RNvMNtCsjkCMiZKgH3A_11kona_engine6clientNtB2_12EngineClient8new_http
FNDA:0,_RNvXs7_NtCsjkCMiZKgH3A_11kona_engine6clientNtB5_12EngineClientINtNtNtCs1aheteX9J7U_17op_alloy_provider3ext6engine11OpEngineApiNtNtCs90fiQ0FreEW_13alloy_network3any10AnyNetworkINtCs7f4LQVE8LGp_20alloy_transport_http4HttpINtNtB2Q_15hyper_transport11HyperClientINtNtCsczRRrLwzuhn_14http_body_util4full4FullNtNtCsgKRRzl9x21L_16alloy_primitives6bytes_5BytesEINtNtNtB2Q_6layers4auth11AuthServiceINtNtNtNtCsfdvvibCssgi_10hyper_util6client6legacy6client6ClientNtNtNtB6k_7connect4http13HttpConnectorB48_EEEEE14get_payload_v2
FNDA:0,_RNvXs7_NtCsjkCMiZKgH3A_11kona_engine6clientNtB5_12EngineClientINtNtNtCs1aheteX9J7U_17op_alloy_provider3ext6engine11OpEngineApiNtNtCs90fiQ0FreEW_13alloy_network3any10AnyNetworkINtCs7f4LQVE8LGp_20alloy_transport_http4HttpINtNtB2Q_15hyper_transport11HyperClientINtNtCsczRRrLwzuhn_14http_body_util4full4FullNtNtCsgKRRzl9x21L_16alloy_primitives6bytes_5BytesEINtNtNtB2Q_6layers4auth11AuthServiceINtNtNtNtCsfdvvibCssgi_10hyper_util6client6legacy6client6ClientNtNtNtB6k_7connect4http13HttpConnectorB48_EEEEE14get_payload_v3
FNDA:0,_RNvXs7_NtCsjkCMiZKgH3A_11kona_engine6clientNtB5_12EngineClientINtNtNtCs1aheteX9J7U_17op_alloy_provider3ext6engine11OpEngineApiNtNtCs90fiQ0FreEW_13alloy_network3any10AnyNetworkINtCs7f4LQVE8LGp_20alloy_transport_http4HttpINtNtB2Q_15hyper_transport11HyperClientINtNtCsczRRrLwzuhn_14http_body_util4full4FullNtNtCsgKRRzl9x21L_16alloy_primitives6bytes_5BytesEINtNtNtB2Q_6layers4auth11AuthServiceINtNtNtNtCsfdvvibCssgi_10hyper_util6client6legacy6client6ClientNtNtNtB6k_7connect4http13HttpConnectorB48_EEEEE14get_payload_v4
FNDA:0,_RNvXs7_NtCsjkCMiZKgH3A_11kona_engine6clientNtB5_12EngineClientINtNtNtCs1aheteX9J7U_17op_alloy_provider3ext6engine11OpEngineApiNtNtCs90fiQ0FreEW_13alloy_network3any10AnyNetworkINtCs7f4LQVE8LGp_20alloy_transport_http4HttpINtNtB2Q_15hyper_transport11HyperClientINtNtCsczRRrLwzuhn_14http_body_util4full4FullNtNtCsgKRRzl9x21L_16alloy_primitives6bytes_5BytesEINtNtNtB2Q_6layers4auth11AuthServiceINtNtNtNtCsfdvvibCssgi_10hyper_util6client6legacy6client6ClientNtNtNtB6k_7connect4http13HttpConnectorB48_EEEEE14new_payload_v2
FNDA:0,_RNvXs7_NtCsjkCMiZKgH3A_11kona_engine6clientNtB5_12EngineClientINtNtNtCs1aheteX9J7U_17op_alloy_provider3ext6engine11OpEngineApiNtNtCs90fiQ0FreEW_13alloy_network3any10AnyNetworkINtCs7f4LQVE8LGp_20alloy_transport_http4HttpINtNtB2Q_15hyper_transport11HyperClientINtNtCsczRRrLwzuhn_14http_body_util4full4FullNtNtCsgKRRzl9x21L_16alloy_primitives6bytes_5BytesEINtNtNtB2Q_6layers4auth11AuthServiceINtNtNtNtCsfdvvibCssgi_10hyper_util6client6legacy6client6ClientNtNtNtB6k_7connect4http13HttpConnectorB48_EEEEE14new_payload_v3
FNDA:0,_RNvXs7_NtCsjkCMiZKgH3A_11kona_engine6clientNtB5_12EngineClientINtNtNtCs1aheteX9J7U_17op_alloy_provider3ext6engine11OpEngineApiNtNtCs90fiQ0FreEW_13alloy_network3any10AnyNetworkINtCs7f4LQVE8LGp_20alloy_transport_http4HttpINtNtB2Q_15hyper_transport11HyperClientINtNtCsczRRrLwzuhn_14http_body_util4full4FullNtNtCsgKRRzl9x21L_16alloy_primitives6bytes_5BytesEINtNtNtB2Q_6layers4auth11AuthServiceINtNtNtNtCsfdvvibCssgi_10hyper_util6client6legacy6client6ClientNtNtNtB6k_7connect4http13HttpConnectorB48_EEEEE14new_payload_v4
FNDA:0,_RNvXs7_NtCsjkCMiZKgH3A_11kona_engine6clientNtB5_12EngineClientINtNtNtCs1aheteX9J7U_17op_alloy_provider3ext6engine11OpEngineApiNtNtCs90fiQ0FreEW_13alloy_network3any10AnyNetworkINtCs7f4LQVE8LGp_20alloy_transport_http4HttpINtNtB2Q_15hyper_transport11HyperClientINtNtCsczRRrLwzuhn_14http_body_util4full4FullNtNtCsgKRRzl9x21L_16alloy_primitives6bytes_5BytesEINtNtNtB2Q_6layers4auth11AuthServiceINtNtNtNtCsfdvvibCssgi_10hyper_util6client6legacy6client6ClientNtNtNtB6k_7connect4http13HttpConnectorB48_EEEEE21exchange_capabilities
FNDA:0,_RNvXs7_NtCsjkCMiZKgH3A_11kona_engine6clientNtB5_12EngineClientINtNtNtCs1aheteX9J7U_17op_alloy_provider3ext6engine11OpEngineApiNtNtCs90fiQ0FreEW_13alloy_network3any10AnyNetworkINtCs7f4LQVE8LGp_20alloy_transport_http4HttpINtNtB2Q_15hyper_transport11HyperClientINtNtCsczRRrLwzuhn_14http_body_util4full4FullNtNtCsgKRRzl9x21L_16alloy_primitives6bytes_5BytesEINtNtNtB2Q_6layers4auth11AuthServiceINtNtNtNtCsfdvvibCssgi_10hyper_util6client6legacy6client6ClientNtNtNtB6k_7connect4http13HttpConnectorB48_EEEEE21get_client_version_v1
FNDA:0,_RNvXs7_NtCsjkCMiZKgH3A_11kona_engine6clientNtB5_12EngineClientINtNtNtCs1aheteX9J7U_17op_alloy_provider3ext6engine11OpEngineApiNtNtCs90fiQ0FreEW_13alloy_network3any10AnyNetworkINtCs7f4LQVE8LGp_20alloy_transport_http4HttpINtNtB2Q_15hyper_transport11HyperClientINtNtCsczRRrLwzuhn_14http_body_util4full4FullNtNtCsgKRRzl9x21L_16alloy_primitives6bytes_5BytesEINtNtNtB2Q_6layers4auth11AuthServiceINtNtNtNtCsfdvvibCssgi_10hyper_util6client6legacy6client6ClientNtNtNtB6k_7connect4http13HttpConnectorB48_EEEEE22fork_choice_updated_v2
FNDA:0,_RNvXs7_NtCsjkCMiZKgH3A_11kona_engine6clientNtB5_12EngineClientINtNtNtCs1aheteX9J7U_17op_alloy_provider3ext6engine11OpEngineApiNtNtCs90fiQ0FreEW_13alloy_network3any10AnyNetworkINtCs7f4LQVE8LGp_20alloy_transport_http4HttpINtNtB2Q_15hyper_transport11HyperClientINtNtCsczRRrLwzuhn_14http_body_util4full4FullNtNtCsgKRRzl9x21L_16alloy_primitives6bytes_5BytesEINtNtNtB2Q_6layers4auth11AuthServiceINtNtNtNtCsfdvvibCssgi_10hyper_util6client6legacy6client6ClientNtNtNtB6k_7connect4http13HttpConnectorB48_EEEEE22fork_choice_updated_v3
FNDA:0,_RNvXs7_NtCsjkCMiZKgH3A_11kona_engine6clientNtB5_12EngineClientINtNtNtCs1aheteX9J7U_17op_alloy_provider3ext6engine11OpEngineApiNtNtCs90fiQ0FreEW_13alloy_network3any10AnyNetworkINtCs7f4LQVE8LGp_20alloy_transport_http4HttpINtNtB2Q_15hyper_transport11HyperClientINtNtCsczRRrLwzuhn_14http_body_util4full4FullNtNtCsgKRRzl9x21L_16alloy_primitives6bytes_5BytesEINtNtNtB2Q_6layers4auth11AuthServiceINtNtNtNtCsfdvvibCssgi_10hyper_util6client6legacy6client6ClientNtNtNtB6k_7connect4http13HttpConnectorB48_EEEEE29get_payload_bodies_by_hash_v1
FNDA:0,_RNvXs7_NtCsjkCMiZKgH3A_11kona_engine6clientNtB5_12EngineClientINtNtNtCs1aheteX9J7U_17op_alloy_provider3ext6engine11OpEngineApiNtNtCs90fiQ0FreEW_13alloy_network3any10AnyNetworkINtCs7f4LQVE8LGp_20alloy_transport_http4HttpINtNtB2Q_15hyper_transport11HyperClientINtNtCsczRRrLwzuhn_14http_body_util4full4FullNtNtCsgKRRzl9x21L_16alloy_primitives6bytes_5BytesEINtNtNtB2Q_6layers4auth11AuthServiceINtNtNtNtCsfdvvibCssgi_10hyper_util6client6legacy6client6ClientNtNtNtB6k_7connect4http13HttpConnectorB48_EEEEE30get_payload_bodies_by_range_v1
FNF:30
FNH:0
DA:66,0
DA:67,0
DA:68,0
DA:69,0
DA:70,0
DA:71,0
DA:72,0
DA:73,0
DA:74,0
DA:75,0
DA:78,0
DA:79,0
DA:80,0
DA:81,0
DA:82,0
DA:83,0
DA:86,0
DA:87,0
DA:88,0
DA:89,0
DA:90,0
DA:91,0
DA:94,0
DA:95,0
DA:96,0
DA:97,0
DA:98,0
DA:99,0
DA:100,0
DA:102,0
DA:103,0
DA:111,0
DA:112,0
DA:113,0
DA:114,0
DA:115,0
DA:116,0
DA:122,0
DA:123,0
DA:124,0
DA:125,0
DA:126,0
DA:127,0
DA:133,0
DA:134,0
DA:135,0
DA:136,0
DA:137,0
DA:138,0
DA:144,0
DA:145,0
DA:146,0
DA:147,0
DA:148,0
DA:149,0
DA:155,0
DA:156,0
DA:157,0
DA:158,0
DA:159,0
DA:160,0
DA:165,0
DA:166,0
DA:167,0
DA:168,0
DA:169,0
DA:170,0
DA:175,0
DA:176,0
DA:177,0
DA:178,0
DA:179,0
DA:180,0
DA:185,0
DA:186,0
DA:187,0
DA:188,0
DA:189,0
DA:190,0
DA:195,0
DA:196,0
DA:197,0
DA:198,0
DA:199,0
DA:200,0
DA:206,0
DA:207,0
DA:208,0
DA:209,0
DA:210,0
DA:211,0
DA:216,0
DA:217,0
DA:218,0
DA:219,0
DA:220,0
DA:221,0
DA:226,0
DA:227,0
DA:228,0
DA:229,0
DA:230,0
DA:231,0
BRF:0
BRH:0
LF:117
LH:0
end_of_record
SF:/Users/andreasbigger/kona/crates/node/engine/src/kinds.rs
FN:25,_RNvMNtCsjkCMiZKgH3A_11kona_engine5kindsNtB2_10EngineKind33supports_post_finalization_elsync
FNDA:0,_RNvMNtCsjkCMiZKgH3A_11kona_engine5kindsNtB2_10EngineKind33supports_post_finalization_elsync
FNF:1
FNH:0
DA:25,0
DA:26,0
DA:27,0
DA:28,0
DA:30,0
BRF:0
BRH:0
LF:5
LH:0
end_of_record
SF:/Users/andreasbigger/kona/crates/node/engine/src/state/builder.rs
FN:81,_RNCNvMNtNtCsjkCMiZKgH3A_11kona_engine5state7builderNtB4_18EngineStateBuilder15fetch_safe_head0B8_
FN:72,_RNCNvMNtNtCsjkCMiZKgH3A_11kona_engine5state7builderNtB4_18EngineStateBuilder17fetch_unsafe_head0B8_
FN:97,_RNCNvMNtNtCsjkCMiZKgH3A_11kona_engine5state7builderNtB4_18EngineStateBuilder20fetch_finalized_head0B8_
FN:120,_RNCNvMNtNtCsjkCMiZKgH3A_11kona_engine5state7builderNtB4_18EngineStateBuilder5build0B8_
FN:81,_RNvMNtNtCsjkCMiZKgH3A_11kona_engine5state7builderNtB2_18EngineStateBuilder15fetch_safe_head
FN:114,_RNvMNtNtCsjkCMiZKgH3A_11kona_engine5state7builderNtB2_18EngineStateBuilder16with_sync_status
FN:72,_RNvMNtNtCsjkCMiZKgH3A_11kona_engine5state7builderNtB2_18EngineStateBuilder17fetch_unsafe_head
FN:97,_RNvMNtNtCsjkCMiZKgH3A_11kona_engine5state7builderNtB2_18EngineStateBuilder20fetch_finalized_head
FN:58,_RNvMNtNtCsjkCMiZKgH3A_11kona_engine5state7builderNtB2_18EngineStateBuilder3new
FN:120,_RNvMNtNtCsjkCMiZKgH3A_11kona_engine5state7builderNtB2_18EngineStateBuilder5build
FNDA:0,_RNCNvMNtNtCsjkCMiZKgH3A_11kona_engine5state7builderNtB4_18EngineStateBuilder15fetch_safe_head0B8_
FNDA:0,_RNCNvMNtNtCsjkCMiZKgH3A_11kona_engine5state7builderNtB4_18EngineStateBuilder17fetch_unsafe_head0B8_
FNDA:0,_RNCNvMNtNtCsjkCMiZKgH3A_11kona_engine5state7builderNtB4_18EngineStateBuilder20fetch_finalized_head0B8_
FNDA:0,_RNCNvMNtNtCsjkCMiZKgH3A_11kona_engine5state7builderNtB4_18EngineStateBuilder5build0B8_
FNDA:0,_RNvMNtNtCsjkCMiZKgH3A_11kona_engine5state7builderNtB2_18EngineStateBuilder15fetch_safe_head
FNDA:0,_RNvMNtNtCsjkCMiZKgH3A_11kona_engine5state7builderNtB2_18EngineStateBuilder16with_sync_status
FNDA:0,_RNvMNtNtCsjkCMiZKgH3A_11kona_engine5state7builderNtB2_18EngineStateBuilder17fetch_unsafe_head
FNDA:0,_RNvMNtNtCsjkCMiZKgH3A_11kona_engine5state7builderNtB2_18EngineStateBuilder20fetch_finalized_head
FNDA:0,_RNvMNtNtCsjkCMiZKgH3A_11kona_engine5state7builderNtB2_18EngineStateBuilder3new
FNDA:0,_RNvMNtNtCsjkCMiZKgH3A_11kona_engine5state7builderNtB2_18EngineStateBuilder5build
FNF:10
FNH:0
DA:58,0
DA:59,0
DA:60,0
DA:61,0
DA:62,0
DA:63,0
DA:64,0
DA:65,0
DA:66,0
DA:67,0
DA:68,0
DA:69,0
DA:72,0
DA:73,0
DA:75,0
DA:76,0
DA:77,0
DA:78,0
DA:81,0
DA:82,0
DA:83,0
DA:85,0
DA:87,0
DA:88,0
DA:90,0
DA:92,0
DA:93,0
DA:94,0
DA:97,0
DA:98,0
DA:99,0
DA:100,0
DA:101,0
DA:102,0
DA:104,0
DA:105,0
DA:107,0
DA:109,0
DA:110,0
DA:111,0
DA:114,0
DA:115,0
DA:116,0
DA:117,0
DA:120,0
DA:121,0
DA:122,0
DA:123,0
DA:124,0
DA:125,0
DA:126,0
DA:127,0
DA:128,0
DA:130,0
DA:131,0
DA:132,0
DA:133,0
DA:135,0
DA:136,0
DA:137,0
DA:138,0
DA:139,0
DA:140,0
DA:141,0
DA:142,0
DA:143,0
DA:144,0
DA:145,0
DA:146,0
DA:147,0
DA:148,0
DA:149,0
DA:150,0
DA:151,0
BRF:0
BRH:0
LF:78
LH:0
end_of_record
SF:/Users/andreasbigger/kona/crates/node/engine/src/state/core.rs
FN:73,_RNvMNtNtCsjkCMiZKgH3A_11kona_engine5state4coreNtB2_11EngineState11unsafe_head
FN:129,_RNvMNtNtCsjkCMiZKgH3A_11kona_engine5state4coreNtB2_11EngineState13set_safe_head
FN:98,_RNvMNtNtCsjkCMiZKgH3A_11kona_engine5state4coreNtB2_11EngineState14finalized_head
FN:88,_RNvMNtNtCsjkCMiZKgH3A_11kona_engine5state4coreNtB2_11EngineState15local_safe_head
FN:108,_RNvMNtNtCsjkCMiZKgH3A_11kona_engine5state4coreNtB2_11EngineState15set_unsafe_head
FN:78,_RNvMNtNtCsjkCMiZKgH3A_11kona_engine5state4coreNtB2_11EngineState17cross_unsafe_head
FN:83,_RNvMNtNtCsjkCMiZKgH3A_11kona_engine5state4coreNtB2_11EngineState17pending_safe_head
FN:103,_RNvMNtNtCsjkCMiZKgH3A_11kona_engine5state4coreNtB2_11EngineState18backup_unsafe_head
FN:135,_RNvMNtNtCsjkCMiZKgH3A_11kona_engine5state4coreNtB2_11EngineState18set_finalized_head
FN:68,_RNvMNtNtCsjkCMiZKgH3A_11kona_engine5state4coreNtB2_11EngineState19needs_consolidation
FN:124,_RNvMNtNtCsjkCMiZKgH3A_11kona_engine5state4coreNtB2_11EngineState19set_local_safe_head
FN:114,_RNvMNtNtCsjkCMiZKgH3A_11kona_engine5state4coreNtB2_11EngineState21set_cross_unsafe_head
FN:119,_RNvMNtNtCsjkCMiZKgH3A_11kona_engine5state4coreNtB2_11EngineState21set_pending_safe_head
FN:141,_RNvMNtNtCsjkCMiZKgH3A_11kona_engine5state4coreNtB2_11EngineState22set_backup_unsafe_head
FN:53,_RNvMNtNtCsjkCMiZKgH3A_11kona_engine5state4coreNtB2_11EngineState23create_forkchoice_state
FN:93,_RNvMNtNtCsjkCMiZKgH3A_11kona_engine5state4coreNtB2_11EngineState9safe_head
FNDA:0,_RNvMNtNtCsjkCMiZKgH3A_11kona_engine5state4coreNtB2_11EngineState11unsafe_head
FNDA:0,_RNvMNtNtCsjkCMiZKgH3A_11kona_engine5state4coreNtB2_11EngineState13set_safe_head
FNDA:0,_RNvMNtNtCsjkCMiZKgH3A_11kona_engine5state4coreNtB2_11EngineState14finalized_head
FNDA:0,_RNvMNtNtCsjkCMiZKgH3A_11kona_engine5state4coreNtB2_11EngineState15local_safe_head
FNDA:0,_RNvMNtNtCsjkCMiZKgH3A_11kona_engine5state4coreNtB2_11EngineState15set_unsafe_head
FNDA:0,_RNvMNtNtCsjkCMiZKgH3A_11kona_engine5state4coreNtB2_11EngineState17cross_unsafe_head
FNDA:0,_RNvMNtNtCsjkCMiZKgH3A_11kona_engine5state4coreNtB2_11EngineState17pending_safe_head
FNDA:0,_RNvMNtNtCsjkCMiZKgH3A_11kona_engine5state4coreNtB2_11EngineState18backup_unsafe_head
FNDA:0,_RNvMNtNtCsjkCMiZKgH3A_11kona_engine5state4coreNtB2_11EngineState18set_finalized_head
FNDA:0,_RNvMNtNtCsjkCMiZKgH3A_11kona_engine5state4coreNtB2_11EngineState19needs_consolidation
FNDA:0,_RNvMNtNtCsjkCMiZKgH3A_11kona_engine5state4coreNtB2_11EngineState19set_local_safe_head
FNDA:0,_RNvMNtNtCsjkCMiZKgH3A_11kona_engine5state4coreNtB2_11EngineState21set_cross_unsafe_head
FNDA:0,_RNvMNtNtCsjkCMiZKgH3A_11kona_engine5state4coreNtB2_11EngineState21set_pending_safe_head
FNDA:0,_RNvMNtNtCsjkCMiZKgH3A_11kona_engine5state4coreNtB2_11EngineState22set_backup_unsafe_head
FNDA:0,_RNvMNtNtCsjkCMiZKgH3A_11kona_engine5state4coreNtB2_11EngineState23create_forkchoice_state
FNDA:0,_RNvMNtNtCsjkCMiZKgH3A_11kona_engine5state4coreNtB2_11EngineState9safe_head
FNF:16
FNH:0
DA:53,0
DA:54,0
DA:55,0
DA:56,0
DA:57,0
DA:58,0
DA:59,0
DA:68,0
DA:69,0
DA:70,0
DA:73,0
DA:74,0
DA:75,0
DA:78,0
DA:79,0
DA:80,0
DA:83,0
DA:84,0
DA:85,0
DA:88,0
DA:89,0
DA:90,0
DA:93,0
DA:94,0
DA:95,0
DA:98,0
DA:99,0
DA:100,0
DA:103,0
DA:104,0
DA:105,0
DA:108,0
DA:109,0
DA:110,0
DA:111,0
DA:114,0
DA:115,0
DA:116,0
DA:119,0
DA:120,0
DA:121,0
DA:124,0
DA:125,0
DA:126,0
DA:129,0
DA:130,0
DA:131,0
DA:132,0
DA:135,0
DA:136,0
DA:137,0
DA:138,0
DA:141,0
DA:142,0
DA:143,0
DA:144,0
BRF:0
BRH:0
LF:56
LH:0
end_of_record
SF:/Users/andreasbigger/kona/crates/node/engine/src/sync/status.rs
FN:44,_RNvMNtNtCsjkCMiZKgH3A_11kona_engine4sync6statusNtB2_10SyncStatus10is_syncing
FN:39,_RNvMNtNtCsjkCMiZKgH3A_11kona_engine4sync6statusNtB2_10SyncStatus11has_started
FN:55,_RNvXs_NtNtCsjkCMiZKgH3A_11kona_engine4sync6statusNtB4_10SyncStatusINtNtCs8dmkrYGpicx_4core7convert4FromNtNtB6_4mode8SyncModeE4from
FNDA:0,_RNvMNtNtCsjkCMiZKgH3A_11kona_engine4sync6statusNtB2_10SyncStatus10is_syncing
FNDA:0,_RNvMNtNtCsjkCMiZKgH3A_11kona_engine4sync6statusNtB2_10SyncStatus11has_started
FNDA:0,_RNvXs_NtNtCsjkCMiZKgH3A_11kona_engine4sync6statusNtB4_10SyncStatusINtNtCs8dmkrYGpicx_4core7convert4FromNtNtB6_4mode8SyncModeE4from
FNF:3
FNH:0
DA:39,0
DA:40,0
DA:41,0
DA:44,0
DA:45,0
DA:46,0
DA:51,0
DA:55,0
DA:56,0
DA:57,0
DA:58,0
DA:60,0
BRF:0
BRH:0
LF:12
LH:0
end_of_record
SF:/Users/andreasbigger/kona/crates/node/engine/src/task_queue/core.rs
FN:48,_RNCNvMNtNtCsjkCMiZKgH3A_11kona_engine10task_queue4coreNtB4_6Engine5drain0B8_
FN:29,_RNvMNtNtCsjkCMiZKgH3A_11kona_engine10task_queue4coreNtB2_6Engine3new
FN:39,_RNvMNtNtCsjkCMiZKgH3A_11kona_engine10task_queue4coreNtB2_6Engine5clear
FN:48,_RNvMNtNtCsjkCMiZKgH3A_11kona_engine10task_queue4coreNtB2_6Engine5drain
FN:34,_RNvMNtNtCsjkCMiZKgH3A_11kona_engine10task_queue4coreNtB2_6Engine7enqueue
FNDA:0,_RNCNvMNtNtCsjkCMiZKgH3A_11kona_engine10task_queue4coreNtB4_6Engine5drain0B8_
FNDA:0,_RNvMNtNtCsjkCMiZKgH3A_11kona_engine10task_queue4coreNtB2_6Engine3new
FNDA:0,_RNvMNtNtCsjkCMiZKgH3A_11kona_engine10task_queue4coreNtB2_6Engine5clear
FNDA:0,_RNvMNtNtCsjkCMiZKgH3A_11kona_engine10task_queue4coreNtB2_6Engine5drain
FNDA:0,_RNvMNtNtCsjkCMiZKgH3A_11kona_engine10task_queue4coreNtB2_6Engine7enqueue
FNF:5
FNH:0
DA:29,0
DA:30,0
DA:31,0
DA:34,0
DA:35,0
DA:36,0
DA:39,0
DA:40,0
DA:41,0
DA:48,0
DA:49,0
DA:50,0
DA:51,0
DA:52,0
DA:53,0
DA:54,0
DA:55,0
DA:56,0
DA:57,0
DA:59,0
DA:63,0
DA:64,0
BRF:0
BRH:0
LF:23
LH:0
end_of_record
SF:/Users/andreasbigger/kona/crates/node/engine/src/task_queue/tasks/build/error.rs
FN:44,_RNvXNtNtNtNtCsjkCMiZKgH3A_11kona_engine10task_queue5tasks5build5errorNtNtB6_4task15EngineTaskErrorINtNtCs8dmkrYGpicx_4core7convert4FromNtB2_14BuildTaskErrorE4from
FNDA:0,_RNvXNtNtNtNtCsjkCMiZKgH3A_11kona_engine10task_queue5tasks5build5errorNtNtB6_4task15EngineTaskErrorINtNtCs8dmkrYGpicx_4core7convert4FromNtB2_14BuildTaskErrorE4from
FNF:1
FNH:0
DA:44,0
DA:45,0
DA:46,0
DA:47,0
DA:48,0
DA:49,0
DA:50,0
DA:51,0
DA:52,0
DA:53,0
DA:54,0
DA:55,0
DA:57,0
BRF:0
BRH:0
LF:13
LH:0
end_of_record
SF:/Users/andreasbigger/kona/crates/node/engine/src/task_queue/tasks/build/task.rs
FN:98,_RNCNCNvMNtNtNtNtCsjkCMiZKgH3A_11kona_engine10task_queue5tasks5build4taskNtB6_9BuildTask11start_build00Be_
FN:70,_RNCNCNvMNtNtNtNtCsjkCMiZKgH3A_11kona_engine10task_queue5tasks5build4taskNtB6_9BuildTask11start_build0s0_0Be_
FN:70,_RNCNCNvMNtNtNtNtCsjkCMiZKgH3A_11kona_engine10task_queue5tasks5build4taskNtB6_9BuildTask11start_build0s1_0Be_
FN:164,_RNCNCNvMNtNtNtNtCsjkCMiZKgH3A_11kona_engine10task_queue5tasks5build4taskNtB6_9BuildTask24fetch_and_import_payload00Be_
FN:182,_RNCNCNvMNtNtNtNtCsjkCMiZKgH3A_11kona_engine10task_queue5tasks5build4taskNtB6_9BuildTask24fetch_and_import_payload0s0_0Be_
FN:192,_RNCNCNvMNtNtNtNtCsjkCMiZKgH3A_11kona_engine10task_queue5tasks5build4taskNtB6_9BuildTask24fetch_and_import_payload0s1_0Be_
FN:200,_RNCNCNvMNtNtNtNtCsjkCMiZKgH3A_11kona_engine10task_queue5tasks5build4taskNtB6_9BuildTask24fetch_and_import_payload0s2_0Be_
FN:210,_RNCNCNvMNtNtNtNtCsjkCMiZKgH3A_11kona_engine10task_queue5tasks5build4taskNtB6_9BuildTask24fetch_and_import_payload0s3_0Be_
FN:216,_RNCNCNvMNtNtNtNtCsjkCMiZKgH3A_11kona_engine10task_queue5tasks5build4taskNtB6_9BuildTask24fetch_and_import_payload0s4_0Be_
FN:174,_RNCNCNvMNtNtNtNtCsjkCMiZKgH3A_11kona_engine10task_queue5tasks5build4taskNtB6_9BuildTask24fetch_and_import_payload0s_0Be_
FN:67,_RNCNvMNtNtNtNtCsjkCMiZKgH3A_11kona_engine10task_queue5tasks5build4taskNtB4_9BuildTask11start_build0Bc_
FN:151,_RNCNvMNtNtNtNtCsjkCMiZKgH3A_11kona_engine10task_queue5tasks5build4taskNtB4_9BuildTask24fetch_and_import_payload0Bc_
FN:261,_RNCNvXs1_NtNtNtNtCsjkCMiZKgH3A_11kona_engine10task_queue5tasks5build4taskNtB7_9BuildTaskNtNtBb_4task13EngineTaskExt7execute0Bf_
FN:62,_RNvMNtNtNtNtCsjkCMiZKgH3A_11kona_engine10task_queue5tasks5build4taskNtB2_9BuildTask11start_build
FN:144,_RNvMNtNtNtNtCsjkCMiZKgH3A_11kona_engine10task_queue5tasks5build4taskNtB2_9BuildTask24fetch_and_import_payload
FN:36,_RNvMNtNtNtNtCsjkCMiZKgH3A_11kona_engine10task_queue5tasks5build4taskNtB2_9BuildTask3new
FN:307,_RNvXs1_NtNtNtNtCsjkCMiZKgH3A_11kona_engine10task_queue5tasks5build4taskNtB5_9BuildTaskNtNtB9_4task13EngineTaskExt7execute
FNDA:0,_RNCNCNvMNtNtNtNtCsjkCMiZKgH3A_11kona_engine10task_queue5tasks5build4taskNtB6_9BuildTask11start_build00Be_
FNDA:0,_RNCNCNvMNtNtNtNtCsjkCMiZKgH3A_11kona_engine10task_queue5tasks5build4taskNtB6_9BuildTask11start_build0s0_0Be_
FNDA:0,_RNCNCNvMNtNtNtNtCsjkCMiZKgH3A_11kona_engine10task_queue5tasks5build4taskNtB6_9BuildTask11start_build0s1_0Be_
FNDA:0,_RNCNCNvMNtNtNtNtCsjkCMiZKgH3A_11kona_engine10task_queue5tasks5build4taskNtB6_9BuildTask24fetch_and_import_payload00Be_
FNDA:0,_RNCNCNvMNtNtNtNtCsjkCMiZKgH3A_11kona_engine10task_queue5tasks5build4taskNtB6_9BuildTask24fetch_and_import_payload0s0_0Be_
FNDA:0,_RNCNCNvMNtNtNtNtCsjkCMiZKgH3A_11kona_engine10task_queue5tasks5build4taskNtB6_9BuildTask24fetch_and_import_payload0s1_0Be_
FNDA:0,_RNCNCNvMNtNtNtNtCsjkCMiZKgH3A_11kona_engine10task_queue5tasks5build4taskNtB6_9BuildTask24fetch_and_import_payload0s2_0Be_
FNDA:0,_RNCNCNvMNtNtNtNtCsjkCMiZKgH3A_11kona_engine10task_queue5tasks5build4taskNtB6_9BuildTask24fetch_and_import_payload0s3_0Be_
FNDA:0,_RNCNCNvMNtNtNtNtCsjkCMiZKgH3A_11kona_engine10task_queue5tasks5build4taskNtB6_9BuildTask24fetch_and_import_payload0s4_0Be_
FNDA:0,_RNCNCNvMNtNtNtNtCsjkCMiZKgH3A_11kona_engine10task_queue5tasks5build4taskNtB6_9BuildTask24fetch_and_import_payload0s_0Be_
FNDA:0,_RNCNvMNtNtNtNtCsjkCMiZKgH3A_11kona_engine10task_queue5tasks5build4taskNtB4_9BuildTask11start_build0Bc_
FNDA:0,_RNCNvMNtNtNtNtCsjkCMiZKgH3A_11kona_engine10task_queue5tasks5build4taskNtB4_9BuildTask24fetch_and_import_payload0Bc_
FNDA:0,_RNCNvXs1_NtNtNtNtCsjkCMiZKgH3A_11kona_engine10task_queue5tasks5build4taskNtB7_9BuildTaskNtNtBb_4task13EngineTaskExt7execute0Bf_
FNDA:0,_RNvMNtNtNtNtCsjkCMiZKgH3A_11kona_engine10task_queue5tasks5build4taskNtB2_9BuildTask11start_build
FNDA:0,_RNvMNtNtNtNtCsjkCMiZKgH3A_11kona_engine10task_queue5tasks5build4taskNtB2_9BuildTask24fetch_and_import_payload
FNDA:0,_RNvMNtNtNtNtCsjkCMiZKgH3A_11kona_engine10task_queue5tasks5build4taskNtB2_9BuildTask3new
FNDA:0,_RNvXs1_NtNtNtNtCsjkCMiZKgH3A_11kona_engine10task_queue5tasks5build4taskNtB5_9BuildTaskNtNtB9_4task13EngineTaskExt7execute
FNF:16
FNH:0
DA:36,0
DA:37,0
DA:38,0
DA:39,0
DA:40,0
DA:41,0
DA:42,0
DA:43,0
DA:62,0
DA:63,0
DA:64,0
DA:65,0
DA:66,0
DA:67,0
DA:68,0
DA:70,0
DA:71,0
DA:74,0
DA:75,0
DA:76,0
DA:77,0
DA:78,0
DA:80,0
DA:81,0
DA:82,0
DA:85,0
DA:86,0
DA:87,0
DA:90,0
DA:91,0
DA:92,0
DA:93,0
DA:94,0
DA:95,0
DA:98,0
DA:99,0
DA:100,0
DA:101,0
DA:103,0
DA:105,0
DA:107,0
DA:108,0
DA:109,0
DA:110,0
DA:113,0
DA:114,0
DA:115,0
DA:116,0
DA:117,0
DA:120,0
DA:121,0
DA:123,0
DA:124,0
DA:125,0
DA:131,0
DA:132,0
DA:144,0
DA:145,0
DA:146,0
DA:147,0
DA:148,0
DA:149,0
DA:150,0
DA:151,0
DA:152,0
DA:153,0
DA:154,0
DA:156,0
DA:157,0
DA:158,0
DA:161,0
DA:162,0
DA:164,0
DA:165,0
DA:166,0
DA:167,0
DA:168,0
DA:169,0
DA:170,0
DA:171,0
DA:172,0
DA:173,0
DA:174,0
DA:175,0
DA:176,0
DA:177,0
DA:179,0
DA:182,0
DA:183,0
DA:184,0
DA:185,0
DA:186,0
DA:187,0
DA:188,0
DA:189,0
DA:190,0
DA:191,0
DA:192,0
DA:193,0
DA:194,0
DA:195,0
DA:197,0
DA:200,0
DA:201,0
DA:202,0
DA:203,0
DA:204,0
DA:205,0
DA:206,0
DA:207,0
DA:208,0
DA:209,0
DA:210,0
DA:211,0
DA:212,0
DA:213,0
DA:215,0
DA:216,0
DA:217,0
DA:218,0
DA:219,0
DA:223,0
DA:227,0
DA:229,0
DA:231,0
DA:232,0
DA:233,0
DA:234,0
DA:235,0
DA:236,0
DA:237,0
DA:239,0
DA:241,0
DA:242,0
DA:243,0
DA:244,0
DA:246,0
DA:247,0
DA:248,0
DA:251,0
DA:252,0
DA:253,0
DA:256,0
DA:261,0
DA:264,0
DA:265,0
DA:266,0
DA:267,0
DA:268,0
DA:269,0
DA:270,0
DA:271,0
DA:272,0
DA:273,0
DA:274,0
DA:275,0
DA:276,0
DA:277,0
DA:278,0
DA:279,0
DA:280,0
DA:281,0
DA:282,0
DA:283,0
DA:284,0
DA:285,0
DA:286,0
DA:287,0
DA:288,0
DA:289,0
DA:290,0
DA:291,0
DA:292,0
DA:293,0
DA:294,0
DA:295,0
DA:296,0
DA:302,0
DA:303,0
DA:306,0
DA:307,0
BRF:0
BRH:0
LF:201
LH:0
end_of_record
SF:/Users/andreasbigger/kona/crates/node/engine/src/task_queue/tasks/consolidate/error.rs
FN:18,_RNvXNtNtNtNtCsjkCMiZKgH3A_11kona_engine10task_queue5tasks11consolidate5errorNtNtB6_4task15EngineTaskErrorINtNtCs8dmkrYGpicx_4core7convert4FromNtB2_20ConsolidateTaskErrorE4from
FNDA:0,_RNvXNtNtNtNtCsjkCMiZKgH3A_11kona_engine10task_queue5tasks11consolidate5errorNtNtB6_4task15EngineTaskErrorINtNtCs8dmkrYGpicx_4core7convert4FromNtB2_20ConsolidateTaskErrorE4from
FNF:1
FNH:0
DA:18,0
DA:19,0
DA:20,0
DA:21,0
DA:23,0
BRF:0
BRH:0
LF:5
LH:0
end_of_record
SF:/Users/andreasbigger/kona/crates/node/engine/src/task_queue/tasks/consolidate/task.rs
FN:61,_RNCNvMNtNtNtNtCsjkCMiZKgH3A_11kona_engine10task_queue5tasks11consolidate4taskNtB4_15ConsolidateTask11consolidate0Bc_
FN:50,_RNCNvMNtNtNtNtCsjkCMiZKgH3A_11kona_engine10task_queue5tasks11consolidate4taskNtB4_15ConsolidateTask18execute_build_task0Bc_
FN:43,_RNCNvMNtNtNtNtCsjkCMiZKgH3A_11kona_engine10task_queue5tasks11consolidate4taskNtB4_15ConsolidateTask23execute_forkchoice_task0Bc_
FN:90,_RNCNvXs1_NtNtNtNtCsjkCMiZKgH3A_11kona_engine10task_queue5tasks11consolidate4taskNtB7_15ConsolidateTaskNtNtBb_4task13EngineTaskExt7execute0Bf_
FN:61,_RNvMNtNtNtNtCsjkCMiZKgH3A_11kona_engine10task_queue5tasks11consolidate4taskNtB2_15ConsolidateTask11consolidate
FN:50,_RNvMNtNtNtNtCsjkCMiZKgH3A_11kona_engine10task_queue5tasks11consolidate4taskNtB2_15ConsolidateTask18execute_build_task
FN:40,_RNvMNtNtNtNtCsjkCMiZKgH3A_11kona_engine10task_queue5tasks11consolidate4taskNtB2_15ConsolidateTask23execute_forkchoice_task
FN:30,_RNvMNtNtNtNtCsjkCMiZKgH3A_11kona_engine10task_queue5tasks11consolidate4taskNtB2_15ConsolidateTask3new
FN:96,_RNvXs1_NtNtNtNtCsjkCMiZKgH3A_11kona_engine10task_queue5tasks11consolidate4taskNtB5_15ConsolidateTaskNtNtB9_4task13EngineTaskExt7execute
FNDA:0,_RNCNvMNtNtNtNtCsjkCMiZKgH3A_11kona_engine10task_queue5tasks11consolidate4taskNtB4_15ConsolidateTask11consolidate0Bc_
FNDA:0,_RNCNvMNtNtNtNtCsjkCMiZKgH3A_11kona_engine10task_queue5tasks11consolidate4taskNtB4_15ConsolidateTask18execute_build_task0Bc_
FNDA:0,_RNCNvMNtNtNtNtCsjkCMiZKgH3A_11kona_engine10task_queue5tasks11consolidate4taskNtB4_15ConsolidateTask23execute_forkchoice_task0Bc_
FNDA:0,_RNCNvXs1_NtNtNtNtCsjkCMiZKgH3A_11kona_engine10task_queue5tasks11consolidate4taskNtB7_15ConsolidateTaskNtNtBb_4task13EngineTaskExt7execute0Bf_
FNDA:0,_RNvMNtNtNtNtCsjkCMiZKgH3A_11kona_engine10task_queue5tasks11consolidate4taskNtB2_15ConsolidateTask11consolidate
FNDA:0,_RNvMNtNtNtNtCsjkCMiZKgH3A_11kona_engine10task_queue5tasks11consolidate4taskNtB2_15ConsolidateTask18execute_build_task
FNDA:0,_RNvMNtNtNtNtCsjkCMiZKgH3A_11kona_engine10task_queue5tasks11consolidate4taskNtB2_15ConsolidateTask23execute_forkchoice_task
FNDA:0,_RNvMNtNtNtNtCsjkCMiZKgH3A_11kona_engine10task_queue5tasks11consolidate4taskNtB2_15ConsolidateTask3new
FNDA:0,_RNvXs1_NtNtNtNtCsjkCMiZKgH3A_11kona_engine10task_queue5tasks11consolidate4taskNtB5_15ConsolidateTaskNtNtB9_4task13EngineTaskExt7execute
FNF:9
FNH:0
DA:30,0
DA:31,0
DA:32,0
DA:33,0
DA:34,0
DA:35,0
DA:36,0
DA:37,0
DA:40,0
DA:41,0
DA:42,0
DA:43,0
DA:44,0
DA:45,0
DA:46,0
DA:50,0
DA:51,0
DA:52,0
DA:53,0
DA:54,0
DA:55,0
DA:56,0
DA:57,0
DA:58,0
DA:61,0
DA:62,0
DA:63,0
DA:64,0
DA:65,0
DA:67,0
DA:68,0
DA:71,0
DA:72,0
DA:79,0
DA:80,0
DA:81,0
DA:82,0
DA:83,0
DA:84,0
DA:85,0
DA:90,0
DA:92,0
DA:93,0
DA:94,0
DA:96,0
BRF:0
BRH:0
LF:49
LH:0
end_of_record
SF:/Users/andreasbigger/kona/crates/node/engine/src/task_queue/tasks/forkchoice/error.rs
FN:28,_RNvXNtNtNtNtCsjkCMiZKgH3A_11kona_engine10task_queue5tasks10forkchoice5errorNtNtB6_4task15EngineTaskErrorINtNtCs8dmkrYGpicx_4core7convert4FromNtB2_19ForkchoiceTaskErrorE4from
FNDA:0,_RNvXNtNtNtNtCsjkCMiZKgH3A_11kona_engine10task_queue5tasks10forkchoice5errorNtNtB6_4task15EngineTaskErrorINtNtCs8dmkrYGpicx_4core7convert4FromNtB2_19ForkchoiceTaskErrorE4from
FNF:1
FNH:0
DA:28,0
DA:29,0
DA:30,0
DA:31,0
DA:32,0
DA:33,0
DA:34,0
DA:36,0
BRF:0
BRH:0
LF:8
LH:0
end_of_record
SF:/Users/andreasbigger/kona/crates/node/engine/src/task_queue/tasks/forkchoice/task.rs
FN:54,_RNCNCNvXs1_NtNtNtNtCsjkCMiZKgH3A_11kona_engine10task_queue5tasks10forkchoice4taskNtB9_14ForkchoiceTaskNtNtBd_4task13EngineTaskExt7execute00Bh_
FN:58,_RNCNCNvXs1_NtNtNtNtCsjkCMiZKgH3A_11kona_engine10task_queue5tasks10forkchoice4taskNtB9_14ForkchoiceTaskNtNtBd_4task13EngineTaskExt7execute0s_0Bh_
FN:26,_RNCNvXs1_NtNtNtNtCsjkCMiZKgH3A_11kona_engine10task_queue5tasks10forkchoice4taskNtB7_14ForkchoiceTaskNtNtBb_4task13EngineTaskExt7execute0Bf_
FN:19,_RNvMNtNtNtNtCsjkCMiZKgH3A_11kona_engine10task_queue5tasks10forkchoice4taskNtB2_14ForkchoiceTask3new
FN:65,_RNvXs1_NtNtNtNtCsjkCMiZKgH3A_11kona_engine10task_queue5tasks10forkchoice4taskNtB5_14ForkchoiceTaskNtNtB9_4task13EngineTaskExt7execute
FNDA:0,_RNCNCNvXs1_NtNtNtNtCsjkCMiZKgH3A_11kona_engine10task_queue5tasks10forkchoice4taskNtB9_14ForkchoiceTaskNtNtBd_4task13EngineTaskExt7execute00Bh_
FNDA:0,_RNCNCNvXs1_NtNtNtNtCsjkCMiZKgH3A_11kona_engine10task_queue5tasks10forkchoice4taskNtB9_14ForkchoiceTaskNtNtBd_4task13EngineTaskExt7execute0s_0Bh_
FNDA:0,_RNCNvXs1_NtNtNtNtCsjkCMiZKgH3A_11kona_engine10task_queue5tasks10forkchoice4taskNtB7_14ForkchoiceTaskNtNtBb_4task13EngineTaskExt7execute0Bf_
FNDA:0,_RNvMNtNtNtNtCsjkCMiZKgH3A_11kona_engine10task_queue5tasks10forkchoice4taskNtB2_14ForkchoiceTask3new
FNDA:0,_RNvXs1_NtNtNtNtCsjkCMiZKgH3A_11kona_engine10task_queue5tasks10forkchoice4taskNtB5_14ForkchoiceTaskNtNtB9_4task13EngineTaskExt7execute
FNF:5
FNH:0
DA:19,0
DA:20,0
DA:21,0
DA:26,0
DA:28,0
DA:29,0
DA:30,0
DA:31,0
DA:32,0
DA:33,0
DA:34,0
DA:35,0
DA:36,0
DA:39,0
DA:40,0
DA:41,0
DA:42,0
DA:43,0
DA:44,0
DA:45,0
DA:46,0
DA:47,0
DA:48,0
DA:51,0
DA:52,0
DA:53,0
DA:54,0
DA:55,0
DA:56,0
DA:57,0
DA:58,0
DA:59,0
DA:60,0
DA:61,0
DA:62,0
DA:63,0
DA:64,0
DA:65,0
BRF:0
BRH:0
LF:42
LH:0
end_of_record
SF:/Users/andreasbigger/kona/crates/node/engine/src/task_queue/tasks/insert/error.rs
FN:40,_RNvXNtNtNtNtCsjkCMiZKgH3A_11kona_engine10task_queue5tasks6insert5errorNtNtB6_4task15EngineTaskErrorINtNtCs8dmkrYGpicx_4core7convert4FromNtB2_21InsertUnsafeTaskErrorE4from
FNDA:0,_RNvXNtNtNtNtCsjkCMiZKgH3A_11kona_engine10task_queue5tasks6insert5errorNtNtB6_4task15EngineTaskErrorINtNtCs8dmkrYGpicx_4core7convert4FromNtB2_21InsertUnsafeTaskErrorE4from
FNF:1
FNH:0
DA:40,0
DA:41,0
DA:42,0
DA:43,0
DA:44,0
DA:45,0
DA:46,0
DA:47,0
DA:48,0
DA:50,0
BRF:0
BRH:0
LF:10
LH:0
end_of_record
SF:/Users/andreasbigger/kona/crates/node/engine/src/task_queue/tasks/insert/task.rs
FN:96,_RNCNCNvXs1_NtNtNtNtCsjkCMiZKgH3A_11kona_engine10task_queue5tasks6insert4taskNtB9_16InsertUnsafeTaskNtNtBd_4task13EngineTaskExt7execute00Bh_
FN:190,_RNCNCNvXs1_NtNtNtNtCsjkCMiZKgH3A_11kona_engine10task_queue5tasks6insert4taskNtB9_16InsertUnsafeTaskNtNtBd_4task13EngineTaskExt7execute0s_0Bh_
FN:88,_RNCNvXs1_NtNtNtNtCsjkCMiZKgH3A_11kona_engine10task_queue5tasks6insert4taskNtB7_16InsertUnsafeTaskNtNtBb_4task13EngineTaskExt7execute0Bf_
FN:50,_RNvMNtNtNtNtCsjkCMiZKgH3A_11kona_engine10task_queue5tasks6insert4taskNtB2_16InsertUnsafeTask24check_new_payload_status
FN:67,_RNvMNtNtNtNtCsjkCMiZKgH3A_11kona_engine10task_queue5tasks6insert4taskNtB2_16InsertUnsafeTask31check_forkchoice_updated_status
FN:37,_RNvMNtNtNtNtCsjkCMiZKgH3A_11kona_engine10task_queue5tasks6insert4taskNtB2_16InsertUnsafeTask3new
FN:230,_RNvXs1_NtNtNtNtCsjkCMiZKgH3A_11kona_engine10task_queue5tasks6insert4taskNtB5_16InsertUnsafeTaskNtNtB9_4task13EngineTaskExt7execute
FNDA:0,_RNCNCNvXs1_NtNtNtNtCsjkCMiZKgH3A_11kona_engine10task_queue5tasks6insert4taskNtB9_16InsertUnsafeTaskNtNtBd_4task13EngineTaskExt7execute00Bh_
FNDA:0,_RNCNCNvXs1_NtNtNtNtCsjkCMiZKgH3A_11kona_engine10task_queue5tasks6insert4taskNtB9_16InsertUnsafeTaskNtNtBd_4task13EngineTaskExt7execute0s_0Bh_
FNDA:0,_RNCNvXs1_NtNtNtNtCsjkCMiZKgH3A_11kona_engine10task_queue5tasks6insert4taskNtB7_16InsertUnsafeTaskNtNtBb_4task13EngineTaskExt7execute0Bf_
FNDA:0,_RNvMNtNtNtNtCsjkCMiZKgH3A_11kona_engine10task_queue5tasks6insert4taskNtB2_16InsertUnsafeTask24check_new_payload_status
FNDA:0,_RNvMNtNtNtNtCsjkCMiZKgH3A_11kona_engine10task_queue5tasks6insert4taskNtB2_16InsertUnsafeTask31check_forkchoice_updated_status
FNDA:0,_RNvMNtNtNtNtCsjkCMiZKgH3A_11kona_engine10task_queue5tasks6insert4taskNtB2_16InsertUnsafeTask3new
FNDA:0,_RNvXs1_NtNtNtNtCsjkCMiZKgH3A_11kona_engine10task_queue5tasks6insert4taskNtB5_16InsertUnsafeTaskNtNtB9_4task13EngineTaskExt7execute
FNF:7
FNH:0
DA:37,0
DA:38,0
DA:39,0
DA:40,0
DA:41,0
DA:42,0
DA:43,0
DA:44,0
DA:45,0
DA:46,0
DA:50,0
DA:51,0
DA:52,0
DA:53,0
DA:54,0
DA:55,0
DA:56,0
DA:57,0
DA:58,0
DA:59,0
DA:60,0
DA:62,0
DA:63,0
DA:67,0
DA:68,0
DA:69,0
DA:70,0
DA:71,0
DA:72,0
DA:73,0
DA:74,0
DA:75,0
DA:76,0
DA:77,0
DA:79,0
DA:80,0
DA:82,0
DA:83,0
DA:88,0
DA:90,0
DA:91,0
DA:92,0
DA:93,0
DA:94,0
DA:95,0
DA:96,0
DA:97,0
DA:98,0
DA:99,0
DA:100,0
DA:102,0
DA:103,0
DA:104,0
DA:105,0
DA:106,0
DA:107,0
DA:109,0
DA:111,0
DA:113,0
DA:114,0
DA:115,0
DA:116,0
DA:117,0
DA:118,0
DA:119,0
DA:120,0
DA:121,0
DA:122,0
DA:123,0
DA:124,0
DA:125,0
DA:127,0
DA:128,0
DA:130,0
DA:131,0
DA:136,0
DA:137,0
DA:138,0
DA:140,0
DA:141,0
DA:142,0
DA:143,0
DA:146,0
DA:147,0
DA:148,0
DA:149,0
DA:150,0
DA:151,0
DA:152,0
DA:153,0
DA:154,0
DA:156,0
DA:157,0
DA:158,0
DA:159,0
DA:160,0
DA:161,0
DA:162,0
DA:163,0
DA:164,0
DA:165,0
DA:166,0
DA:167,0
DA:168,0
DA:169,0
DA:170,0
DA:171,0
DA:174,0
DA:175,0
DA:176,0
DA:177,0
DA:178,0
DA:180,0
DA:181,0
DA:183,0
DA:184,0
DA:185,0
DA:186,0
DA:187,0
DA:188,0
DA:189,0
DA:190,0
DA:191,0
DA:192,0
DA:193,0
DA:194,0
DA:195,0
DA:198,0
DA:199,0
DA:200,0
DA:201,0
DA:202,0
DA:203,0
DA:204,0
DA:205,0
DA:206,0
DA:207,0
DA:208,0
DA:209,0
DA:210,0
DA:211,0
DA:212,0
DA:215,0
DA:217,0
DA:218,0
DA:220,0
DA:222,0
DA:223,0
DA:224,0
DA:225,0
DA:226,0
DA:227,0
DA:229,0
DA:230,0
BRF:0
BRH:0
LF:158
LH:0
end_of_record
SF:/Users/andreasbigger/kona/crates/node/engine/src/task_queue/tasks/task.rs
FN:29,_RNCNvMNtNtNtCsjkCMiZKgH3A_11kona_engine10task_queue5tasks4taskNtB4_10EngineTask13execute_inner0Ba_
FN:41,_RNCNvXs1_NtNtNtCsjkCMiZKgH3A_11kona_engine10task_queue5tasks4taskNtB7_10EngineTaskNtB7_13EngineTaskExt7execute0Bd_
FN:29,_RNvMNtNtNtCsjkCMiZKgH3A_11kona_engine10task_queue5tasks4taskNtB2_10EngineTask13execute_inner
FN:61,_RNvXs1_NtNtNtCsjkCMiZKgH3A_11kona_engine10task_queue5tasks4taskNtB5_10EngineTaskNtB5_13EngineTaskExt7execute
FNDA:0,_RNCNvMNtNtNtCsjkCMiZKgH3A_11kona_engine10task_queue5tasks4taskNtB4_10EngineTask13execute_inner0Ba_
FNDA:0,_RNCNvXs1_NtNtNtCsjkCMiZKgH3A_11kona_engine10task_queue5tasks4taskNtB7_10EngineTaskNtB7_13EngineTaskExt7execute0Bd_
FNDA:0,_RNvMNtNtNtCsjkCMiZKgH3A_11kona_engine10task_queue5tasks4taskNtB2_10EngineTask13execute_inner
FNDA:0,_RNvXs1_NtNtNtCsjkCMiZKgH3A_11kona_engine10task_queue5tasks4taskNtB5_10EngineTaskNtB5_13EngineTaskExt7execute
FNF:4
FNH:0
DA:29,0
DA:30,0
DA:31,0
DA:32,0
DA:33,0
DA:34,0
DA:36,0
DA:41,0
DA:43,0
DA:44,0
DA:45,0
DA:46,0
DA:47,0
DA:49,0
DA:50,0
DA:51,0
DA:53,0
DA:54,0
DA:55,0
DA:60,0
DA:61,0
BRF:0
BRH:0
LF:23
LH:0
end_of_record
SF:/Users/andreasbigger/kona/crates/node/engine/src/versions.rs
FN:24,_RNvMNtCsjkCMiZKgH3A_11kona_engine8versionsNtB2_23EngineForkchoiceVersion8from_cfg
FN:81,_RNvMs0_NtCsjkCMiZKgH3A_11kona_engine8versionsNtB5_23EngineGetPayloadVersion8from_cfg
FN:54,_RNvMs_NtCsjkCMiZKgH3A_11kona_engine8versionsNtB4_23EngineNewPayloadVersion8from_cfg
FNDA:0,_RNvMNtCsjkCMiZKgH3A_11kona_engine8versionsNtB2_23EngineForkchoiceVersion8from_cfg
FNDA:0,_RNvMs0_NtCsjkCMiZKgH3A_11kona_engine8versionsNtB5_23EngineGetPayloadVersion8from_cfg
FNDA:0,_RNvMs_NtCsjkCMiZKgH3A_11kona_engine8versionsNtB4_23EngineNewPayloadVersion8from_cfg
FNF:3
FNH:0
DA:24,0
DA:25,0
DA:27,0
DA:28,0
DA:30,0
DA:34,0
DA:36,0
DA:54,0
DA:55,0
DA:56,0
DA:57,0
DA:59,0
DA:61,0
DA:63,0
DA:81,0
DA:82,0
DA:83,0
DA:84,0
DA:86,0
DA:88,0
DA:90,0
BRF:0
BRH:0
LF:21
LH:0
end_of_record
SF:/Users/andreasbigger/kona/crates/node/rpc/src/attributes.rs
FN:49,_RNCNCNvMNtCsjwK5DVurFxR_8kona_rpc10attributesNtB6_22OpAttributesWithParent16is_deposits_only00B8_
FN:49,_RNCNvMNtCsjwK5DVurFxR_8kona_rpc10attributesNtB4_22OpAttributesWithParent16is_deposits_only0B6_
FN:45,_RNvMNtCsjwK5DVurFxR_8kona_rpc10attributesNtB2_22OpAttributesWithParent16is_deposits_only
FN:30,_RNvMNtCsjwK5DVurFxR_8kona_rpc10attributesNtB2_22OpAttributesWithParent10attributes
FN:40,_RNvMNtCsjwK5DVurFxR_8kona_rpc10attributesNtB2_22OpAttributesWithParent15is_last_in_span
FN:21,_RNvMNtCsjwK5DVurFxR_8kona_rpc10attributesNtB2_22OpAttributesWithParent3new
FN:35,_RNvMNtCsjwK5DVurFxR_8kona_rpc10attributesNtB2_22OpAttributesWithParent6parent
FN:58,_RNvNtNtCsjwK5DVurFxR_8kona_rpc10attributes5testss_30test_op_attributes_with_parent
FNDA:0,_RNCNCNvMNtCsjwK5DVurFxR_8kona_rpc10attributesNtB6_22OpAttributesWithParent16is_deposits_only00B8_
FNDA:0,_RNCNvMNtCsjwK5DVurFxR_8kona_rpc10attributesNtB4_22OpAttributesWithParent16is_deposits_only0B6_
FNDA:0,_RNvMNtCsjwK5DVurFxR_8kona_rpc10attributesNtB2_22OpAttributesWithParent16is_deposits_only
FNDA:1,_RNvMNtCsjwK5DVurFxR_8kona_rpc10attributesNtB2_22OpAttributesWithParent10attributes
FNDA:1,_RNvMNtCsjwK5DVurFxR_8kona_rpc10attributesNtB2_22OpAttributesWithParent15is_last_in_span
FNDA:1,_RNvMNtCsjwK5DVurFxR_8kona_rpc10attributesNtB2_22OpAttributesWithParent3new
FNDA:1,_RNvMNtCsjwK5DVurFxR_8kona_rpc10attributesNtB2_22OpAttributesWithParent6parent
FNDA:1,_RNvNtNtCsjwK5DVurFxR_8kona_rpc10attributes5testss_30test_op_attributes_with_parent
FNF:8
FNH:5
DA:21,1
DA:22,1
DA:23,1
DA:24,1
DA:25,1
DA:26,1
DA:27,1
DA:30,1
DA:31,1
DA:32,1
DA:35,1
DA:36,1
DA:37,1
DA:40,1
DA:41,1
DA:42,1
DA:45,0
DA:46,0
DA:47,0
DA:48,0
DA:49,0
DA:50,0
DA:58,1
DA:59,1
DA:60,1
DA:61,1
DA:62,1
DA:63,1
DA:64,1
DA:65,1
DA:66,1
DA:67,1
DA:68,1
BRF:0
BRH:0
LF:35
LH:27
end_of_record
SF:/Users/andreasbigger/kona/crates/node/rpc/src/config.rs
FN:25,_RNvMNtCsjwK5DVurFxR_8kona_rpc6configNtB2_9RpcConfig11as_launcher
FN:38,_RNvXs0_NtCsjwK5DVurFxR_8kona_rpc6configNtNtB7_8launcher11RpcLauncherINtNtCs8dmkrYGpicx_4core7convert4FromRNtB5_9RpcConfigE4from
FN:32,_RNvXs_NtCsjwK5DVurFxR_8kona_rpc6configNtNtNtCs8dmkrYGpicx_4core3net11socket_addr10SocketAddrINtNtBG_7convert4FromRNtB4_9RpcConfigE4from
FNDA:0,_RNvMNtCsjwK5DVurFxR_8kona_rpc6configNtB2_9RpcConfig11as_launcher
FNDA:0,_RNvXs0_NtCsjwK5DVurFxR_8kona_rpc6configNtNtB7_8launcher11RpcLauncherINtNtCs8dmkrYGpicx_4core7convert4FromRNtB5_9RpcConfigE4from
FNDA:0,_RNvXs_NtCsjwK5DVurFxR_8kona_rpc6configNtNtNtCs8dmkrYGpicx_4core3net11socket_addr10SocketAddrINtNtBG_7convert4FromRNtB4_9RpcConfigE4from
FNF:3
FNH:0
DA:25,0
DA:26,0
DA:27,0
DA:28,0
DA:32,0
DA:33,0
DA:34,0
DA:38,0
DA:39,0
DA:40,0
BRF:0
BRH:0
LF:10
LH:0
end_of_record
SF:/Users/andreasbigger/kona/crates/node/rpc/src/interop/error.rs
FN:51,_RNvXs0_NtNtCsjwK5DVurFxR_8kona_rpc7interop5errorNtB5_23InteropTxValidatorErrorINtNtCs8dmkrYGpicx_4core7convert4FromNtNtCsdY1lHpJzu90_15jsonrpsee_types5error11ErrorObjectE4from
FN:41,_RNvXs_NtNtCsjwK5DVurFxR_8kona_rpc7interop5errorNtB4_23InteropTxValidatorErrorINtNtCs8dmkrYGpicx_4core7convert4FromNtNtNtCs9pwgHwa7nu3_14jsonrpsee_core6client5error5ErrorE4from
FN:34,_RINvMNtNtCsjwK5DVurFxR_8kona_rpc7interop5errorNtB3_23InteropTxValidatorError17server_unexpectedNtNtCsdY1lHpJzu90_15jsonrpsee_types5error11ErrorObjectEB7_
FN:29,_RINvMNtNtCsjwK5DVurFxR_8kona_rpc7interop5errorNtB3_23InteropTxValidatorError6clientNtNtNtCs9pwgHwa7nu3_14jsonrpsee_core6client5error5ErrorEB7_
FN:71,_RNvNtNtNtCsjwK5DVurFxR_8kona_rpc7interop5error5testss_35test_jsonrpsee_client_error_parsing
FNDA:4,_RNvXs0_NtNtCsjwK5DVurFxR_8kona_rpc7interop5errorNtB5_23InteropTxValidatorErrorINtNtCs8dmkrYGpicx_4core7convert4FromNtNtCsdY1lHpJzu90_15jsonrpsee_types5error11ErrorObjectE4from
FNDA:1,_RNvXs_NtNtCsjwK5DVurFxR_8kona_rpc7interop5errorNtB4_23InteropTxValidatorErrorINtNtCs8dmkrYGpicx_4core7convert4FromNtNtNtCs9pwgHwa7nu3_14jsonrpsee_core6client5error5ErrorE4from
FNDA:4,_RINvMNtNtCsjwK5DVurFxR_8kona_rpc7interop5errorNtB3_23InteropTxValidatorError17server_unexpectedNtNtCsdY1lHpJzu90_15jsonrpsee_types5error11ErrorObjectEB7_
FNDA:1,_RINvMNtNtCsjwK5DVurFxR_8kona_rpc7interop5errorNtB3_23InteropTxValidatorError6clientNtNtNtCs9pwgHwa7nu3_14jsonrpsee_core6client5error5ErrorEB7_
FNDA:1,_RNvNtNtNtCsjwK5DVurFxR_8kona_rpc7interop5error5testss_35test_jsonrpsee_client_error_parsing
FNF:5
FNH:5
DA:29,1
DA:30,1
DA:31,1
DA:34,4
DA:35,4
DA:36,4
DA:41,1
DA:42,1
DA:43,0
DA:44,1
DA:46,1
DA:51,4
DA:52,4
DA:53,4
DA:54,4
DA:55,4
DA:71,1
DA:72,1
DA:74,1
DA:82,1
DA:84,1
DA:92,1
DA:94,1
DA:99,1
DA:100,1
DA:101,1
DA:102,1
DA:106,1
DA:107,1
DA:110,1
BRF:0
BRH:0
LF:30
LH:29
end_of_record
SF:/Users/andreasbigger/kona/crates/node/rpc/src/interop/mod.rs
FN:55,_RNCNCNvYpNtNtCsjwK5DVurFxR_8kona_rpc7interop18InteropTxValidator30validate_messages_with_timeout00Bb_
FN:67,_RNCNvYpNtNtCsjwK5DVurFxR_8kona_rpc7interop18InteropTxValidator17validate_messages0B9_
FN:48,_RNCNvYpNtNtCsjwK5DVurFxR_8kona_rpc7interop18InteropTxValidator30validate_messages_with_timeout0B9_
FN:34,_RNvYpNtNtCsjwK5DVurFxR_8kona_rpc7interop18InteropTxValidator17parse_access_listB7_
FN:75,_RNvYpNtNtCsjwK5DVurFxR_8kona_rpc7interop18InteropTxValidator17validate_messagesB7_
FN:56,_RNvYpNtNtCsjwK5DVurFxR_8kona_rpc7interop18InteropTxValidator30validate_messages_with_timeoutB7_
FNDA:0,_RNCNCNvYpNtNtCsjwK5DVurFxR_8kona_rpc7interop18InteropTxValidator30validate_messages_with_timeout00Bb_
FNDA:0,_RNCNvYpNtNtCsjwK5DVurFxR_8kona_rpc7interop18InteropTxValidator17validate_messages0B9_
FNDA:0,_RNCNvYpNtNtCsjwK5DVurFxR_8kona_rpc7interop18InteropTxValidator30validate_messages_with_timeout0B9_
FNDA:0,_RNvYpNtNtCsjwK5DVurFxR_8kona_rpc7interop18InteropTxValidator17parse_access_listB7_
FNDA:0,_RNvYpNtNtCsjwK5DVurFxR_8kona_rpc7interop18InteropTxValidator17validate_messagesB7_
FNDA:0,_RNvYpNtNtCsjwK5DVurFxR_8kona_rpc7interop18InteropTxValidator30validate_messages_with_timeoutB7_
FNF:6
FNH:0
DA:34,0
DA:35,0
DA:36,0
DA:48,0
DA:50,0
DA:51,0
DA:52,0
DA:53,0
DA:54,0
DA:55,0
DA:56,0
DA:67,0
DA:68,0
DA:69,0
DA:70,0
DA:71,0
DA:72,0
DA:73,0
DA:74,0
DA:75,0
BRF:0
BRH:0
LF:23
LH:0
end_of_record
SF:/Users/andreasbigger/kona/crates/node/rpc/src/jsonrpsee.rs
FN:175,_RNCNvXININtCsjwK5DVurFxR_8kona_rpc9jsonrpsee0pEpNtNtNtB9_7interop3api15CheckAccessList17check_access_list0B9_
FN:170,_RNvXININtCsjwK5DVurFxR_8kona_rpc9jsonrpsee0pEpNtNtNtB7_7interop3api15CheckAccessList17check_access_listB7_
FN:59,_RNvYpNtNtCsjwK5DVurFxR_8kona_rpc9jsonrpsee14OpP2PApiClient10opp2p_selfB7_
FN:59,_RNvYpNtNtCsjwK5DVurFxR_8kona_rpc9jsonrpsee14OpP2PApiClient11opp2p_peersB7_
FN:59,_RNvYpNtNtCsjwK5DVurFxR_8kona_rpc9jsonrpsee14OpP2PApiClient16opp2p_peer_countB7_
FN:59,_RNvYpNtNtCsjwK5DVurFxR_8kona_rpc9jsonrpsee14OpP2PApiClient16opp2p_peer_statsB7_
FN:59,_RNvYpNtNtCsjwK5DVurFxR_8kona_rpc9jsonrpsee14OpP2PApiClient21opp2p_discovery_tableB7_
FN:59,_RNvYpNtNtCsjwK5DVurFxR_8kona_rpc9jsonrpsee14OpP2PApiClient24opp2p_list_blocked_addrsB7_
FN:59,_RNvYpNtNtCsjwK5DVurFxR_8kona_rpc9jsonrpsee14OpP2PApiClient24opp2p_list_blocked_peersB7_
FN:59,_RNvYpNtNtCsjwK5DVurFxR_8kona_rpc9jsonrpsee14OpP2PApiClient26opp2p_list_blocked_subnetsB7_
FN:30,_RNvYpNtNtCsjwK5DVurFxR_8kona_rpc9jsonrpsee19RollupNodeApiClient10op_versionB7_
FN:30,_RNvYpNtNtCsjwK5DVurFxR_8kona_rpc9jsonrpsee19RollupNodeApiClient14op_sync_statusB7_
FN:30,_RNvYpNtNtCsjwK5DVurFxR_8kona_rpc9jsonrpsee19RollupNodeApiClient16op_rollup_configB7_
FNDA:0,_RNCNvXININtCsjwK5DVurFxR_8kona_rpc9jsonrpsee0pEpNtNtNtB9_7interop3api15CheckAccessList17check_access_list0B9_
FNDA:0,_RNvXININtCsjwK5DVurFxR_8kona_rpc9jsonrpsee0pEpNtNtNtB7_7interop3api15CheckAccessList17check_access_listB7_
FNDA:0,_RNvYpNtNtCsjwK5DVurFxR_8kona_rpc9jsonrpsee14OpP2PApiClient10opp2p_selfB7_
FNDA:0,_RNvYpNtNtCsjwK5DVurFxR_8kona_rpc9jsonrpsee14OpP2PApiClient11opp2p_peersB7_
FNDA:0,_RNvYpNtNtCsjwK5DVurFxR_8kona_rpc9jsonrpsee14OpP2PApiClient16opp2p_peer_countB7_
FNDA:0,_RNvYpNtNtCsjwK5DVurFxR_8kona_rpc9jsonrpsee14OpP2PApiClient16opp2p_peer_statsB7_
FNDA:0,_RNvYpNtNtCsjwK5DVurFxR_8kona_rpc9jsonrpsee14OpP2PApiClient21opp2p_discovery_tableB7_
FNDA:0,_RNvYpNtNtCsjwK5DVurFxR_8kona_rpc9jsonrpsee14OpP2PApiClient24opp2p_list_blocked_addrsB7_
FNDA:0,_RNvYpNtNtCsjwK5DVurFxR_8kona_rpc9jsonrpsee14OpP2PApiClient24opp2p_list_blocked_peersB7_
FNDA:0,_RNvYpNtNtCsjwK5DVurFxR_8kona_rpc9jsonrpsee14OpP2PApiClient26opp2p_list_blocked_subnetsB7_
FNDA:0,_RNvYpNtNtCsjwK5DVurFxR_8kona_rpc9jsonrpsee19RollupNodeApiClient10op_versionB7_
FNDA:0,_RNvYpNtNtCsjwK5DVurFxR_8kona_rpc9jsonrpsee19RollupNodeApiClient14op_sync_statusB7_
FNDA:0,_RNvYpNtNtCsjwK5DVurFxR_8kona_rpc9jsonrpsee19RollupNodeApiClient16op_rollup_configB7_
FNF:4
FNH:0
DA:30,0
DA:59,0
DA:170,0
DA:171,0
DA:172,0
DA:173,0
DA:174,0
DA:175,0
DA:176,0
DA:177,0
DA:178,0
BRF:0
BRH:0
LF:12
LH:0
end_of_record
SF:/Users/andreasbigger/kona/crates/node/rpc/src/launcher.rs
FN:31,_RINvMNtCsjwK5DVurFxR_8kona_rpc8launcherNtB3_11RpcLauncher5mergepEB5_
FN:32,_RNCINvMNtCsjwK5DVurFxR_8kona_rpc8launcherNtB5_11RpcLauncher5mergepE0B7_
FN:32,_RNCINvMNtCsjwK5DVurFxR_8kona_rpc8launcherNtB5_11RpcLauncher5mergepEs_0B7_
FN:46,_RNCNCNvMNtCsjwK5DVurFxR_8kona_rpc8launcherNtB6_11RpcLauncher5start00B8_
FN:43,_RNCNvMNtCsjwK5DVurFxR_8kona_rpc8launcherNtB4_11RpcLauncher5start0B6_
FN:26,_RNvMNtCsjwK5DVurFxR_8kona_rpc8launcherNtB2_11RpcLauncher3new
FN:43,_RNvMNtCsjwK5DVurFxR_8kona_rpc8launcherNtB2_11RpcLauncher5start
FN:38,_RNvMNtCsjwK5DVurFxR_8kona_rpc8launcherNtB2_11RpcLauncher8set_addr
FNDA:0,_RINvMNtCsjwK5DVurFxR_8kona_rpc8launcherNtB3_11RpcLauncher5mergepEB5_
FNDA:0,_RNCINvMNtCsjwK5DVurFxR_8kona_rpc8launcherNtB5_11RpcLauncher5mergepE0B7_
FNDA:0,_RNCINvMNtCsjwK5DVurFxR_8kona_rpc8launcherNtB5_11RpcLauncher5mergepEs_0B7_
FNDA:0,_RNCNCNvMNtCsjwK5DVurFxR_8kona_rpc8launcherNtB6_11RpcLauncher5start00B8_
FNDA:0,_RNCNvMNtCsjwK5DVurFxR_8kona_rpc8launcherNtB4_11RpcLauncher5start0B6_
FNDA:0,_RNvMNtCsjwK5DVurFxR_8kona_rpc8launcherNtB2_11RpcLauncher3new
FNDA:0,_RNvMNtCsjwK5DVurFxR_8kona_rpc8launcherNtB2_11RpcLauncher5start
FNDA:0,_RNvMNtCsjwK5DVurFxR_8kona_rpc8launcherNtB2_11RpcLauncher8set_addr
FNF:8
FNH:0
DA:26,0
DA:27,0
DA:28,0
DA:31,0
DA:32,0
DA:33,0
DA:34,0
DA:35,0
DA:38,0
DA:39,0
DA:40,0
DA:43,0
DA:44,0
DA:45,0
DA:46,0
DA:47,0
DA:48,0
BRF:0
BRH:0
LF:21
LH:0
end_of_record
SF:/Users/andreasbigger/kona/crates/node/rpc/src/net.rs
FN:246,_RINvXs0_NtCsjwK5DVurFxR_8kona_rpc3netNtB6_9DirectionNtNtCsb6wi0nN4e2E_5serde2de11Deserialize11deserializeINtNvNtNtBS_9___private2de13missing_field24MissingFieldDeserializerNtNtCs2DTF9YqBam2_10serde_json5error5ErrorEEB8_
FN:246,_RINvXs0_NtCsjwK5DVurFxR_8kona_rpc3netNtB6_9DirectionNtNtCsb6wi0nN4e2E_5serde2de11Deserialize11deserializeQINtNtCs2DTF9YqBam2_10serde_json2de12DeserializerNtNtB1L_4read7StrReadEEB8_
FN:236,_RINvXs_NtCsjwK5DVurFxR_8kona_rpc3netNtB5_9DirectionNtNtCsb6wi0nN4e2E_5serde3ser9Serialize9serializeINtNtCs2DTF9YqBam2_10serde_json3ser18RawValueStrEmitterQINtNtCs7Lutq36SewB_5alloc3vec3VechENtB1C_16CompactFormatterEEB7_
FN:236,_RINvXs_NtCsjwK5DVurFxR_8kona_rpc3netNtB5_9DirectionNtNtCsb6wi0nN4e2E_5serde3ser9Serialize9serializeQINtNtCs2DTF9YqBam2_10serde_json3ser10SerializerQINtNtCs7Lutq36SewB_5alloc3vec3VechEEEB7_
FN:208,_RNvXNtCsjwK5DVurFxR_8kona_rpc3netNtB2_13ConnectednessINtNtCs8dmkrYGpicx_4core7convert4FromhE4from
FN:288,_RNvNtNtCsjwK5DVurFxR_8kona_rpc3net5testss_22test_direction_display
FN:279,_RNvNtNtCsjwK5DVurFxR_8kona_rpc3net5testss_26test_connectedness_display
FN:269,_RNvNtNtCsjwK5DVurFxR_8kona_rpc3net5testss_26test_connectedness_from_u8
FN:296,_RNvNtNtCsjwK5DVurFxR_8kona_rpc3net5testss_28test_direction_serialization
FN:316,_RNvNtNtCsjwK5DVurFxR_8kona_rpc3net5testss_30test_direction_deserialization
FN:332,_RNvNtNtCsjwK5DVurFxR_8kona_rpc3net5testss_42test_peer_info_connectedness_serialization
FNDA:0,_RINvXs0_NtCsjwK5DVurFxR_8kona_rpc3netNtB6_9DirectionNtNtCsb6wi0nN4e2E_5serde2de11Deserialize11deserializeINtNvNtNtBS_9___private2de13missing_field24MissingFieldDeserializerNtNtCs2DTF9YqBam2_10serde_json5error5ErrorEEB8_
FNDA:4,_RINvXs0_NtCsjwK5DVurFxR_8kona_rpc3netNtB6_9DirectionNtNtCsb6wi0nN4e2E_5serde2de11Deserialize11deserializeQINtNtCs2DTF9YqBam2_10serde_json2de12DeserializerNtNtB1L_4read7StrReadEEB8_
FNDA:0,_RINvXs_NtCsjwK5DVurFxR_8kona_rpc3netNtB5_9DirectionNtNtCsb6wi0nN4e2E_5serde3ser9Serialize9serializeINtNtCs2DTF9YqBam2_10serde_json3ser18RawValueStrEmitterQINtNtCs7Lutq36SewB_5alloc3vec3VechENtB1C_16CompactFormatterEEB7_
FNDA:4,_RINvXs_NtCsjwK5DVurFxR_8kona_rpc3netNtB5_9DirectionNtNtCsb6wi0nN4e2E_5serde3ser9Serialize9serializeQINtNtCs2DTF9YqBam2_10serde_json3ser10SerializerQINtNtCs7Lutq36SewB_5alloc3vec3VechEEEB7_
FNDA:6,_RNvXNtCsjwK5DVurFxR_8kona_rpc3netNtB2_13ConnectednessINtNtCs8dmkrYGpicx_4core7convert4FromhE4from
FNDA:1,_RNvNtNtCsjwK5DVurFxR_8kona_rpc3net5testss_22test_direction_display
FNDA:1,_RNvNtNtCsjwK5DVurFxR_8kona_rpc3net5testss_26test_connectedness_display
FNDA:1,_RNvNtNtCsjwK5DVurFxR_8kona_rpc3net5testss_26test_connectedness_from_u8
FNDA:1,_RNvNtNtCsjwK5DVurFxR_8kona_rpc3net5testss_28test_direction_serialization
FNDA:1,_RNvNtNtCsjwK5DVurFxR_8kona_rpc3net5testss_30test_direction_deserialization
FNDA:1,_RNvNtNtCsjwK5DVurFxR_8kona_rpc3net5testss_42test_peer_info_connectedness_serialization
FNF:9
FNH:9
DA:208,6
DA:209,6
DA:210,1
DA:211,1
DA:212,1
DA:213,1
DA:214,1
DA:215,1
DA:217,6
DA:236,4
DA:237,4
DA:238,4
DA:239,4
DA:240,4
DA:241,4
DA:246,4
DA:247,4
DA:248,4
DA:249,4
DA:250,4
DA:251,4
DA:252,1
DA:253,1
DA:254,2
DA:255,0
DA:256,0
DA:257,0
DA:258,0
DA:260,4
DA:269,1
DA:270,1
DA:271,1
DA:272,1
DA:273,1
DA:274,1
DA:275,1
DA:276,1
DA:279,1
DA:280,1
DA:281,1
DA:282,1
DA:283,1
DA:284,1
DA:285,1
DA:288,1
DA:289,1
DA:290,1
DA:291,1
DA:292,1
DA:296,1
DA:297,1
DA:298,1
DA:300,0
DA:302,1
DA:303,1
DA:305,0
DA:307,1
DA:308,1
DA:310,0
DA:312,1
DA:316,1
DA:317,1
DA:318,1
DA:319,1
DA:320,1
DA:321,1
DA:322,1
DA:323,1
DA:326,0
DA:328,1
DA:332,1
DA:333,1
DA:334,1
DA:335,1
DA:336,1
DA:337,1
DA:338,1
DA:339,1
DA:340,1
DA:341,1
DA:342,1
DA:343,1
DA:344,1
DA:345,1
DA:346,1
DA:347,1
DA:348,1
DA:349,1
DA:350,1
DA:351,1
DA:352,1
DA:353,1
DA:354,1
DA:355,1
DA:356,1
DA:357,1
DA:358,1
DA:359,1
DA:360,1
DA:361,1
DA:362,1
DA:363,1
DA:364,1
DA:365,1
DA:366,1
DA:367,1
DA:368,1
DA:369,1
DA:370,1
DA:371,1
DA:372,1
DA:373,1
DA:374,1
DA:375,1
DA:376,1
DA:377,1
DA:378,1
DA:379,1
DA:380,1
DA:381,1
DA:382,1
DA:383,1
DA:384,1
DA:385,1
DA:386,1
DA:387,1
DA:388,1
DA:389,1
DA:390,1
BRF:0
BRH:0
LF:129
LH:121
end_of_record
SF:/Users/andreasbigger/kona/crates/node/rpc/src/reqwest.rs
FN:23,_RNCNvXNtCsjwK5DVurFxR_8kona_rpc7reqwestNtB4_16SupervisorClientNtNtNtB6_7interop3api15CheckAccessList17check_access_list0B6_
FN:18,_RNvXNtCsjwK5DVurFxR_8kona_rpc7reqwestNtB2_16SupervisorClientNtNtNtB4_7interop3api15CheckAccessList17check_access_list
FNDA:0,_RNCNvXNtCsjwK5DVurFxR_8kona_rpc7reqwestNtB4_16SupervisorClientNtNtNtB6_7interop3api15CheckAccessList17check_access_list0B6_
FNDA:0,_RNvXNtCsjwK5DVurFxR_8kona_rpc7reqwestNtB2_16SupervisorClientNtNtNtB4_7interop3api15CheckAccessList17check_access_list
FNF:2
FNH:0
DA:18,0
DA:19,0
DA:20,0
DA:21,0
DA:22,0
DA:23,0
DA:24,0
DA:25,0
DA:26,0
DA:27,0
DA:28,0
DA:29,0
DA:30,0
DA:31,0
BRF:0
BRH:0
LF:15
LH:0
end_of_record
SF:/Users/andreasbigger/kona/crates/node/rpc/src/response.rs
FN:26,_RNvNtNtCsjwK5DVurFxR_8kona_rpc8response5testss_23test_safe_head_response
FNDA:1,_RNvNtNtCsjwK5DVurFxR_8kona_rpc8response5testss_23test_safe_head_response
FNF:1
FNH:1
DA:26,1
DA:27,1
DA:28,1
DA:29,1
BRF:0
BRH:0
LF:4
LH:4
end_of_record
SF:/Users/andreasbigger/kona/crates/node/rpc/src/superchain.rs
FN:168,_RINvXs_NtCsjwK5DVurFxR_8kona_rpc10superchainNtB5_15ProtocolVersionNtNtCsb6wi0nN4e2E_5serde3ser9Serialize9serializeQINtNtCs2DTF9YqBam2_10serde_json3ser10SerializerQINtNtCs7Lutq36SewB_5alloc3vec3VechEEEB7_
FN:178,_RINvXs0_NtCsjwK5DVurFxR_8kona_rpc10superchainNtB6_15ProtocolVersionNtNtCsb6wi0nN4e2E_5serde2de11Deserialize11deserializepEB8_
FN:452,_RNvNtNtCsjwK5DVurFxR_8kona_rpc10superchain5tests16encode_decode_v0
FN:348,_RNvNtNtCsjwK5DVurFxR_8kona_rpc10superchain5testss_27test_protocol_version_serde
FN:309,_RNvNtNtCsjwK5DVurFxR_8kona_rpc10superchain5testss_29test_protocol_version_display
FN:324,_RNvNtNtCsjwK5DVurFxR_8kona_rpc10superchain5testss_31test_protocol_version_accessors
FN:365,_RNvNtNtCsjwK5DVurFxR_8kona_rpc10superchain5testss_35test_protocol_version_encode_decode
FN:239,_RNCNvMs2_NtCsjwK5DVurFxR_8kona_rpc10superchainNtB7_23ProtocolVersionFormatV021is_readable_build_tag0B9_
FN:215,_RNCNvXs1_NtCsjwK5DVurFxR_8kona_rpc10superchainNtB7_23ProtocolVersionFormatV0NtNtCs8dmkrYGpicx_4core3fmt7Display3fmt0B9_
FN:152,_RNvMNtCsjwK5DVurFxR_8kona_rpc10superchainNtB2_15ProtocolVersion11pre_release
FN:117,_RNvMNtCsjwK5DVurFxR_8kona_rpc10superchainNtB2_15ProtocolVersion5as_v0
FN:124,_RNvMNtCsjwK5DVurFxR_8kona_rpc10superchainNtB2_15ProtocolVersion5build
FN:110,_RNvMNtCsjwK5DVurFxR_8kona_rpc10superchainNtB2_15ProtocolVersion5inner
FN:131,_RNvMNtCsjwK5DVurFxR_8kona_rpc10superchainNtB2_15ProtocolVersion5major
FN:138,_RNvMNtCsjwK5DVurFxR_8kona_rpc10superchainNtB2_15ProtocolVersion5minor
FN:145,_RNvMNtCsjwK5DVurFxR_8kona_rpc10superchainNtB2_15ProtocolVersion5patch
FN:99,_RNvMNtCsjwK5DVurFxR_8kona_rpc10superchainNtB2_15ProtocolVersion6decode
FN:80,_RNvMNtCsjwK5DVurFxR_8kona_rpc10superchainNtB2_15ProtocolVersion6encode
FN:159,_RNvMNtCsjwK5DVurFxR_8kona_rpc10superchainNtB2_15ProtocolVersion7display
FN:235,_RNvMs2_NtCsjwK5DVurFxR_8kona_rpc10superchainNtB5_23ProtocolVersionFormatV021is_readable_build_tag
FN:287,_RNvMs2_NtCsjwK5DVurFxR_8kona_rpc10superchainNtB5_23ProtocolVersionFormatV06decode
FN:265,_RNvMs2_NtCsjwK5DVurFxR_8kona_rpc10superchainNtB5_23ProtocolVersionFormatV06encode
FN:214,_RNvXs1_NtCsjwK5DVurFxR_8kona_rpc10superchainNtB5_23ProtocolVersionFormatV0NtNtCs8dmkrYGpicx_4core3fmt7Display3fmt
FN:239,_RNCNvMs2_NtCsjbXN2Fk5mxX_8kona_rpc10superchainNtB7_23ProtocolVersionFormatV021is_readable_build_tag0B9_
FN:215,_RNCNvXs1_NtCsjbXN2Fk5mxX_8kona_rpc10superchainNtB7_23ProtocolVersionFormatV0NtNtCs8dmkrYGpicx_4core3fmt7Display3fmt0B9_
FN:152,_RNvMNtCsjbXN2Fk5mxX_8kona_rpc10superchainNtB2_15ProtocolVersion11pre_release
FN:117,_RNvMNtCsjbXN2Fk5mxX_8kona_rpc10superchainNtB2_15ProtocolVersion5as_v0
FN:124,_RNvMNtCsjbXN2Fk5mxX_8kona_rpc10superchainNtB2_15ProtocolVersion5build
FN:110,_RNvMNtCsjbXN2Fk5mxX_8kona_rpc10superchainNtB2_15ProtocolVersion5inner
FN:131,_RNvMNtCsjbXN2Fk5mxX_8kona_rpc10superchainNtB2_15ProtocolVersion5major
FN:138,_RNvMNtCsjbXN2Fk5mxX_8kona_rpc10superchainNtB2_15ProtocolVersion5minor
FN:145,_RNvMNtCsjbXN2Fk5mxX_8kona_rpc10superchainNtB2_15ProtocolVersion5patch
FN:99,_RNvMNtCsjbXN2Fk5mxX_8kona_rpc10superchainNtB2_15ProtocolVersion6decode
FN:80,_RNvMNtCsjbXN2Fk5mxX_8kona_rpc10superchainNtB2_15ProtocolVersion6encode
FN:159,_RNvMNtCsjbXN2Fk5mxX_8kona_rpc10superchainNtB2_15ProtocolVersion7display
FN:235,_RNvMs2_NtCsjbXN2Fk5mxX_8kona_rpc10superchainNtB5_23ProtocolVersionFormatV021is_readable_build_tag
FN:287,_RNvMs2_NtCsjbXN2Fk5mxX_8kona_rpc10superchainNtB5_23ProtocolVersionFormatV06decode
FN:265,_RNvMs2_NtCsjbXN2Fk5mxX_8kona_rpc10superchainNtB5_23ProtocolVersionFormatV06encode
FN:214,_RNvXs1_NtCsjbXN2Fk5mxX_8kona_rpc10superchainNtB5_23ProtocolVersionFormatV0NtNtCs8dmkrYGpicx_4core3fmt7Display3fmt
FNDA:1,_RINvXs_NtCsjwK5DVurFxR_8kona_rpc10superchainNtB5_15ProtocolVersionNtNtCsb6wi0nN4e2E_5serde3ser9Serialize9serializeQINtNtCs2DTF9YqBam2_10serde_json3ser10SerializerQINtNtCs7Lutq36SewB_5alloc3vec3VechEEEB7_
FNDA:0,_RINvXs0_NtCsjwK5DVurFxR_8kona_rpc10superchainNtB6_15ProtocolVersionNtNtCsb6wi0nN4e2E_5serde2de11Deserialize11deserializepEB8_
FNDA:7,_RNvNtNtCsjwK5DVurFxR_8kona_rpc10superchain5tests16encode_decode_v0
FNDA:1,_RNvNtNtCsjwK5DVurFxR_8kona_rpc10superchain5testss_27test_protocol_version_serde
FNDA:1,_RNvNtNtCsjwK5DVurFxR_8kona_rpc10superchain5testss_29test_protocol_version_display
FNDA:1,_RNvNtNtCsjwK5DVurFxR_8kona_rpc10superchain5testss_31test_protocol_version_accessors
FNDA:1,_RNvNtNtCsjwK5DVurFxR_8kona_rpc10superchain5testss_35test_protocol_version_encode_decode
FNDA:2,_RNCNvMs2_NtCsjwK5DVurFxR_8kona_rpc10superchainNtB7_23ProtocolVersionFormatV021is_readable_build_tag0B9_
FNDA:15,_RNCNvXs1_NtCsjwK5DVurFxR_8kona_rpc10superchainNtB7_23ProtocolVersionFormatV0NtNtCs8dmkrYGpicx_4core3fmt7Display3fmt0B9_
FNDA:1,_RNvMNtCsjwK5DVurFxR_8kona_rpc10superchainNtB2_15ProtocolVersion11pre_release
FNDA:1,_RNvMNtCsjwK5DVurFxR_8kona_rpc10superchainNtB2_15ProtocolVersion5as_v0
FNDA:1,_RNvMNtCsjwK5DVurFxR_8kona_rpc10superchainNtB2_15ProtocolVersion5build
FNDA:1,_RNvMNtCsjwK5DVurFxR_8kona_rpc10superchainNtB2_15ProtocolVersion5inner
FNDA:1,_RNvMNtCsjwK5DVurFxR_8kona_rpc10superchainNtB2_15ProtocolVersion5major
FNDA:1,_RNvMNtCsjwK5DVurFxR_8kona_rpc10superchainNtB2_15ProtocolVersion5minor
FNDA:1,_RNvMNtCsjwK5DVurFxR_8kona_rpc10superchainNtB2_15ProtocolVersion5patch
FNDA:7,_RNvMNtCsjwK5DVurFxR_8kona_rpc10superchainNtB2_15ProtocolVersion6decode
FNDA:8,_RNvMNtCsjwK5DVurFxR_8kona_rpc10superchainNtB2_15ProtocolVersion6encode
FNDA:8,_RNvMNtCsjwK5DVurFxR_8kona_rpc10superchainNtB2_15ProtocolVersion7display
FNDA:7,_RNvMs2_NtCsjwK5DVurFxR_8kona_rpc10superchainNtB5_23ProtocolVersionFormatV021is_readable_build_tag
FNDA:7,_RNvMs2_NtCsjwK5DVurFxR_8kona_rpc10superchainNtB5_23ProtocolVersionFormatV06decode
FNDA:8,_RNvMs2_NtCsjwK5DVurFxR_8kona_rpc10superchainNtB5_23ProtocolVersionFormatV06encode
FNDA:8,_RNvXs1_NtCsjwK5DVurFxR_8kona_rpc10superchainNtB5_23ProtocolVersionFormatV0NtNtCs8dmkrYGpicx_4core3fmt7Display3fmt
FNDA:0,_RNCNvMs2_NtCsjbXN2Fk5mxX_8kona_rpc10superchainNtB7_23ProtocolVersionFormatV021is_readable_build_tag0B9_
FNDA:0,_RNCNvXs1_NtCsjbXN2Fk5mxX_8kona_rpc10superchainNtB7_23ProtocolVersionFormatV0NtNtCs8dmkrYGpicx_4core3fmt7Display3fmt0B9_
FNDA:0,_RNvMNtCsjbXN2Fk5mxX_8kona_rpc10superchainNtB2_15ProtocolVersion11pre_release
FNDA:0,_RNvMNtCsjbXN2Fk5mxX_8kona_rpc10superchainNtB2_15ProtocolVersion5as_v0
FNDA:0,_RNvMNtCsjbXN2Fk5mxX_8kona_rpc10superchainNtB2_15ProtocolVersion5build
FNDA:0,_RNvMNtCsjbXN2Fk5mxX_8kona_rpc10superchainNtB2_15ProtocolVersion5inner
FNDA:0,_RNvMNtCsjbXN2Fk5mxX_8kona_rpc10superchainNtB2_15ProtocolVersion5major
FNDA:0,_RNvMNtCsjbXN2Fk5mxX_8kona_rpc10superchainNtB2_15ProtocolVersion5minor
FNDA:0,_RNvMNtCsjbXN2Fk5mxX_8kona_rpc10superchainNtB2_15ProtocolVersion5patch
FNDA:0,_RNvMNtCsjbXN2Fk5mxX_8kona_rpc10superchainNtB2_15ProtocolVersion6decode
FNDA:0,_RNvMNtCsjbXN2Fk5mxX_8kona_rpc10superchainNtB2_15ProtocolVersion6encode
FNDA:0,_RNvMNtCsjbXN2Fk5mxX_8kona_rpc10superchainNtB2_15ProtocolVersion7display
FNDA:0,_RNvMs2_NtCsjbXN2Fk5mxX_8kona_rpc10superchainNtB5_23ProtocolVersionFormatV021is_readable_build_tag
FNDA:0,_RNvMs2_NtCsjbXN2Fk5mxX_8kona_rpc10superchainNtB5_23ProtocolVersionFormatV06decode
FNDA:0,_RNvMs2_NtCsjbXN2Fk5mxX_8kona_rpc10superchainNtB5_23ProtocolVersionFormatV06encode
FNDA:0,_RNvXs1_NtCsjbXN2Fk5mxX_8kona_rpc10superchainNtB5_23ProtocolVersionFormatV0NtNtCs8dmkrYGpicx_4core3fmt7Display3fmt
FNF:23
FNH:22
DA:80,8
DA:81,8
DA:82,8
DA:83,8
DA:84,8
DA:85,8
DA:86,8
DA:87,8
DA:88,8
DA:89,8
DA:90,8
DA:99,7
DA:100,7
DA:101,7
DA:102,7
DA:103,7
DA:104,7
DA:105,0
DA:107,7
DA:110,1
DA:111,1
DA:112,1
DA:113,1
DA:114,1
DA:117,1
DA:118,1
DA:119,1
DA:120,1
DA:121,1
DA:124,1
DA:125,1
DA:126,1
DA:127,1
DA:128,1
DA:131,1
DA:132,1
DA:133,1
DA:134,1
DA:135,1
DA:138,1
DA:139,1
DA:140,1
DA:141,1
DA:142,1
DA:145,1
DA:146,1
DA:147,1
DA:148,1
DA:149,1
DA:152,1
DA:153,1
DA:154,1
DA:155,1
DA:156,1
DA:159,8
DA:160,8
DA:161,8
DA:162,8
DA:163,8
DA:168,1
DA:169,1
DA:170,1
DA:171,1
DA:172,1
DA:173,1
DA:178,0
DA:179,0
DA:180,0
DA:181,0
DA:182,0
DA:183,0
DA:184,0
DA:214,8
DA:215,15
DA:216,7
DA:217,2
DA:218,2
DA:220,5
DA:223,1
DA:226,8
DA:227,8
DA:229,8
DA:230,8
DA:235,7
DA:236,28
DA:237,28
DA:239,2
DA:240,0
DA:241,1
DA:242,1
DA:243,27
DA:244,27
DA:245,27
DA:246,27
DA:247,27
DA:248,5
DA:249,22
DA:251,1
DA:252,7
DA:265,8
DA:266,8
DA:267,8
DA:268,8
DA:269,8
DA:270,8
DA:271,8
DA:272,8
DA:273,8
DA:274,8
DA:287,7
DA:288,7
DA:289,0
DA:290,7
DA:291,7
DA:292,7
DA:293,7
DA:294,7
DA:295,7
DA:296,7
DA:297,7
DA:299,7
DA:309,1
DA:310,1
DA:311,1
DA:312,1
DA:313,1
DA:314,1
DA:315,1
DA:316,1
DA:317,1
DA:318,1
DA:319,1
DA:320,1
DA:321,1
DA:324,1
DA:325,1
DA:326,1
DA:327,1
DA:328,1
DA:329,1
DA:330,1
DA:331,1
DA:332,1
DA:333,1
DA:334,1
DA:335,1
DA:336,1
DA:337,1
DA:338,1
DA:339,1
DA:340,1
DA:341,1
DA:342,1
DA:343,1
DA:344,1
DA:348,1
DA:349,1
DA:350,1
DA:351,1
DA:352,1
DA:353,1
DA:354,1
DA:355,1
DA:356,1
DA:357,1
DA:358,1
DA:359,1
DA:360,1
DA:361,1
DA:362,1
DA:365,1
DA:366,1
DA:367,1
DA:368,1
DA:369,1
DA:370,1
DA:371,1
DA:372,1
DA:373,1
DA:374,1
DA:375,1
DA:376,1
DA:377,1
DA:378,1
DA:379,1
DA:380,1
DA:381,1
DA:382,1
DA:383,1
DA:384,1
DA:385,1
DA:386,1
DA:387,1
DA:388,1
DA:389,1
DA:390,1
DA:391,1
DA:392,1
DA:393,1
DA:394,1
DA:395,1
DA:396,1
DA:397,1
DA:398,1
DA:399,1
DA:400,1
DA:401,1
DA:402,1
DA:403,1
DA:404,1
DA:405,1
DA:406,1
DA:407,1
DA:408,1
DA:409,1
DA:410,1
DA:411,1
DA:412,1
DA:413,1
DA:414,1
DA:415,1
DA:416,1
DA:417,1
DA:418,1
DA:419,1
DA:420,1
DA:421,1
DA:422,1
DA:423,1
DA:424,1
DA:425,1
DA:426,1
DA:427,1
DA:428,1
DA:429,1
DA:430,1
DA:431,1
DA:432,1
DA:433,1
DA:434,1
DA:435,1
DA:436,1
DA:437,1
DA:438,1
DA:439,1
DA:440,1
DA:441,1
DA:442,1
DA:443,1
DA:444,1
DA:445,1
DA:447,8
DA:448,7
DA:449,7
DA:450,1
DA:452,7
DA:453,7
DA:454,7
DA:456,7
DA:457,7
DA:459,7
DA:460,7
DA:461,7
BRF:0
BRH:0
LF:265
LH:255
end_of_record
SF:/Users/andreasbigger/kona/crates/node/service/src/actors/derivation.rs
FN:60,_RNCNvMNtNtCsl40GumSxEiH_17kona_node_service6actors10derivationINtB4_15DerivationActorpE25produce_next_safe_payload0B8_
FN:162,_RNCNvXININtNtCsl40GumSxEiH_17kona_node_service6actors10derivations0_0pEINtB7_15DerivationActorpENtNtB9_6traits9NodeActor5start0Bb_
FN:187,_RNCNvXININtNtCsl40GumSxEiH_17kona_node_service6actors10derivations0_0pEINtB7_15DerivationActorpENtNtB9_6traits9NodeActor7process0Bb_
FN:58,_RNvMNtNtCsl40GumSxEiH_17kona_node_service6actors10derivationINtB2_15DerivationActorpE25produce_next_safe_payloadB6_
FN:46,_RNvMNtNtCsl40GumSxEiH_17kona_node_service6actors10derivationINtB2_15DerivationActorpE3newB6_
FN:185,_RNvXININtNtCsl40GumSxEiH_17kona_node_service6actors10derivations0_0pEINtB5_15DerivationActorpENtNtB7_6traits9NodeActor5startB9_
FN:203,_RNvXININtNtCsl40GumSxEiH_17kona_node_service6actors10derivations0_0pEINtB5_15DerivationActorpENtNtB7_6traits9NodeActor7processB9_
FNDA:0,_RNCNvMNtNtCsl40GumSxEiH_17kona_node_service6actors10derivationINtB4_15DerivationActorpE25produce_next_safe_payload0B8_
FNDA:0,_RNCNvXININtNtCsl40GumSxEiH_17kona_node_service6actors10derivations0_0pEINtB7_15DerivationActorpENtNtB9_6traits9NodeActor5start0Bb_
FNDA:0,_RNCNvXININtNtCsl40GumSxEiH_17kona_node_service6actors10derivations0_0pEINtB7_15DerivationActorpENtNtB9_6traits9NodeActor7process0Bb_
FNDA:0,_RNvMNtNtCsl40GumSxEiH_17kona_node_service6actors10derivationINtB2_15DerivationActorpE25produce_next_safe_payloadB6_
FNDA:0,_RNvMNtNtCsl40GumSxEiH_17kona_node_service6actors10derivationINtB2_15DerivationActorpE3newB6_
FNDA:0,_RNvXININtNtCsl40GumSxEiH_17kona_node_service6actors10derivations0_0pEINtB5_15DerivationActorpENtNtB7_6traits9NodeActor5startB9_
FNDA:0,_RNvXININtNtCsl40GumSxEiH_17kona_node_service6actors10derivations0_0pEINtB5_15DerivationActorpENtNtB7_6traits9NodeActor7processB9_
FNF:7
FNH:0
DA:46,0
DA:47,0
DA:48,0
DA:49,0
DA:50,0
DA:51,0
DA:52,0
DA:53,0
DA:54,0
DA:58,0
DA:59,0
DA:60,0
DA:65,0
DA:66,0
DA:68,0
DA:70,0
DA:71,0
DA:74,0
DA:75,0
DA:76,0
DA:79,0
DA:80,0
DA:81,0
DA:82,0
DA:83,0
DA:85,0
DA:87,0
DA:89,0
DA:90,0
DA:92,0
DA:93,0
DA:94,0
DA:95,0
DA:97,0
DA:98,0
DA:99,0
DA:100,0
DA:101,0
DA:102,0
DA:103,0
DA:104,0
DA:105,0
DA:106,0
DA:107,0
DA:108,0
DA:109,0
DA:110,0
DA:111,0
DA:113,0
DA:114,0
DA:116,0
DA:118,0
DA:122,0
DA:123,0
DA:124,0
DA:125,0
DA:126,0
DA:127,0
DA:128,0
DA:129,0
DA:130,0
DA:131,0
DA:132,0
DA:133,0
DA:134,0
DA:135,0
DA:139,0
DA:140,0
DA:147,0
DA:148,0
DA:149,0
DA:151,0
DA:162,0
DA:164,0
DA:165,0
DA:166,0
DA:168,0
DA:170,0
DA:172,0
DA:173,0
DA:174,0
DA:176,0
DA:178,0
DA:179,0
DA:180,0
DA:181,0
DA:185,0
DA:187,0
DA:190,0
DA:191,0
DA:194,0
DA:196,0
DA:197,0
DA:201,0
DA:202,0
DA:203,0
BRF:0
BRH:0
LF:99
LH:0
end_of_record
SF:/Users/andreasbigger/kona/crates/node/service/src/actors/engine.rs
FN:82,_RNCNvMs_NtNtCsl40GumSxEiH_17kona_node_service6actors6engineNtB6_14EngineLauncher6launch0Ba_
FN:108,_RNCNvXs3_NtNtCsl40GumSxEiH_17kona_node_service6actors6engineNtB7_11EngineActorNtNtB9_6traits9NodeActor5start0Bb_
FN:156,_RNCNvXs3_NtNtCsl40GumSxEiH_17kona_node_service6actors6engineNtB7_11EngineActorNtNtB9_6traits9NodeActor7process0Bb_
FN:44,_RNvMNtNtCsl40GumSxEiH_17kona_node_service6actors6engineNtB2_11EngineActor3new
FN:98,_RNvMs_NtNtCsl40GumSxEiH_17kona_node_service6actors6engineNtB4_14EngineLauncher13state_builder
FN:88,_RNvMs_NtNtCsl40GumSxEiH_17kona_node_service6actors6engineNtB4_14EngineLauncher6client
FN:82,_RNvMs_NtNtCsl40GumSxEiH_17kona_node_service6actors6engineNtB4_14EngineLauncher6launch
FN:154,_RNvXs3_NtNtCsl40GumSxEiH_17kona_node_service6actors6engineNtB5_11EngineActorNtNtB7_6traits9NodeActor5start
FN:158,_RNvXs3_NtNtCsl40GumSxEiH_17kona_node_service6actors6engineNtB5_11EngineActorNtNtB7_6traits9NodeActor7process
FNDA:0,_RNCNvMs_NtNtCsl40GumSxEiH_17kona_node_service6actors6engineNtB6_14EngineLauncher6launch0Ba_
FNDA:0,_RNCNvXs3_NtNtCsl40GumSxEiH_17kona_node_service6actors6engineNtB7_11EngineActorNtNtB9_6traits9NodeActor5start0Bb_
FNDA:0,_RNCNvXs3_NtNtCsl40GumSxEiH_17kona_node_service6actors6engineNtB7_11EngineActorNtNtB9_6traits9NodeActor7process0Bb_
FNDA:0,_RNvMNtNtCsl40GumSxEiH_17kona_node_service6actors6engineNtB2_11EngineActor3new
FNDA:0,_RNvMs_NtNtCsl40GumSxEiH_17kona_node_service6actors6engineNtB4_14EngineLauncher13state_builder
FNDA:0,_RNvMs_NtNtCsl40GumSxEiH_17kona_node_service6actors6engineNtB4_14EngineLauncher6client
FNDA:0,_RNvMs_NtNtCsl40GumSxEiH_17kona_node_service6actors6engineNtB4_14EngineLauncher6launch
FNDA:0,_RNvXs3_NtNtCsl40GumSxEiH_17kona_node_service6actors6engineNtB5_11EngineActorNtNtB7_6traits9NodeActor5start
FNDA:0,_RNvXs3_NtNtCsl40GumSxEiH_17kona_node_service6actors6engineNtB5_11EngineActorNtNtB7_6traits9NodeActor7process
FNF:9
FNH:0
DA:44,0
DA:45,0
DA:46,0
DA:47,0
DA:48,0
DA:49,0
DA:50,0
DA:51,0
DA:52,0
DA:53,0
DA:54,0
DA:55,0
DA:56,0
DA:57,0
DA:58,0
DA:59,0
DA:60,0
DA:61,0
DA:62,0
DA:82,0
DA:83,0
DA:84,0
DA:85,0
DA:88,0
DA:89,0
DA:90,0
DA:91,0
DA:92,0
DA:93,0
DA:94,0
DA:95,0
DA:98,0
DA:99,0
DA:100,0
DA:108,0
DA:110,0
DA:111,0
DA:112,0
DA:113,0
DA:115,0
DA:116,0
DA:117,0
DA:118,0
DA:120,0
DA:121,0
DA:122,0
DA:123,0
DA:124,0
DA:126,0
DA:127,0
DA:128,0
DA:129,0
DA:130,0
DA:131,0
DA:132,0
DA:133,0
DA:134,0
DA:136,0
DA:137,0
DA:138,0
DA:139,0
DA:140,0
DA:142,0
DA:143,0
DA:144,0
DA:145,0
DA:146,0
DA:147,0
DA:148,0
DA:149,0
DA:150,0
DA:154,0
DA:156,0
DA:157,0
DA:158,0
BRF:0
BRH:0
LF:78
LH:0
end_of_record
SF:/Users/andreasbigger/kona/crates/node/service/src/actors/l1_watcher_rpc.rs
FN:57,_RNCNCNvMNtNtCsl40GumSxEiH_17kona_node_service6actors14l1_watcher_rpcNtB6_12L1WatcherRpc10fetch_logs00Ba_
FN:72,_RNCNCNvMNtNtCsl40GumSxEiH_17kona_node_service6actors14l1_watcher_rpcNtB6_12L1WatcherRpc18block_info_by_hash00Ba_
FN:98,_RNCNCNvXs0_NtNtCsl40GumSxEiH_17kona_node_service6actors14l1_watcher_rpcNtB9_12L1WatcherRpcNtNtBb_6traits9NodeActor5start00Bd_
FN:52,_RNCNvMNtNtCsl40GumSxEiH_17kona_node_service6actors14l1_watcher_rpcNtB4_12L1WatcherRpc10fetch_logs0B8_
FN:66,_RNCNvMNtNtCsl40GumSxEiH_17kona_node_service6actors14l1_watcher_rpcNtB4_12L1WatcherRpc18block_info_by_hash0B8_
FN:93,_RNCNvXs0_NtNtCsl40GumSxEiH_17kona_node_service6actors14l1_watcher_rpcNtB7_12L1WatcherRpcNtNtB9_6traits9NodeActor5start0Bb_
FN:151,_RNCNvXs0_NtNtCsl40GumSxEiH_17kona_node_service6actors14l1_watcher_rpcNtB7_12L1WatcherRpcNtNtB9_6traits9NodeActor7process0Bb_
FN:49,_RNvMNtNtCsl40GumSxEiH_17kona_node_service6actors14l1_watcher_rpcNtB2_12L1WatcherRpc10fetch_logs
FN:63,_RNvMNtNtCsl40GumSxEiH_17kona_node_service6actors14l1_watcher_rpcNtB2_12L1WatcherRpc18block_info_by_hash
FN:38,_RNvMNtNtCsl40GumSxEiH_17kona_node_service6actors14l1_watcher_rpcNtB2_12L1WatcherRpc3new
FN:149,_RNvXs0_NtNtCsl40GumSxEiH_17kona_node_service6actors14l1_watcher_rpcNtB5_12L1WatcherRpcNtNtB7_6traits9NodeActor5start
FN:154,_RNvXs0_NtNtCsl40GumSxEiH_17kona_node_service6actors14l1_watcher_rpcNtB5_12L1WatcherRpcNtNtB7_6traits9NodeActor7process
FNDA:0,_RNCNCNvMNtNtCsl40GumSxEiH_17kona_node_service6actors14l1_watcher_rpcNtB6_12L1WatcherRpc10fetch_logs00Ba_
FNDA:0,_RNCNCNvMNtNtCsl40GumSxEiH_17kona_node_service6actors14l1_watcher_rpcNtB6_12L1WatcherRpc18block_info_by_hash00Ba_
FNDA:0,_RNCNCNvXs0_NtNtCsl40GumSxEiH_17kona_node_service6actors14l1_watcher_rpcNtB9_12L1WatcherRpcNtNtBb_6traits9NodeActor5start00Bd_
FNDA:0,_RNCNvMNtNtCsl40GumSxEiH_17kona_node_service6actors14l1_watcher_rpcNtB4_12L1WatcherRpc10fetch_logs0B8_
FNDA:0,_RNCNvMNtNtCsl40GumSxEiH_17kona_node_service6actors14l1_watcher_rpcNtB4_12L1WatcherRpc18block_info_by_hash0B8_
FNDA:0,_RNCNvXs0_NtNtCsl40GumSxEiH_17kona_node_service6actors14l1_watcher_rpcNtB7_12L1WatcherRpcNtNtB9_6traits9NodeActor5start0Bb_
FNDA:0,_RNCNvXs0_NtNtCsl40GumSxEiH_17kona_node_service6actors14l1_watcher_rpcNtB7_12L1WatcherRpcNtNtB9_6traits9NodeActor7process0Bb_
FNDA:0,_RNvMNtNtCsl40GumSxEiH_17kona_node_service6actors14l1_watcher_rpcNtB2_12L1WatcherRpc10fetch_logs
FNDA:0,_RNvMNtNtCsl40GumSxEiH_17kona_node_service6actors14l1_watcher_rpcNtB2_12L1WatcherRpc18block_info_by_hash
FNDA:0,_RNvMNtNtCsl40GumSxEiH_17kona_node_service6actors14l1_watcher_rpcNtB2_12L1WatcherRpc3new
FNDA:0,_RNvXs0_NtNtCsl40GumSxEiH_17kona_node_service6actors14l1_watcher_rpcNtB5_12L1WatcherRpcNtNtB7_6traits9NodeActor5start
FNDA:0,_RNvXs0_NtNtCsl40GumSxEiH_17kona_node_service6actors14l1_watcher_rpcNtB5_12L1WatcherRpcNtNtB7_6traits9NodeActor7process
FNF:12
FNH:0
DA:38,0
DA:39,0
DA:40,0
DA:41,0
DA:42,0
DA:43,0
DA:44,0
DA:45,0
DA:46,0
DA:49,0
DA:50,0
DA:51,0
DA:52,0
DA:53,0
DA:54,0
DA:55,0
DA:56,0
DA:57,0
DA:59,0
DA:60,0
DA:63,0
DA:64,0
DA:65,0
DA:66,0
DA:68,0
DA:69,0
DA:70,0
DA:71,0
DA:72,0
DA:73,0
DA:77,0
DA:78,0
DA:79,0
DA:80,0
DA:81,0
DA:82,0
DA:83,0
DA:84,0
DA:85,0
DA:93,0
DA:94,0
DA:95,0
DA:96,0
DA:97,0
DA:98,0
DA:99,0
DA:100,0
DA:103,0
DA:104,0
DA:106,0
DA:108,0
DA:110,0
DA:112,0
DA:115,0
DA:116,0
DA:117,0
DA:119,0
DA:121,0
DA:122,0
DA:128,0
DA:129,0
DA:130,0
DA:131,0
DA:132,0
DA:133,0
DA:135,0
DA:137,0
DA:138,0
DA:140,0
DA:142,0
DA:143,0
DA:149,0
DA:151,0
DA:153,0
DA:154,0
BRF:0
BRH:0
LF:82
LH:0
end_of_record
SF:/Users/andreasbigger/kona/crates/node/service/src/actors/network.rs
FN:73,_RNCNvXs0_NtNtCsl40GumSxEiH_17kona_node_service6actors7networkNtB7_12NetworkActorNtNtB9_6traits9NodeActor5start0Bb_
FN:126,_RNCNvXs0_NtNtCsl40GumSxEiH_17kona_node_service6actors7networkNtB7_12NetworkActorNtNtB9_6traits9NodeActor7process0Bb_
FN:58,_RNvMNtNtCsl40GumSxEiH_17kona_node_service6actors7networkNtB2_12NetworkActor3new
FN:124,_RNvXs0_NtNtCsl40GumSxEiH_17kona_node_service6actors7networkNtB5_12NetworkActorNtNtB7_6traits9NodeActor5start
FN:128,_RNvXs0_NtNtCsl40GumSxEiH_17kona_node_service6actors7networkNtB5_12NetworkActorNtNtB7_6traits9NodeActor7process
FNDA:0,_RNCNvXs0_NtNtCsl40GumSxEiH_17kona_node_service6actors7networkNtB7_12NetworkActorNtNtB9_6traits9NodeActor5start0Bb_
FNDA:0,_RNCNvXs0_NtNtCsl40GumSxEiH_17kona_node_service6actors7networkNtB7_12NetworkActorNtNtB9_6traits9NodeActor7process0Bb_
FNDA:0,_RNvMNtNtCsl40GumSxEiH_17kona_node_service6actors7networkNtB2_12NetworkActor3new
FNDA:0,_RNvXs0_NtNtCsl40GumSxEiH_17kona_node_service6actors7networkNtB5_12NetworkActorNtNtB7_6traits9NodeActor5start
FNDA:0,_RNvXs0_NtNtCsl40GumSxEiH_17kona_node_service6actors7networkNtB5_12NetworkActorNtNtB7_6traits9NodeActor7process
FNF:5
FNH:0
DA:58,0
DA:59,0
DA:60,0
DA:61,0
DA:62,0
DA:63,0
DA:64,0
DA:65,0
DA:73,0
DA:75,0
DA:78,0
DA:79,0
DA:83,0
DA:86,0
DA:87,0
DA:88,0
DA:90,0
DA:92,0
DA:94,0
DA:95,0
DA:96,0
DA:97,0
DA:98,0
DA:99,0
DA:102,0
DA:103,0
DA:107,0
DA:108,0
DA:109,0
DA:111,0
DA:113,0
DA:115,0
DA:116,0
DA:118,0
DA:120,0
DA:124,0
DA:126,0
DA:127,0
DA:128,0
BRF:0
BRH:0
LF:41
LH:0
end_of_record
SF:/Users/andreasbigger/kona/crates/node/service/src/actors/rpc.rs
FN:49,_RNCNCNvXs3_NtNtCsl40GumSxEiH_17kona_node_service6actors3rpcNtB9_8RpcActorNtNtBb_6traits9NodeActor5start0s_0Bd_
FN:40,_RNCNvXs3_NtNtCsl40GumSxEiH_17kona_node_service6actors3rpcNtB7_8RpcActorNtNtB9_6traits9NodeActor5start0Bb_
FN:56,_RNCNvXs3_NtNtCsl40GumSxEiH_17kona_node_service6actors3rpcNtB7_8RpcActorNtNtB9_6traits9NodeActor7process0Bb_
FN:30,_RNvMNtNtCsl40GumSxEiH_17kona_node_service6actors3rpcNtB2_8RpcActor3new
FN:54,_RNvXs3_NtNtCsl40GumSxEiH_17kona_node_service6actors3rpcNtB5_8RpcActorNtNtB7_6traits9NodeActor5start
FN:58,_RNvXs3_NtNtCsl40GumSxEiH_17kona_node_service6actors3rpcNtB5_8RpcActorNtNtB7_6traits9NodeActor7process
FNDA:0,_RNCNCNvXs3_NtNtCsl40GumSxEiH_17kona_node_service6actors3rpcNtB9_8RpcActorNtNtBb_6traits9NodeActor5start0s_0Bd_
FNDA:0,_RNCNvXs3_NtNtCsl40GumSxEiH_17kona_node_service6actors3rpcNtB7_8RpcActorNtNtB9_6traits9NodeActor5start0Bb_
FNDA:0,_RNCNvXs3_NtNtCsl40GumSxEiH_17kona_node_service6actors3rpcNtB7_8RpcActorNtNtB9_6traits9NodeActor7process0Bb_
FNDA:0,_RNvMNtNtCsl40GumSxEiH_17kona_node_service6actors3rpcNtB2_8RpcActor3new
FNDA:0,_RNvXs3_NtNtCsl40GumSxEiH_17kona_node_service6actors3rpcNtB5_8RpcActorNtNtB7_6traits9NodeActor5start
FNDA:0,_RNvXs3_NtNtCsl40GumSxEiH_17kona_node_service6actors3rpcNtB5_8RpcActorNtNtB7_6traits9NodeActor7process
FNF:6
FNH:0
DA:30,0
DA:31,0
DA:32,0
DA:40,0
DA:41,0
DA:42,0
DA:44,0
DA:45,0
DA:47,0
DA:49,0
DA:51,0
DA:54,0
DA:56,0
DA:57,0
DA:58,0
BRF:0
BRH:0
LF:18
LH:0
end_of_record
SF:/Users/andreasbigger/kona/crates/node/service/src/service/core.rs
FN:29,_RNCNvYpNtNtNtCsl40GumSxEiH_17kona_node_service7service4core17RollupNodeService5start0Bb_
FN:40,_RNvYpNtNtNtCsl40GumSxEiH_17kona_node_service7service4core17RollupNodeService5startB9_
FNDA:0,_RNCNvYpNtNtNtCsl40GumSxEiH_17kona_node_service7service4core17RollupNodeService5start0Bb_
FNDA:0,_RNvYpNtNtNtCsl40GumSxEiH_17kona_node_service7service4core17RollupNodeService5startB9_
FNF:2
FNH:0
DA:29,0
DA:30,0
DA:31,0
DA:32,0
DA:33,0
DA:36,0
DA:37,0
DA:38,0
DA:40,0
BRF:0
BRH:0
LF:10
LH:0
end_of_record
SF:/Users/andreasbigger/kona/crates/node/service/src/service/sequencer.rs
FN:10,_RNCNvYpNtNtNtCsl40GumSxEiH_17kona_node_service7service9sequencer20SequencerNodeService5start0Bb_
FN:12,_RNvYpNtNtNtCsl40GumSxEiH_17kona_node_service7service9sequencer20SequencerNodeService5startB9_
FNDA:0,_RNCNvYpNtNtNtCsl40GumSxEiH_17kona_node_service7service9sequencer20SequencerNodeService5start0Bb_
FNDA:0,_RNvYpNtNtNtCsl40GumSxEiH_17kona_node_service7service9sequencer20SequencerNodeService5startB9_
FNF:2
FNH:0
DA:10,0
DA:11,0
DA:12,0
BRF:0
BRH:0
LF:4
LH:0
end_of_record
SF:/Users/andreasbigger/kona/crates/node/service/src/service/standard/builder.rs
FN:137,_RNCNvMNtNtNtCsl40GumSxEiH_17kona_node_service7service8standard7builderNtB4_17RollupNodeBuilder5build0Ba_
FN:88,_RNvMNtNtNtCsl40GumSxEiH_17kona_node_service7service8standard7builderNtB2_17RollupNodeBuilder15with_jwt_secret
FN:93,_RNvMNtNtNtCsl40GumSxEiH_17kona_node_service7service8standard7builderNtB2_17RollupNodeBuilder15with_p2p_config
FN:98,_RNvMNtNtNtCsl40GumSxEiH_17kona_node_service7service8standard7builderNtB2_17RollupNodeBuilder15with_rpc_config
FN:63,_RNvMNtNtNtCsl40GumSxEiH_17kona_node_service7service8standard7builderNtB2_17RollupNodeBuilder16with_sync_config
FN:103,_RNvMNtNtNtCsl40GumSxEiH_17kona_node_service7service8standard7builderNtB2_17RollupNodeBuilder21with_network_disabled
FN:73,_RNvMNtNtNtCsl40GumSxEiH_17kona_node_service7service8standard7builderNtB2_17RollupNodeBuilder22with_l1_beacon_api_url
FN:78,_RNvMNtNtNtCsl40GumSxEiH_17kona_node_service7service8standard7builderNtB2_17RollupNodeBuilder22with_l2_engine_rpc_url
FN:68,_RNvMNtNtNtCsl40GumSxEiH_17kona_node_service7service8standard7builderNtB2_17RollupNodeBuilder24with_l1_provider_rpc_url
FN:83,_RNvMNtNtNtCsl40GumSxEiH_17kona_node_service7service8standard7builderNtB2_17RollupNodeBuilder24with_l2_provider_rpc_url
FN:53,_RNvMNtNtNtCsl40GumSxEiH_17kona_node_service7service8standard7builderNtB2_17RollupNodeBuilder3new
FN:118,_RNvMNtNtNtCsl40GumSxEiH_17kona_node_service7service8standard7builderNtB2_17RollupNodeBuilder5build
FN:58,_RNvMNtNtNtCsl40GumSxEiH_17kona_node_service7service8standard7builderNtB2_17RollupNodeBuilder9with_mode
FNDA:0,_RNCNvMNtNtNtCsl40GumSxEiH_17kona_node_service7service8standard7builderNtB4_17RollupNodeBuilder5build0Ba_
FNDA:0,_RNvMNtNtNtCsl40GumSxEiH_17kona_node_service7service8standard7builderNtB2_17RollupNodeBuilder15with_jwt_secret
FNDA:0,_RNvMNtNtNtCsl40GumSxEiH_17kona_node_service7service8standard7builderNtB2_17RollupNodeBuilder15with_p2p_config
FNDA:0,_RNvMNtNtNtCsl40GumSxEiH_17kona_node_service7service8standard7builderNtB2_17RollupNodeBuilder15with_rpc_config
FNDA:0,_RNvMNtNtNtCsl40GumSxEiH_17kona_node_service7service8standard7builderNtB2_17RollupNodeBuilder16with_sync_config
FNDA:0,_RNvMNtNtNtCsl40GumSxEiH_17kona_node_service7service8standard7builderNtB2_17RollupNodeBuilder21with_network_disabled
FNDA:0,_RNvMNtNtNtCsl40GumSxEiH_17kona_node_service7service8standard7builderNtB2_17RollupNodeBuilder22with_l1_beacon_api_url
FNDA:0,_RNvMNtNtNtCsl40GumSxEiH_17kona_node_service7service8standard7builderNtB2_17RollupNodeBuilder22with_l2_engine_rpc_url
FNDA:0,_RNvMNtNtNtCsl40GumSxEiH_17kona_node_service7service8standard7builderNtB2_17RollupNodeBuilder24with_l1_provider_rpc_url
FNDA:0,_RNvMNtNtNtCsl40GumSxEiH_17kona_node_service7service8standard7builderNtB2_17RollupNodeBuilder24with_l2_provider_rpc_url
FNDA:0,_RNvMNtNtNtCsl40GumSxEiH_17kona_node_service7service8standard7builderNtB2_17RollupNodeBuilder3new
FNDA:0,_RNvMNtNtNtCsl40GumSxEiH_17kona_node_service7service8standard7builderNtB2_17RollupNodeBuilder5build
FNDA:0,_RNvMNtNtNtCsl40GumSxEiH_17kona_node_service7service8standard7builderNtB2_17RollupNodeBuilder9with_mode
FNF:13
FNH:0
DA:53,0
DA:54,0
DA:55,0
DA:58,0
DA:59,0
DA:60,0
DA:63,0
DA:64,0
DA:65,0
DA:68,0
DA:69,0
DA:70,0
DA:73,0
DA:74,0
DA:75,0
DA:78,0
DA:79,0
DA:80,0
DA:83,0
DA:84,0
DA:85,0
DA:88,0
DA:89,0
DA:90,0
DA:93,0
DA:94,0
DA:95,0
DA:98,0
DA:99,0
DA:100,0
DA:103,0
DA:104,0
DA:105,0
DA:118,0
DA:119,0
DA:120,0
DA:121,0
DA:122,0
DA:123,0
DA:124,0
DA:125,0
DA:126,0
DA:127,0
DA:128,0
DA:129,0
DA:130,0
DA:131,0
DA:132,0
DA:133,0
DA:134,0
DA:135,0
DA:136,0
DA:137,0
DA:138,0
DA:139,0
DA:140,0
DA:141,0
DA:142,0
DA:143,0
DA:144,0
DA:145,0
DA:146,0
DA:147,0
DA:148,0
DA:149,0
DA:150,0
DA:151,0
DA:152,0
DA:153,0
DA:154,0
DA:155,0
DA:156,0
DA:157,0
DA:158,0
DA:159,0
BRF:0
BRH:0
LF:76
LH:0
end_of_record
SF:/Users/andreasbigger/kona/crates/node/service/src/service/standard/node.rs
FN:70,_RNCNvXs1_NtNtNtCsl40GumSxEiH_17kona_node_service7service8standard4nodeNtB7_10RollupNodeNtNtBb_9sequencer20SequencerNodeService5start0Bd_
FN:108,_RNCNvXs2_NtNtNtCsl40GumSxEiH_17kona_node_service7service8standard4nodeNtB7_10RollupNodeNtNtBb_9validator20ValidatorNodeService12init_network0Bd_
FN:129,_RNCNvXs2_NtNtNtCsl40GumSxEiH_17kona_node_service7service8standard4nodeNtB7_10RollupNodeNtNtBb_9validator20ValidatorNodeService15init_derivation0Bd_
FN:56,_RNvMNtNtNtCsl40GumSxEiH_17kona_node_service7service8standard4nodeNtB2_10RollupNode7builder
FN:63,_RNvXs0_NtNtNtCsl40GumSxEiH_17kona_node_service7service8standard4nodeNtB5_10RollupNodeNtNtB9_4core17RollupNodeService4mode
FN:72,_RNvXs1_NtNtNtCsl40GumSxEiH_17kona_node_service7service8standard4nodeNtB5_10RollupNodeNtNtB9_9sequencer20SequencerNodeService5start
FN:127,_RNvXs2_NtNtNtCsl40GumSxEiH_17kona_node_service7service8standard4nodeNtB5_10RollupNodeNtNtB9_9validator20ValidatorNodeService12init_network
FN:85,_RNvXs2_NtNtNtCsl40GumSxEiH_17kona_node_service7service8standard4nodeNtB5_10RollupNodeNtNtB9_9validator20ValidatorNodeService14new_da_watcher
FN:174,_RNvXs2_NtNtNtCsl40GumSxEiH_17kona_node_service7service8standard4nodeNtB5_10RollupNodeNtNtB9_9validator20ValidatorNodeService15init_derivation
FN:104,_RNvXs2_NtNtNtCsl40GumSxEiH_17kona_node_service7service8standard4nodeNtB5_10RollupNodeNtNtB9_9validator20ValidatorNodeService3rpc
FN:81,_RNvXs2_NtNtNtCsl40GumSxEiH_17kona_node_service7service8standard4nodeNtB5_10RollupNodeNtNtB9_9validator20ValidatorNodeService6config
FN:100,_RNvXs2_NtNtNtCsl40GumSxEiH_17kona_node_service7service8standard4nodeNtB5_10RollupNodeNtNtB9_9validator20ValidatorNodeService6engine
FNDA:0,_RNCNvXs1_NtNtNtCsl40GumSxEiH_17kona_node_service7service8standard4nodeNtB7_10RollupNodeNtNtBb_9sequencer20SequencerNodeService5start0Bd_
FNDA:0,_RNCNvXs2_NtNtNtCsl40GumSxEiH_17kona_node_service7service8standard4nodeNtB7_10RollupNodeNtNtBb_9validator20ValidatorNodeService12init_network0Bd_
FNDA:0,_RNCNvXs2_NtNtNtCsl40GumSxEiH_17kona_node_service7service8standard4nodeNtB7_10RollupNodeNtNtBb_9validator20ValidatorNodeService15init_derivation0Bd_
FNDA:0,_RNvMNtNtNtCsl40GumSxEiH_17kona_node_service7service8standard4nodeNtB2_10RollupNode7builder
FNDA:0,_RNvXs0_NtNtNtCsl40GumSxEiH_17kona_node_service7service8standard4nodeNtB5_10RollupNodeNtNtB9_4core17RollupNodeService4mode
FNDA:0,_RNvXs1_NtNtNtCsl40GumSxEiH_17kona_node_service7service8standard4nodeNtB5_10RollupNodeNtNtB9_9sequencer20SequencerNodeService5start
FNDA:0,_RNvXs2_NtNtNtCsl40GumSxEiH_17kona_node_service7service8standard4nodeNtB5_10RollupNodeNtNtB9_9validator20ValidatorNodeService12init_network
FNDA:0,_RNvXs2_NtNtNtCsl40GumSxEiH_17kona_node_service7service8standard4nodeNtB5_10RollupNodeNtNtB9_9validator20ValidatorNodeService14new_da_watcher
FNDA:0,_RNvXs2_NtNtNtCsl40GumSxEiH_17kona_node_service7service8standard4nodeNtB5_10RollupNodeNtNtB9_9validator20ValidatorNodeService15init_derivation
FNDA:0,_RNvXs2_NtNtNtCsl40GumSxEiH_17kona_node_service7service8standard4nodeNtB5_10RollupNodeNtNtB9_9validator20ValidatorNodeService3rpc
FNDA:0,_RNvXs2_NtNtNtCsl40GumSxEiH_17kona_node_service7service8standard4nodeNtB5_10RollupNodeNtNtB9_9validator20ValidatorNodeService6config
FNDA:0,_RNvXs2_NtNtNtCsl40GumSxEiH_17kona_node_service7service8standard4nodeNtB5_10RollupNodeNtNtB9_9validator20ValidatorNodeService6engine
FNF:12
FNH:0
DA:56,0
DA:57,0
DA:58,0
DA:63,0
DA:64,0
DA:65,0
DA:70,0
DA:71,0
DA:72,0
DA:81,0
DA:82,0
DA:83,0
DA:85,0
DA:86,0
DA:87,0
DA:88,0
DA:89,0
DA:90,0
DA:91,0
DA:92,0
DA:93,0
DA:94,0
DA:95,0
DA:96,0
DA:97,0
DA:98,0
DA:100,0
DA:101,0
DA:102,0
DA:104,0
DA:105,0
DA:106,0
DA:108,0
DA:109,0
DA:110,0
DA:111,0
DA:112,0
DA:113,0
DA:115,0
DA:117,0
DA:119,0
DA:120,0
DA:121,0
DA:122,0
DA:123,0
DA:124,0
DA:125,0
DA:126,0
DA:127,0
DA:129,0
DA:131,0
DA:132,0
DA:133,0
DA:134,0
DA:135,0
DA:136,0
DA:137,0
DA:140,0
DA:141,0
DA:142,0
DA:143,0
DA:144,0
DA:145,0
DA:147,0
DA:152,0
DA:157,0
DA:158,0
DA:159,0
DA:160,0
DA:161,0
DA:163,0
DA:164,0
DA:165,0
DA:166,0
DA:167,0
DA:168,0
DA:169,0
DA:170,0
DA:171,0
DA:173,0
DA:174,0
BRF:0
BRH:0
LF:84
LH:0
end_of_record
SF:/Users/andreasbigger/kona/crates/node/service/src/service/util.rs
FN:18,_RNCNCNvYpNtNtNtCsl40GumSxEiH_17kona_node_service7service9validator20ValidatorNodeService5start0s0_0Bd_
FN:18,_RNCNCNvYpNtNtNtCsl40GumSxEiH_17kona_node_service7service9validator20ValidatorNodeService5start0s1_0Bd_
FN:18,_RNCNCNvYpNtNtNtCsl40GumSxEiH_17kona_node_service7service9validator20ValidatorNodeService5start0s2_0Bd_
FN:18,_RNCNCNvYpNtNtNtCsl40GumSxEiH_17kona_node_service7service9validator20ValidatorNodeService5start0s3_0Bd_
FN:18,_RNCNCNvYpNtNtNtCsl40GumSxEiH_17kona_node_service7service9validator20ValidatorNodeService5start0s4_0Bd_
FNDA:0,_RNCNCNvYpNtNtNtCsl40GumSxEiH_17kona_node_service7service9validator20ValidatorNodeService5start0s0_0Bd_
FNDA:0,_RNCNCNvYpNtNtNtCsl40GumSxEiH_17kona_node_service7service9validator20ValidatorNodeService5start0s1_0Bd_
FNDA:0,_RNCNCNvYpNtNtNtCsl40GumSxEiH_17kona_node_service7service9validator20ValidatorNodeService5start0s2_0Bd_
FNDA:0,_RNCNCNvYpNtNtNtCsl40GumSxEiH_17kona_node_service7service9validator20ValidatorNodeService5start0s3_0Bd_
FNDA:0,_RNCNCNvYpNtNtNtCsl40GumSxEiH_17kona_node_service7service9validator20ValidatorNodeService5start0s4_0Bd_
FNF:1
FNH:0
DA:18,0
DA:19,0
DA:20,0
DA:21,0
DA:22,0
DA:23,0
BRF:0
BRH:0
LF:6
LH:0
end_of_record
SF:/Users/andreasbigger/kona/crates/node/service/src/service/validator.rs
FN:132,_RNCNCNvYpNtNtNtCsl40GumSxEiH_17kona_node_service7service9validator20ValidatorNodeService5start00Bd_
FN:133,_RNCNCNvYpNtNtNtCsl40GumSxEiH_17kona_node_service7service9validator20ValidatorNodeService5start0s_0Bd_
FN:92,_RNCNvYpNtNtNtCsl40GumSxEiH_17kona_node_service7service9validator20ValidatorNodeService5start0Bb_
FN:157,_RNvYpNtNtNtCsl40GumSxEiH_17kona_node_service7service9validator20ValidatorNodeService5startB9_
FNDA:0,_RNCNCNvYpNtNtNtCsl40GumSxEiH_17kona_node_service7service9validator20ValidatorNodeService5start00Bd_
FNDA:0,_RNCNCNvYpNtNtNtCsl40GumSxEiH_17kona_node_service7service9validator20ValidatorNodeService5start0s_0Bd_
FNDA:0,_RNCNvYpNtNtNtCsl40GumSxEiH_17kona_node_service7service9validator20ValidatorNodeService5start0Bb_
FNDA:0,_RNvYpNtNtNtCsl40GumSxEiH_17kona_node_service7service9validator20ValidatorNodeService5startB9_
FNF:4
FNH:0
DA:92,0
DA:94,0
DA:95,0
DA:96,0
DA:97,0
DA:98,0
DA:99,0
DA:100,0
DA:101,0
DA:102,0
DA:103,0
DA:105,0
DA:106,0
DA:107,0
DA:108,0
DA:109,0
DA:110,0
DA:111,0
DA:112,0
DA:113,0
DA:114,0
DA:115,0
DA:116,0
DA:117,0
DA:118,0
DA:119,0
DA:120,0
DA:121,0
DA:122,0
DA:123,0
DA:124,0
DA:125,0
DA:126,0
DA:127,0
DA:128,0
DA:129,0
DA:130,0
DA:131,0
DA:132,0
DA:133,0
DA:134,0
DA:135,0
DA:136,0
DA:137,0
DA:138,0
DA:139,0
DA:140,0
DA:141,0
DA:142,0
DA:145,0
DA:146,0
DA:147,0
DA:148,0
DA:149,0
DA:150,0
DA:152,0
DA:155,0
DA:156,0
DA:157,0
BRF:0
BRH:0
LF:63
LH:0
end_of_record
SF:/Users/andreasbigger/kona/crates/node/service/src/sync_start.rs
FN:209,_RNCNCNvNtCsl40GumSxEiH_17kona_node_service10sync_start14fetch_l1_block00B7_
FN:214,_RNCNCNvNtCsl40GumSxEiH_17kona_node_service10sync_start14fetch_l1_block0s1_0B7_
FN:214,_RNCNCNvNtCsl40GumSxEiH_17kona_node_service10sync_start14fetch_l1_block0s2_0B7_
FN:225,_RNCNCNvNtCsl40GumSxEiH_17kona_node_service10sync_start14fetch_l1_block0s_0B7_
FN:136,_RNCNvNtCsl40GumSxEiH_17kona_node_service10sync_start11traverse_l20B5_
FN:205,_RNCNvNtCsl40GumSxEiH_17kona_node_service10sync_start14fetch_l1_block0B5_
FN:328,_RNCNvNtCsl40GumSxEiH_17kona_node_service10sync_start17is_ready_for_sync0B5_
FN:97,_RNCNvNtCsl40GumSxEiH_17kona_node_service10sync_start18current_forkchoice0B5_
FN:253,_RNCNvNtCsl40GumSxEiH_17kona_node_service10sync_start24check_genesis_boundaries0B5_
FN:256,_RNCNvNtCsl40GumSxEiH_17kona_node_service10sync_start24check_genesis_boundariess_0B5_
FN:43,_RNCNvNtCsl40GumSxEiH_17kona_node_service10sync_start24find_starting_forkchoice0B5_
FN:307,_RNCNvNtCsl40GumSxEiH_17kona_node_service10sync_start27update_highest_canonical_l20B5_
FN:350,_RNCNvNtCsl40GumSxEiH_17kona_node_service10sync_start31validate_l1_origin_relationship0B5_
FN:131,_RNvNtCsl40GumSxEiH_17kona_node_service10sync_start11traverse_l2
FN:200,_RNvNtCsl40GumSxEiH_17kona_node_service10sync_start14fetch_l1_block
FN:320,_RNvNtCsl40GumSxEiH_17kona_node_service10sync_start17is_ready_for_sync
FN:94,_RNvNtCsl40GumSxEiH_17kona_node_service10sync_start18current_forkchoice
FN:240,_RNvNtCsl40GumSxEiH_17kona_node_service10sync_start24check_genesis_boundaries
FN:39,_RNvNtCsl40GumSxEiH_17kona_node_service10sync_start24find_starting_forkchoice
FN:278,_RNvNtCsl40GumSxEiH_17kona_node_service10sync_start27update_highest_canonical_l2
FN:264,_RNvNtCsl40GumSxEiH_17kona_node_service10sync_start30check_finalized_block_mismatch
FN:333,_RNvNtCsl40GumSxEiH_17kona_node_service10sync_start31validate_l1_origin_relationship
FN:115,_RNvNtCsl40GumSxEiH_17kona_node_service10sync_start38should_recover_from_finality_less_sync
FN:375,_RNvXNtCsl40GumSxEiH_17kona_node_service10sync_startNtB2_17L2ForkchoiceStateNtNtCs8dmkrYGpicx_4core3fmt7Display3fmt
FNDA:0,_RNCNCNvNtCsl40GumSxEiH_17kona_node_service10sync_start14fetch_l1_block00B7_
FNDA:0,_RNCNCNvNtCsl40GumSxEiH_17kona_node_service10sync_start14fetch_l1_block0s1_0B7_
FNDA:0,_RNCNCNvNtCsl40GumSxEiH_17kona_node_service10sync_start14fetch_l1_block0s2_0B7_
FNDA:0,_RNCNCNvNtCsl40GumSxEiH_17kona_node_service10sync_start14fetch_l1_block0s_0B7_
FNDA:0,_RNCNvNtCsl40GumSxEiH_17kona_node_service10sync_start11traverse_l20B5_
FNDA:0,_RNCNvNtCsl40GumSxEiH_17kona_node_service10sync_start14fetch_l1_block0B5_
FNDA:0,_RNCNvNtCsl40GumSxEiH_17kona_node_service10sync_start17is_ready_for_sync0B5_
FNDA:0,_RNCNvNtCsl40GumSxEiH_17kona_node_service10sync_start18current_forkchoice0B5_
FNDA:0,_RNCNvNtCsl40GumSxEiH_17kona_node_service10sync_start24check_genesis_boundaries0B5_
FNDA:0,_RNCNvNtCsl40GumSxEiH_17kona_node_service10sync_start24check_genesis_boundariess_0B5_
FNDA:0,_RNCNvNtCsl40GumSxEiH_17kona_node_service10sync_start24find_starting_forkchoice0B5_
FNDA:0,_RNCNvNtCsl40GumSxEiH_17kona_node_service10sync_start27update_highest_canonical_l20B5_
FNDA:0,_RNCNvNtCsl40GumSxEiH_17kona_node_service10sync_start31validate_l1_origin_relationship0B5_
FNDA:0,_RNvNtCsl40GumSxEiH_17kona_node_service10sync_start11traverse_l2
FNDA:0,_RNvNtCsl40GumSxEiH_17kona_node_service10sync_start14fetch_l1_block
FNDA:0,_RNvNtCsl40GumSxEiH_17kona_node_service10sync_start17is_ready_for_sync
FNDA:0,_RNvNtCsl40GumSxEiH_17kona_node_service10sync_start18current_forkchoice
FNDA:0,_RNvNtCsl40GumSxEiH_17kona_node_service10sync_start24check_genesis_boundaries
FNDA:0,_RNvNtCsl40GumSxEiH_17kona_node_service10sync_start24find_starting_forkchoice
FNDA:0,_RNvNtCsl40GumSxEiH_17kona_node_service10sync_start27update_highest_canonical_l2
FNDA:0,_RNvNtCsl40GumSxEiH_17kona_node_service10sync_start30check_finalized_block_mismatch
FNDA:0,_RNvNtCsl40GumSxEiH_17kona_node_service10sync_start31validate_l1_origin_relationship
FNDA:0,_RNvNtCsl40GumSxEiH_17kona_node_service10sync_start38should_recover_from_finality_less_sync
FNDA:0,_RNvXNtCsl40GumSxEiH_17kona_node_service10sync_startNtB2_17L2ForkchoiceStateNtNtCs8dmkrYGpicx_4core3fmt7Display3fmt
FNF:23
FNH:0
DA:39,0
DA:40,0
DA:41,0
DA:42,0
DA:43,0
DA:44,0
DA:45,0
DA:50,0
DA:54,0
DA:55,0
DA:57,0
DA:60,0
DA:61,0
DA:62,0
DA:63,0
DA:64,0
DA:65,0
DA:66,0
DA:67,0
DA:68,0
DA:69,0
DA:71,0
DA:73,0
DA:75,0
DA:77,0
DA:78,0
DA:79,0
DA:80,0
DA:81,0
DA:82,0
DA:83,0
DA:84,0
DA:85,0
DA:86,0
DA:87,0
DA:94,0
DA:95,0
DA:96,0
DA:97,0
DA:98,0
DA:99,0
DA:100,0
DA:101,0
DA:103,0
DA:104,0
DA:105,0
DA:106,0
DA:108,0
DA:109,0
DA:110,0
DA:111,0
DA:112,0
DA:115,0
DA:116,0
DA:117,0
DA:118,0
DA:119,0
DA:120,0
DA:121,0
DA:122,0
DA:123,0
DA:124,0
DA:125,0
DA:126,0
DA:127,0
DA:131,0
DA:132,0
DA:133,0
DA:134,0
DA:135,0
DA:136,0
DA:137,0
DA:138,0
DA:139,0
DA:140,0
DA:141,0
DA:142,0
DA:143,0
DA:147,0
DA:150,0
DA:154,0
DA:157,0
DA:158,0
DA:159,0
DA:160,0
DA:161,0
DA:162,0
DA:163,0
DA:164,0
DA:165,0
DA:166,0
DA:167,0
DA:168,0
DA:169,0
DA:170,0
DA:171,0
DA:174,0
DA:175,0
DA:176,0
DA:177,0
DA:178,0
DA:181,0
DA:182,0
DA:183,0
DA:184,0
DA:187,0
DA:189,0
DA:190,0
DA:191,0
DA:192,0
DA:193,0
DA:196,0
DA:197,0
DA:200,0
DA:201,0
DA:202,0
DA:203,0
DA:204,0
DA:205,0
DA:206,0
DA:207,0
DA:208,0
DA:209,0
DA:210,0
DA:212,0
DA:214,0
DA:215,0
DA:216,0
DA:217,0
DA:220,0
DA:221,0
DA:224,0
DA:225,0
DA:227,0
DA:228,0
DA:229,0
DA:231,0
DA:232,0
DA:234,0
DA:236,0
DA:240,0
DA:241,0
DA:242,0
DA:243,0
DA:244,0
DA:245,0
DA:246,0
DA:247,0
DA:248,0
DA:249,0
DA:250,0
DA:251,0
DA:252,0
DA:253,0
DA:254,0
DA:255,0
DA:256,0
DA:257,0
DA:258,0
DA:259,0
DA:260,0
DA:261,0
DA:264,0
DA:265,0
DA:266,0
DA:267,0
DA:268,0
DA:269,0
DA:270,0
DA:271,0
DA:272,0
DA:273,0
DA:274,0
DA:275,0
DA:278,0
DA:279,0
DA:280,0
DA:281,0
DA:282,0
DA:283,0
DA:284,0
DA:285,0
DA:286,0
DA:287,0
DA:288,0
DA:289,0
DA:290,0
DA:291,0
DA:293,0
DA:295,0
DA:301,0
DA:302,0
DA:304,0
DA:305,0
DA:306,0
DA:307,0
DA:309,0
DA:310,0
DA:311,0
DA:312,0
DA:313,0
DA:314,0
DA:315,0
DA:316,0
DA:317,0
DA:320,0
DA:321,0
DA:322,0
DA:323,0
DA:324,0
DA:325,0
DA:326,0
DA:327,0
DA:328,0
DA:329,0
DA:330,0
DA:333,0
DA:334,0
DA:335,0
DA:336,0
DA:337,0
DA:338,0
DA:340,0
DA:341,0
DA:342,0
DA:343,0
DA:344,0
DA:345,0
DA:346,0
DA:347,0
DA:348,0
DA:349,0
DA:350,0
DA:351,0
DA:352,0
DA:353,0
DA:354,0
DA:355,0
DA:356,0
DA:357,0
DA:359,0
DA:360,0
DA:375,0
DA:376,0
DA:377,0
DA:378,0
DA:379,0
DA:380,0
DA:381,0
DA:382,0
DA:383,0
DA:384,0
DA:385,0
DA:386,0
BRF:0
BRH:0
LF:267
LH:0
end_of_record
SF:/Users/andreasbigger/kona/crates/node/sources/src/runtime/config.rs
FN:19,_RNvXNtNtCs1cgn3hmq2r6_12kona_sources7runtime6configNtB2_13RuntimeConfigNtNtCs8dmkrYGpicx_4core3fmt7Display3fmt
FNDA:0,_RNvXNtNtCs1cgn3hmq2r6_12kona_sources7runtime6configNtB2_13RuntimeConfigNtNtCs8dmkrYGpicx_4core3fmt7Display3fmt
FNF:1
FNH:0
DA:19,0
DA:20,0
DA:21,0
DA:22,0
DA:23,0
DA:24,0
DA:25,0
DA:26,0
DA:27,0
BRF:0
BRH:0
LF:9
LH:0
end_of_record
SF:/Users/andreasbigger/kona/crates/node/sources/src/runtime/loader.rs
FN:74,_RNCNCNvMNtNtCs1cgn3hmq2r6_12kona_sources7runtime6loaderNtB6_13RuntimeLoader4load00Ba_
FN:59,_RNCNvMNtNtCs1cgn3hmq2r6_12kona_sources7runtime6loaderNtB4_13RuntimeLoader11load_latest0B8_
FN:69,_RNCNvMNtNtCs1cgn3hmq2r6_12kona_sources7runtime6loaderNtB4_13RuntimeLoader4load0B8_
FN:178,_RNCNvNtNtNtCs1cgn3hmq2r6_12kona_sources7runtime6loader5testss_26test_online_runtime_loader0B9_
FN:178,_RNvNtNtNtCs1cgn3hmq2r6_12kona_sources7runtime6loader5testss_26test_online_runtime_loader
FN:59,_RNvMNtNtCs1cgn3hmq2r6_12kona_sources7runtime6loaderNtB2_13RuntimeLoader11load_latest
FN:49,_RNvMNtNtCs1cgn3hmq2r6_12kona_sources7runtime6loaderNtB2_13RuntimeLoader3new
FN:66,_RNvMNtNtCs1cgn3hmq2r6_12kona_sources7runtime6loaderNtB2_13RuntimeLoader4load
FNDA:0,_RNCNCNvMNtNtCs1cgn3hmq2r6_12kona_sources7runtime6loaderNtB6_13RuntimeLoader4load00Ba_
FNDA:0,_RNCNvMNtNtCs1cgn3hmq2r6_12kona_sources7runtime6loaderNtB4_13RuntimeLoader11load_latest0B8_
FNDA:0,_RNCNvMNtNtCs1cgn3hmq2r6_12kona_sources7runtime6loaderNtB4_13RuntimeLoader4load0B8_
FNDA:0,_RNCNvNtNtNtCs1cgn3hmq2r6_12kona_sources7runtime6loader5testss_26test_online_runtime_loader0B9_
FNDA:0,_RNvNtNtNtCs1cgn3hmq2r6_12kona_sources7runtime6loader5testss_26test_online_runtime_loader
FNDA:0,_RNvMNtNtCs1cgn3hmq2r6_12kona_sources7runtime6loaderNtB2_13RuntimeLoader11load_latest
FNDA:0,_RNvMNtNtCs1cgn3hmq2r6_12kona_sources7runtime6loaderNtB2_13RuntimeLoader3new
FNDA:0,_RNvMNtNtCs1cgn3hmq2r6_12kona_sources7runtime6loaderNtB2_13RuntimeLoader4load
FNF:8
FNH:0
DA:49,0
DA:50,0
DA:51,0
DA:52,0
DA:53,0
DA:54,0
DA:55,0
DA:56,0
DA:59,0
DA:60,0
DA:61,0
DA:62,0
DA:63,0
DA:66,0
DA:67,0
DA:68,0
DA:69,0
DA:71,0
DA:73,0
DA:74,0
DA:75,0
DA:76,0
DA:77,0
DA:78,0
DA:81,0
DA:82,0
DA:83,0
DA:84,0
DA:85,0
DA:86,0
DA:87,0
DA:88,0
DA:89,0
DA:92,0
DA:93,0
DA:94,0
DA:95,0
DA:98,0
DA:99,0
DA:100,0
DA:101,0
DA:102,0
DA:103,0
DA:104,0
DA:105,0
DA:106,0
DA:107,0
DA:108,0
DA:109,0
DA:110,0
DA:111,0
DA:112,0
DA:113,0
DA:115,0
DA:116,0
DA:117,0
DA:118,0
DA:119,0
DA:120,0
DA:121,0
DA:122,0
DA:123,0
DA:124,0
DA:125,0
DA:127,0
DA:128,0
DA:132,0
DA:133,0
DA:134,0
DA:135,0
DA:136,0
DA:137,0
DA:138,0
DA:139,0
DA:140,0
DA:141,0
DA:142,0
DA:143,0
DA:144,0
DA:145,0
DA:146,0
DA:147,0
DA:148,0
DA:149,0
DA:150,0
DA:151,0
DA:152,0
DA:153,0
DA:154,0
DA:155,0
DA:156,0
DA:157,0
DA:158,0
DA:159,0
DA:160,0
DA:163,0
DA:164,0
DA:165,0
DA:166,0
DA:178,0
DA:179,0
DA:180,0
DA:181,0
DA:182,0
DA:183,0
DA:184,0
DA:185,0
DA:186,0
DA:187,0
DA:188,0
DA:189,0
DA:190,0
DA:191,0
DA:192,0
DA:193,0
DA:194,0
DA:195,0
DA:196,0
DA:197,0
DA:198,0
DA:199,0
DA:200,0
BRF:0
BRH:0
LF:147
LH:0
end_of_record
SF:/Users/andreasbigger/kona/crates/proof/executor/src/builder/assemble.rs
FN:46,_RNCNvMNtNtCsjJlsfNAPoGO_13kona_executor7builder8assembleINtNtB6_4core18StatelessL2BuilderpppE10seal_block0B8_
FN:77,_RNCNvMNtNtCsjJlsfNAPoGO_13kona_executor7builder8assembleINtNtB6_4core18StatelessL2BuilderpppE10seal_blocks0_0B8_
FN:104,_RNCNvMNtNtCsjJlsfNAPoGO_13kona_executor7builder8assembleINtNtB6_4core18StatelessL2BuilderpppE10seal_blocks1_0B8_
FN:60,_RNCNvMNtNtCsjJlsfNAPoGO_13kona_executor7builder8assembleINtNtB6_4core18StatelessL2BuilderpppE10seal_blocks_0B8_
FN:176,_RNCNvMNtNtCsjJlsfNAPoGO_13kona_executor7builder8assembleINtNtB6_4core18StatelessL2BuilderpppE21compute_receipts_root0B8_
FN:190,_RNCNvMNtNtCsjJlsfNAPoGO_13kona_executor7builder8assembleINtNtB6_4core18StatelessL2BuilderpppE21compute_receipts_roots0_0B8_
FN:185,_RNCNvMNtNtCsjJlsfNAPoGO_13kona_executor7builder8assembleINtNtB6_4core18StatelessL2BuilderpppE21compute_receipts_roots_0B8_
FN:29,_RNvMNtNtCsjJlsfNAPoGO_13kona_executor7builder8assembleINtNtB4_4core18StatelessL2BuilderpppE10seal_blockB6_
FN:121,_RNvMNtNtCsjJlsfNAPoGO_13kona_executor7builder8assembleINtNtB4_4core18StatelessL2BuilderpppE19compute_output_rootB6_
FN:163,_RNvMNtNtCsjJlsfNAPoGO_13kona_executor7builder8assembleINtNtB4_4core18StatelessL2BuilderpppE21compute_receipts_rootB6_
FN:151,_RNvMNtNtCsjJlsfNAPoGO_13kona_executor7builder8assembleINtNtB4_4core18StatelessL2BuilderpppE22message_passer_accountB6_
FN:46,_RNCNvMNtNtCs89knhh6EE53_13kona_executor7builder8assembleINtNtB6_4core18StatelessL2BuilderNtNtB8_10test_utils20DiskTrieNodeProviderNtNtCsiRI8oMBxfZX_8kona_mpt4noop14NoopTrieHinterNtCs2t3x9hha69z_12alloy_op_evm12OpEvmFactoryE10seal_block0B8_
FN:190,_RNCNvMNtNtCs89knhh6EE53_13kona_executor7builder8assembleINtNtB6_4core18StatelessL2BuilderNtNtB8_10test_utils20DiskTrieNodeProviderNtNtCsiRI8oMBxfZX_8kona_mpt4noop14NoopTrieHinterNtCs2t3x9hha69z_12alloy_op_evm12OpEvmFactoryE21compute_receipts_roots0_0B8_
FN:185,_RNCNvMNtNtCs89knhh6EE53_13kona_executor7builder8assembleINtNtB6_4core18StatelessL2BuilderNtNtB8_10test_utils20DiskTrieNodeProviderNtNtCsiRI8oMBxfZX_8kona_mpt4noop14NoopTrieHinterNtCs2t3x9hha69z_12alloy_op_evm12OpEvmFactoryE21compute_receipts_roots_0B8_
FN:121,_RNvMNtNtCs89knhh6EE53_13kona_executor7builder8assembleINtNtB4_4core18StatelessL2BuilderpppE19compute_output_rootB6_
FN:176,_RNCNvMNtNtCs89knhh6EE53_13kona_executor7builder8assembleINtNtB6_4core18StatelessL2BuilderNtNtB8_10test_utils20DiskTrieNodeProviderNtNtCsiRI8oMBxfZX_8kona_mpt4noop14NoopTrieHinterNtCs2t3x9hha69z_12alloy_op_evm12OpEvmFactoryE21compute_receipts_root0B8_
FN:77,_RNCNvMNtNtCs89knhh6EE53_13kona_executor7builder8assembleINtNtB6_4core18StatelessL2BuilderNtNtB8_10test_utils20DiskTrieNodeProviderNtNtCsiRI8oMBxfZX_8kona_mpt4noop14NoopTrieHinterNtCs2t3x9hha69z_12alloy_op_evm12OpEvmFactoryE10seal_blocks0_0B8_
FN:104,_RNCNvMNtNtCs89knhh6EE53_13kona_executor7builder8assembleINtNtB6_4core18StatelessL2BuilderNtNtB8_10test_utils20DiskTrieNodeProviderNtNtCsiRI8oMBxfZX_8kona_mpt4noop14NoopTrieHinterNtCs2t3x9hha69z_12alloy_op_evm12OpEvmFactoryE10seal_blocks1_0B8_
FN:29,_RNvMNtNtCs89knhh6EE53_13kona_executor7builder8assembleINtNtB4_4core18StatelessL2BuilderNtNtB6_10test_utils20DiskTrieNodeProviderNtNtCsiRI8oMBxfZX_8kona_mpt4noop14NoopTrieHinterNtCs2t3x9hha69z_12alloy_op_evm12OpEvmFactoryE10seal_blockB6_
FN:163,_RNvMNtNtCs89knhh6EE53_13kona_executor7builder8assembleINtNtB4_4core18StatelessL2BuilderNtNtB6_10test_utils20DiskTrieNodeProviderNtNtCsiRI8oMBxfZX_8kona_mpt4noop14NoopTrieHinterNtCs2t3x9hha69z_12alloy_op_evm12OpEvmFactoryE21compute_receipts_rootB6_
FN:151,_RNvMNtNtCs89knhh6EE53_13kona_executor7builder8assembleINtNtB4_4core18StatelessL2BuilderNtNtB6_10test_utils20DiskTrieNodeProviderNtNtCsiRI8oMBxfZX_8kona_mpt4noop14NoopTrieHinterNtCs2t3x9hha69z_12alloy_op_evm12OpEvmFactoryE22message_passer_accountB6_
FN:60,_RNCNvMNtNtCs89knhh6EE53_13kona_executor7builder8assembleINtNtB6_4core18StatelessL2BuilderNtNtB8_10test_utils20DiskTrieNodeProviderNtNtCsiRI8oMBxfZX_8kona_mpt4noop14NoopTrieHinterNtCs2t3x9hha69z_12alloy_op_evm12OpEvmFactoryE10seal_blocks_0B8_
FNDA:0,_RNCNvMNtNtCsjJlsfNAPoGO_13kona_executor7builder8assembleINtNtB6_4core18StatelessL2BuilderpppE10seal_block0B8_
FNDA:0,_RNCNvMNtNtCsjJlsfNAPoGO_13kona_executor7builder8assembleINtNtB6_4core18StatelessL2BuilderpppE10seal_blocks0_0B8_
FNDA:0,_RNCNvMNtNtCsjJlsfNAPoGO_13kona_executor7builder8assembleINtNtB6_4core18StatelessL2BuilderpppE10seal_blocks1_0B8_
FNDA:0,_RNCNvMNtNtCsjJlsfNAPoGO_13kona_executor7builder8assembleINtNtB6_4core18StatelessL2BuilderpppE10seal_blocks_0B8_
FNDA:0,_RNCNvMNtNtCsjJlsfNAPoGO_13kona_executor7builder8assembleINtNtB6_4core18StatelessL2BuilderpppE21compute_receipts_root0B8_
FNDA:0,_RNCNvMNtNtCsjJlsfNAPoGO_13kona_executor7builder8assembleINtNtB6_4core18StatelessL2BuilderpppE21compute_receipts_roots0_0B8_
FNDA:0,_RNCNvMNtNtCsjJlsfNAPoGO_13kona_executor7builder8assembleINtNtB6_4core18StatelessL2BuilderpppE21compute_receipts_roots_0B8_
FNDA:0,_RNvMNtNtCsjJlsfNAPoGO_13kona_executor7builder8assembleINtNtB4_4core18StatelessL2BuilderpppE10seal_blockB6_
FNDA:0,_RNvMNtNtCsjJlsfNAPoGO_13kona_executor7builder8assembleINtNtB4_4core18StatelessL2BuilderpppE19compute_output_rootB6_
FNDA:0,_RNvMNtNtCsjJlsfNAPoGO_13kona_executor7builder8assembleINtNtB4_4core18StatelessL2BuilderpppE21compute_receipts_rootB6_
FNDA:0,_RNvMNtNtCsjJlsfNAPoGO_13kona_executor7builder8assembleINtNtB4_4core18StatelessL2BuilderpppE22message_passer_accountB6_
FNDA:188,_RNCNvMNtNtCs89knhh6EE53_13kona_executor7builder8assembleINtNtB6_4core18StatelessL2BuilderNtNtB8_10test_utils20DiskTrieNodeProviderNtNtCsiRI8oMBxfZX_8kona_mpt4noop14NoopTrieHinterNtCs2t3x9hha69z_12alloy_op_evm12OpEvmFactoryE10seal_block0B8_
FNDA:188,_RNCNvMNtNtCs89knhh6EE53_13kona_executor7builder8assembleINtNtB6_4core18StatelessL2BuilderNtNtB8_10test_utils20DiskTrieNodeProviderNtNtCsiRI8oMBxfZX_8kona_mpt4noop14NoopTrieHinterNtCs2t3x9hha69z_12alloy_op_evm12OpEvmFactoryE21compute_receipts_roots0_0B8_
FNDA:0,_RNCNvMNtNtCs89knhh6EE53_13kona_executor7builder8assembleINtNtB6_4core18StatelessL2BuilderNtNtB8_10test_utils20DiskTrieNodeProviderNtNtCsiRI8oMBxfZX_8kona_mpt4noop14NoopTrieHinterNtCs2t3x9hha69z_12alloy_op_evm12OpEvmFactoryE21compute_receipts_roots_0B8_
FNDA:0,_RNvMNtNtCs89knhh6EE53_13kona_executor7builder8assembleINtNtB4_4core18StatelessL2BuilderpppE19compute_output_rootB6_
FNDA:0,_RNCNvMNtNtCs89knhh6EE53_13kona_executor7builder8assembleINtNtB6_4core18StatelessL2BuilderNtNtB8_10test_utils20DiskTrieNodeProviderNtNtCsiRI8oMBxfZX_8kona_mpt4noop14NoopTrieHinterNtCs2t3x9hha69z_12alloy_op_evm12OpEvmFactoryE21compute_receipts_root0B8_
FNDA:8,_RNCNvMNtNtCs89knhh6EE53_13kona_executor7builder8assembleINtNtB6_4core18StatelessL2BuilderNtNtB8_10test_utils20DiskTrieNodeProviderNtNtCsiRI8oMBxfZX_8kona_mpt4noop14NoopTrieHinterNtCs2t3x9hha69z_12alloy_op_evm12OpEvmFactoryE10seal_blocks0_0B8_
FNDA:8,_RNCNvMNtNtCs89knhh6EE53_13kona_executor7builder8assembleINtNtB6_4core18StatelessL2BuilderNtNtB8_10test_utils20DiskTrieNodeProviderNtNtCsiRI8oMBxfZX_8kona_mpt4noop14NoopTrieHinterNtCs2t3x9hha69z_12alloy_op_evm12OpEvmFactoryE10seal_blocks1_0B8_
FNDA:8,_RNvMNtNtCs89knhh6EE53_13kona_executor7builder8assembleINtNtB4_4core18StatelessL2BuilderNtNtB6_10test_utils20DiskTrieNodeProviderNtNtCsiRI8oMBxfZX_8kona_mpt4noop14NoopTrieHinterNtCs2t3x9hha69z_12alloy_op_evm12OpEvmFactoryE10seal_blockB6_
FNDA:8,_RNvMNtNtCs89knhh6EE53_13kona_executor7builder8assembleINtNtB4_4core18StatelessL2BuilderNtNtB6_10test_utils20DiskTrieNodeProviderNtNtCsiRI8oMBxfZX_8kona_mpt4noop14NoopTrieHinterNtCs2t3x9hha69z_12alloy_op_evm12OpEvmFactoryE21compute_receipts_rootB6_
FNDA:0,_RNvMNtNtCs89knhh6EE53_13kona_executor7builder8assembleINtNtB4_4core18StatelessL2BuilderNtNtB6_10test_utils20DiskTrieNodeProviderNtNtCsiRI8oMBxfZX_8kona_mpt4noop14NoopTrieHinterNtCs2t3x9hha69z_12alloy_op_evm12OpEvmFactoryE22message_passer_accountB6_
FNDA:188,_RNCNvMNtNtCs89knhh6EE53_13kona_executor7builder8assembleINtNtB6_4core18StatelessL2BuilderNtNtB8_10test_utils20DiskTrieNodeProviderNtNtCsiRI8oMBxfZX_8kona_mpt4noop14NoopTrieHinterNtCs2t3x9hha69z_12alloy_op_evm12OpEvmFactoryE10seal_blocks_0B8_
FNF:11
FNH:7
DA:29,8
DA:30,8
DA:31,8
DA:32,8
DA:33,8
DA:34,8
DA:35,8
DA:36,8
DA:37,8
DA:40,8
DA:41,8
DA:42,8
DA:43,8
DA:44,8
DA:45,8
DA:46,188
DA:47,8
DA:48,8
DA:49,8
DA:50,8
DA:51,8
DA:52,0
DA:53,8
DA:54,8
DA:56,0
DA:60,188
DA:61,8
DA:62,8
DA:63,8
DA:64,8
DA:65,8
DA:66,8
DA:67,8
DA:74,8
DA:75,8
DA:76,8
DA:77,8
DA:78,8
DA:79,8
DA:80,8
DA:81,8
DA:82,8
DA:85,8
DA:86,8
DA:87,8
DA:88,8
DA:89,8
DA:90,8
DA:91,8
DA:92,8
DA:93,8
DA:94,8
DA:95,8
DA:96,8
DA:97,8
DA:98,8
DA:99,8
DA:100,8
DA:101,8
DA:102,8
DA:103,8
DA:104,8
DA:105,8
DA:106,8
DA:107,8
DA:108,8
DA:109,8
DA:110,8
DA:111,8
DA:121,0
DA:122,0
DA:123,0
DA:124,0
DA:126,0
DA:127,0
DA:128,0
DA:131,0
DA:132,0
DA:133,0
DA:134,0
DA:135,0
DA:136,0
DA:137,0
DA:138,0
DA:139,0
DA:143,0
DA:147,0
DA:148,0
DA:151,0
DA:152,0
DA:153,0
DA:154,0
DA:155,0
DA:156,0
DA:157,0
DA:160,0
DA:163,8
DA:164,8
DA:165,8
DA:166,8
DA:167,8
DA:168,8
DA:169,8
DA:170,8
DA:171,8
DA:172,8
DA:173,0
DA:174,0
DA:175,0
DA:176,0
DA:177,0
DA:178,0
DA:179,0
DA:181,0
DA:182,0
DA:183,0
DA:184,0
DA:185,0
DA:186,0
DA:187,0
DA:188,0
DA:190,188
DA:191,8
DA:193,8
BRF:0
BRH:0
LF:133
LH:85
end_of_record
SF:/Users/andreasbigger/kona/crates/proof/executor/src/builder/core.rs
FN:85,_RNCNvMNtNtCsjJlsfNAPoGO_13kona_executor7builder4coreINtB4_18StatelessL2BuilderpppE11build_block0B8_
FN:92,_RNCNvMNtNtCsjJlsfNAPoGO_13kona_executor7builder4coreINtB4_18StatelessL2BuilderpppE11build_blocks0_0B8_
FN:92,_RNCNvMNtNtCsjJlsfNAPoGO_13kona_executor7builder4coreINtB4_18StatelessL2BuilderpppE11build_blocks1_0B8_
FN:62,_RNvMNtNtCsjJlsfNAPoGO_13kona_executor7builder4coreINtB2_18StatelessL2BuilderpppE11build_blockB6_
FN:45,_RNvMNtNtCsjJlsfNAPoGO_13kona_executor7builder4coreINtB2_18StatelessL2BuilderpppE3newB6_
FN:85,_RNCNvMNtNtCs89knhh6EE53_13kona_executor7builder4coreINtB4_18StatelessL2BuilderNtNtB8_10test_utils20DiskTrieNodeProviderNtNtCsiRI8oMBxfZX_8kona_mpt4noop14NoopTrieHinterNtCs2t3x9hha69z_12alloy_op_evm12OpEvmFactoryE11build_block0B8_
FN:92,_RNCNvMNtNtCs89knhh6EE53_13kona_executor7builder4coreINtB4_18StatelessL2BuilderNtNtB8_10test_utils20DiskTrieNodeProviderNtNtCsiRI8oMBxfZX_8kona_mpt4noop14NoopTrieHinterNtCs2t3x9hha69z_12alloy_op_evm12OpEvmFactoryE11build_blocks0_0B8_
FN:92,_RNCNvMNtNtCs89knhh6EE53_13kona_executor7builder4coreINtB4_18StatelessL2BuilderNtNtB8_10test_utils20DiskTrieNodeProviderNtNtCsiRI8oMBxfZX_8kona_mpt4noop14NoopTrieHinterNtCs2t3x9hha69z_12alloy_op_evm12OpEvmFactoryE11build_blocks1_0B8_
FN:62,_RNvMNtNtCs89knhh6EE53_13kona_executor7builder4coreINtB2_18StatelessL2BuilderNtNtB6_10test_utils20DiskTrieNodeProviderNtNtCsiRI8oMBxfZX_8kona_mpt4noop14NoopTrieHinterNtCs2t3x9hha69z_12alloy_op_evm12OpEvmFactoryE11build_blockB6_
FN:45,_RNvMNtNtCs89knhh6EE53_13kona_executor7builder4coreINtB2_18StatelessL2BuilderNtNtB6_10test_utils20DiskTrieNodeProviderNtNtCsiRI8oMBxfZX_8kona_mpt4noop14NoopTrieHinterNtCs2t3x9hha69z_12alloy_op_evm12OpEvmFactoryE3newB6_
FN:157,_RNvXs_NtNtCs89knhh6EE53_13kona_executor7builder4coreNtB4_20BlockBuildingOutcomeINtNtCs8dmkrYGpicx_4core7convert4FromTINtNtCsgKRRzl9x21L_16alloy_primitives6sealed6SealedNtNtNtCs6eM2O2TNYBr_15alloy_consensus5block6header6HeaderEINtNtCs4Guiruz9N8V_9alloy_evm5block20BlockExecutionResultNtNtNtCs2OUQ25vnln_18op_alloy_consensus7receipt8envelope17OpReceiptEnvelopeEEE4from
FN:170,_RNvNtNtNtNtCs89knhh6EE53_13kona_executor7builder4core4test30test_statelessly_execute_blocks_28path_1_block_26207960_tar_gz
FN:170,_RNvNtNtNtNtCs89knhh6EE53_13kona_executor7builder4core4test30test_statelessly_execute_blocks_28path_2_block_26207961_tar_gz
FN:170,_RNvNtNtNtNtCs89knhh6EE53_13kona_executor7builder4core4test30test_statelessly_execute_blocks_28path_3_block_26207962_tar_gz
FN:170,_RNvNtNtNtNtCs89knhh6EE53_13kona_executor7builder4core4test30test_statelessly_execute_blocks_28path_4_block_26207963_tar_gz
FN:170,_RNvNtNtNtNtCs89knhh6EE53_13kona_executor7builder4core4test30test_statelessly_execute_blocks_28path_5_block_26208384_tar_gz
FN:170,_RNvNtNtNtNtCs89knhh6EE53_13kona_executor7builder4core4test30test_statelessly_execute_blocks_28path_6_block_26208858_tar_gz
FN:170,_RNvNtNtNtNtCs89knhh6EE53_13kona_executor7builder4core4test30test_statelessly_execute_blocks_28path_7_block_26208927_tar_gz
FN:170,_RNvNtNtNtNtCs89knhh6EE53_13kona_executor7builder4core4test30test_statelessly_execute_blocks_28path_8_block_26211680_tar_gz
FNDA:0,_RNCNvMNtNtCsjJlsfNAPoGO_13kona_executor7builder4coreINtB4_18StatelessL2BuilderpppE11build_block0B8_
FNDA:0,_RNCNvMNtNtCsjJlsfNAPoGO_13kona_executor7builder4coreINtB4_18StatelessL2BuilderpppE11build_blocks0_0B8_
FNDA:0,_RNCNvMNtNtCsjJlsfNAPoGO_13kona_executor7builder4coreINtB4_18StatelessL2BuilderpppE11build_blocks1_0B8_
FNDA:0,_RNvMNtNtCsjJlsfNAPoGO_13kona_executor7builder4coreINtB2_18StatelessL2BuilderpppE11build_blockB6_
FNDA:0,_RNvMNtNtCsjJlsfNAPoGO_13kona_executor7builder4coreINtB2_18StatelessL2BuilderpppE3newB6_
FNDA:0,_RNCNvMNtNtCs89knhh6EE53_13kona_executor7builder4coreINtB4_18StatelessL2BuilderNtNtB8_10test_utils20DiskTrieNodeProviderNtNtCsiRI8oMBxfZX_8kona_mpt4noop14NoopTrieHinterNtCs2t3x9hha69z_12alloy_op_evm12OpEvmFactoryE11build_block0B8_
FNDA:0,_RNCNvMNtNtCs89knhh6EE53_13kona_executor7builder4coreINtB4_18StatelessL2BuilderNtNtB8_10test_utils20DiskTrieNodeProviderNtNtCsiRI8oMBxfZX_8kona_mpt4noop14NoopTrieHinterNtCs2t3x9hha69z_12alloy_op_evm12OpEvmFactoryE11build_blocks0_0B8_
FNDA:0,_RNCNvMNtNtCs89knhh6EE53_13kona_executor7builder4coreINtB4_18StatelessL2BuilderNtNtB8_10test_utils20DiskTrieNodeProviderNtNtCsiRI8oMBxfZX_8kona_mpt4noop14NoopTrieHinterNtCs2t3x9hha69z_12alloy_op_evm12OpEvmFactoryE11build_blocks1_0B8_
FNDA:8,_RNvMNtNtCs89knhh6EE53_13kona_executor7builder4coreINtB2_18StatelessL2BuilderNtNtB6_10test_utils20DiskTrieNodeProviderNtNtCsiRI8oMBxfZX_8kona_mpt4noop14NoopTrieHinterNtCs2t3x9hha69z_12alloy_op_evm12OpEvmFactoryE11build_blockB6_
FNDA:8,_RNvMNtNtCs89knhh6EE53_13kona_executor7builder4coreINtB2_18StatelessL2BuilderNtNtB6_10test_utils20DiskTrieNodeProviderNtNtCsiRI8oMBxfZX_8kona_mpt4noop14NoopTrieHinterNtCs2t3x9hha69z_12alloy_op_evm12OpEvmFactoryE3newB6_
FNDA:8,_RNvXs_NtNtCs89knhh6EE53_13kona_executor7builder4coreNtB4_20BlockBuildingOutcomeINtNtCs8dmkrYGpicx_4core7convert4FromTINtNtCsgKRRzl9x21L_16alloy_primitives6sealed6SealedNtNtNtCs6eM2O2TNYBr_15alloy_consensus5block6header6HeaderEINtNtCs4Guiruz9N8V_9alloy_evm5block20BlockExecutionResultNtNtNtCs2OUQ25vnln_18op_alloy_consensus7receipt8envelope17OpReceiptEnvelopeEEE4from
FNDA:1,_RNvNtNtNtNtCs89knhh6EE53_13kona_executor7builder4core4test30test_statelessly_execute_blocks_28path_1_block_26207960_tar_gz
FNDA:1,_RNvNtNtNtNtCs89knhh6EE53_13kona_executor7builder4core4test30test_statelessly_execute_blocks_28path_2_block_26207961_tar_gz
FNDA:1,_RNvNtNtNtNtCs89knhh6EE53_13kona_executor7builder4core4test30test_statelessly_execute_blocks_28path_3_block_26207962_tar_gz
FNDA:1,_RNvNtNtNtNtCs89knhh6EE53_13kona_executor7builder4core4test30test_statelessly_execute_blocks_28path_4_block_26207963_tar_gz
FNDA:1,_RNvNtNtNtNtCs89knhh6EE53_13kona_executor7builder4core4test30test_statelessly_execute_blocks_28path_5_block_26208384_tar_gz
FNDA:1,_RNvNtNtNtNtCs89knhh6EE53_13kona_executor7builder4core4test30test_statelessly_execute_blocks_28path_6_block_26208858_tar_gz
FNDA:1,_RNvNtNtNtNtCs89knhh6EE53_13kona_executor7builder4core4test30test_statelessly_execute_blocks_28path_7_block_26208927_tar_gz
FNDA:1,_RNvNtNtNtNtCs89knhh6EE53_13kona_executor7builder4core4test30test_statelessly_execute_blocks_28path_8_block_26211680_tar_gz
FNF:6
FNH:4
DA:45,8
DA:46,8
DA:47,8
DA:48,8
DA:49,8
DA:50,8
DA:51,8
DA:52,8
DA:53,8
DA:54,8
DA:55,8
DA:56,8
DA:57,8
DA:58,8
DA:59,8
DA:62,8
DA:63,8
DA:64,8
DA:65,8
DA:67,8
DA:68,8
DA:69,8
DA:70,8
DA:71,8
DA:72,8
DA:73,8
DA:74,8
DA:75,8
DA:76,8
DA:77,8
DA:78,8
DA:79,8
DA:80,8
DA:81,8
DA:82,8
DA:83,8
DA:84,8
DA:85,8
DA:87,8
DA:92,0
DA:93,0
DA:97,8
DA:98,8
DA:99,8
DA:100,8
DA:101,8
DA:102,8
DA:103,8
DA:104,8
DA:105,8
DA:106,8
DA:107,8
DA:108,8
DA:109,8
DA:112,8
DA:113,8
DA:114,8
DA:115,8
DA:116,8
DA:118,8
DA:122,0
DA:126,8
DA:127,8
DA:128,8
DA:130,8
DA:132,0
DA:133,0
DA:134,0
DA:135,0
DA:136,0
DA:137,0
DA:141,8
DA:142,8
DA:143,8
DA:157,8
DA:158,8
DA:159,8
DA:160,8
DA:161,8
DA:170,8
BRF:0
BRH:0
LF:82
LH:71
end_of_record
SF:/Users/andreasbigger/kona/crates/proof/executor/src/builder/env.rs
FN:59,_RNCNvMNtNtCsjJlsfNAPoGO_13kona_executor7builder3envINtNtB6_4core18StatelessL2BuilderpppE17prepare_block_env0B8_
FN:60,_RNCNvMNtNtCsjJlsfNAPoGO_13kona_executor7builder3envINtNtB6_4core18StatelessL2BuilderpppE17prepare_block_envs_0B8_
FN:89,_RNCNvMNtNtCsjJlsfNAPoGO_13kona_executor7builder3envINtNtB6_4core18StatelessL2BuilderpppE22active_base_fee_params0B8_
FN:38,_RNvMNtNtCsjJlsfNAPoGO_13kona_executor7builder3envINtNtB4_4core18StatelessL2BuilderpppE11evm_cfg_envB6_
FN:45,_RNvMNtNtCsjJlsfNAPoGO_13kona_executor7builder3envINtNtB4_4core18StatelessL2BuilderpppE17prepare_block_envB6_
FN:77,_RNvMNtNtCsjJlsfNAPoGO_13kona_executor7builder3envINtNtB4_4core18StatelessL2BuilderpppE22active_base_fee_paramsB6_
FN:24,_RNvMNtNtCsjJlsfNAPoGO_13kona_executor7builder3envINtNtB4_4core18StatelessL2BuilderpppE7evm_envB6_
FN:59,_RNCNvMNtNtCs89knhh6EE53_13kona_executor7builder3envINtNtB6_4core18StatelessL2BuilderNtNtB8_10test_utils20DiskTrieNodeProviderNtNtCsiRI8oMBxfZX_8kona_mpt4noop14NoopTrieHinterNtCs2t3x9hha69z_12alloy_op_evm12OpEvmFactoryE17prepare_block_env0B8_
FN:60,_RNCNvMNtNtCs89knhh6EE53_13kona_executor7builder3envINtNtB6_4core18StatelessL2BuilderNtNtB8_10test_utils20DiskTrieNodeProviderNtNtCsiRI8oMBxfZX_8kona_mpt4noop14NoopTrieHinterNtCs2t3x9hha69z_12alloy_op_evm12OpEvmFactoryE17prepare_block_envs_0B8_
FN:89,_RNCNvMNtNtCs89knhh6EE53_13kona_executor7builder3envINtNtB6_4core18StatelessL2BuilderNtNtB8_10test_utils20DiskTrieNodeProviderNtNtCsiRI8oMBxfZX_8kona_mpt4noop14NoopTrieHinterNtCs2t3x9hha69z_12alloy_op_evm12OpEvmFactoryE22active_base_fee_params0B8_
FN:38,_RNvMNtNtCs89knhh6EE53_13kona_executor7builder3envINtNtB4_4core18StatelessL2BuilderNtNtB6_10test_utils20DiskTrieNodeProviderNtNtCsiRI8oMBxfZX_8kona_mpt4noop14NoopTrieHinterNtCs2t3x9hha69z_12alloy_op_evm12OpEvmFactoryE11evm_cfg_envB6_
FN:45,_RNvMNtNtCs89knhh6EE53_13kona_executor7builder3envINtNtB4_4core18StatelessL2BuilderNtNtB6_10test_utils20DiskTrieNodeProviderNtNtCsiRI8oMBxfZX_8kona_mpt4noop14NoopTrieHinterNtCs2t3x9hha69z_12alloy_op_evm12OpEvmFactoryE17prepare_block_envB6_
FN:77,_RNvMNtNtCs89knhh6EE53_13kona_executor7builder3envINtNtB4_4core18StatelessL2BuilderNtNtB6_10test_utils20DiskTrieNodeProviderNtNtCsiRI8oMBxfZX_8kona_mpt4noop14NoopTrieHinterNtCs2t3x9hha69z_12alloy_op_evm12OpEvmFactoryE22active_base_fee_paramsB6_
FN:24,_RNvMNtNtCs89knhh6EE53_13kona_executor7builder3envINtNtB4_4core18StatelessL2BuilderNtNtB6_10test_utils20DiskTrieNodeProviderNtNtCsiRI8oMBxfZX_8kona_mpt4noop14NoopTrieHinterNtCs2t3x9hha69z_12alloy_op_evm12OpEvmFactoryE7evm_envB6_
FNDA:0,_RNCNvMNtNtCsjJlsfNAPoGO_13kona_executor7builder3envINtNtB6_4core18StatelessL2BuilderpppE17prepare_block_env0B8_
FNDA:0,_RNCNvMNtNtCsjJlsfNAPoGO_13kona_executor7builder3envINtNtB6_4core18StatelessL2BuilderpppE17prepare_block_envs_0B8_
FNDA:0,_RNCNvMNtNtCsjJlsfNAPoGO_13kona_executor7builder3envINtNtB6_4core18StatelessL2BuilderpppE22active_base_fee_params0B8_
FNDA:0,_RNvMNtNtCsjJlsfNAPoGO_13kona_executor7builder3envINtNtB4_4core18StatelessL2BuilderpppE11evm_cfg_envB6_
FNDA:0,_RNvMNtNtCsjJlsfNAPoGO_13kona_executor7builder3envINtNtB4_4core18StatelessL2BuilderpppE17prepare_block_envB6_
FNDA:0,_RNvMNtNtCsjJlsfNAPoGO_13kona_executor7builder3envINtNtB4_4core18StatelessL2BuilderpppE22active_base_fee_paramsB6_
FNDA:0,_RNvMNtNtCsjJlsfNAPoGO_13kona_executor7builder3envINtNtB4_4core18StatelessL2BuilderpppE7evm_envB6_
FNDA:0,_RNCNvMNtNtCs89knhh6EE53_13kona_executor7builder3envINtNtB6_4core18StatelessL2BuilderNtNtB8_10test_utils20DiskTrieNodeProviderNtNtCsiRI8oMBxfZX_8kona_mpt4noop14NoopTrieHinterNtCs2t3x9hha69z_12alloy_op_evm12OpEvmFactoryE17prepare_block_env0B8_
FNDA:8,_RNCNvMNtNtCs89knhh6EE53_13kona_executor7builder3envINtNtB6_4core18StatelessL2BuilderNtNtB8_10test_utils20DiskTrieNodeProviderNtNtCsiRI8oMBxfZX_8kona_mpt4noop14NoopTrieHinterNtCs2t3x9hha69z_12alloy_op_evm12OpEvmFactoryE17prepare_block_envs_0B8_
FNDA:8,_RNCNvMNtNtCs89knhh6EE53_13kona_executor7builder3envINtNtB6_4core18StatelessL2BuilderNtNtB8_10test_utils20DiskTrieNodeProviderNtNtCsiRI8oMBxfZX_8kona_mpt4noop14NoopTrieHinterNtCs2t3x9hha69z_12alloy_op_evm12OpEvmFactoryE22active_base_fee_params0B8_
FNDA:8,_RNvMNtNtCs89knhh6EE53_13kona_executor7builder3envINtNtB4_4core18StatelessL2BuilderNtNtB6_10test_utils20DiskTrieNodeProviderNtNtCsiRI8oMBxfZX_8kona_mpt4noop14NoopTrieHinterNtCs2t3x9hha69z_12alloy_op_evm12OpEvmFactoryE11evm_cfg_envB6_
FNDA:8,_RNvMNtNtCs89knhh6EE53_13kona_executor7builder3envINtNtB4_4core18StatelessL2BuilderNtNtB6_10test_utils20DiskTrieNodeProviderNtNtCsiRI8oMBxfZX_8kona_mpt4noop14NoopTrieHinterNtCs2t3x9hha69z_12alloy_op_evm12OpEvmFactoryE17prepare_block_envB6_
FNDA:8,_RNvMNtNtCs89knhh6EE53_13kona_executor7builder3envINtNtB4_4core18StatelessL2BuilderNtNtB6_10test_utils20DiskTrieNodeProviderNtNtCsiRI8oMBxfZX_8kona_mpt4noop14NoopTrieHinterNtCs2t3x9hha69z_12alloy_op_evm12OpEvmFactoryE22active_base_fee_paramsB6_
FNDA:8,_RNvMNtNtCs89knhh6EE53_13kona_executor7builder3envINtNtB4_4core18StatelessL2BuilderNtNtB6_10test_utils20DiskTrieNodeProviderNtNtCsiRI8oMBxfZX_8kona_mpt4noop14NoopTrieHinterNtCs2t3x9hha69z_12alloy_op_evm12OpEvmFactoryE7evm_envB6_
FNF:7
FNH:6
DA:24,8
DA:25,8
DA:26,8
DA:27,8
DA:28,8
DA:29,8
DA:30,8
DA:31,8
DA:32,8
DA:33,8
DA:34,8
DA:35,8
DA:38,8
DA:39,8
DA:40,8
DA:41,8
DA:42,8
DA:45,8
DA:46,8
DA:47,8
DA:48,8
DA:49,8
DA:50,8
DA:51,8
DA:52,8
DA:53,0
DA:54,8
DA:55,8
DA:57,0
DA:59,8
DA:60,8
DA:61,8
DA:62,8
DA:63,8
DA:64,8
DA:65,8
DA:66,8
DA:67,8
DA:68,8
DA:69,8
DA:70,8
DA:71,8
DA:72,8
DA:74,8
DA:77,8
DA:78,8
DA:79,8
DA:80,8
DA:81,8
DA:82,8
DA:83,8
DA:87,8
DA:88,8
DA:89,8
DA:90,8
DA:91,8
DA:92,0
DA:95,0
DA:99,0
DA:102,8
DA:103,8
BRF:0
BRH:0
LF:64
LH:58
end_of_record
SF:/Users/andreasbigger/kona/crates/proof/executor/src/db/mod.rs
FN:214,_RNCNvMNtCsjJlsfNAPoGO_13kona_executor2dbINtB4_6TrieDBppE15update_accounts0B6_
FN:246,_RNCNvMNtCsjJlsfNAPoGO_13kona_executor2dbINtB4_6TrieDBppE15update_accountss0_0B6_
FN:253,_RNCNvMNtCsjJlsfNAPoGO_13kona_executor2dbINtB4_6TrieDBppE15update_accountss1_0B6_
FN:255,_RNCNvMNtCsjJlsfNAPoGO_13kona_executor2dbINtB4_6TrieDBppE15update_accountss2_0B6_
FN:257,_RNCNvMNtCsjJlsfNAPoGO_13kona_executor2dbINtB4_6TrieDBppE15update_accountss3_0B6_
FN:215,_RNCNvMNtCsjJlsfNAPoGO_13kona_executor2dbINtB4_6TrieDBppE15update_accountss_0B6_
FN:186,_RNCNvMNtCsjJlsfNAPoGO_13kona_executor2dbINtB4_6TrieDBppE16get_trie_account0B6_
FN:408,_RNCNvXININtCsjJlsfNAPoGO_13kona_executor2dbs_0ppEINtB7_6TrieDBppENtCseqbp60zLAZ6_23revm_database_interface8Database10block_hash0B9_
FN:356,_RNCNvXININtCsjJlsfNAPoGO_13kona_executor2dbs_0ppEINtB7_6TrieDBppENtCseqbp60zLAZ6_23revm_database_interface8Database12code_by_hash0B9_
FN:363,_RNCNvXININtCsjJlsfNAPoGO_13kona_executor2dbs_0ppEINtB7_6TrieDBppENtCseqbp60zLAZ6_23revm_database_interface8Database7storage0B9_
FN:151,_RNvMNtCsjJlsfNAPoGO_13kona_executor2dbINtB2_6TrieDBppE10state_rootB4_
FN:125,_RNvMNtCsjJlsfNAPoGO_13kona_executor2dbINtB2_6TrieDBppE13storage_rootsB4_
FN:294,_RNvMNtCsjJlsfNAPoGO_13kona_executor2dbINtB2_6TrieDBppE14change_storageB4_
FN:115,_RNvMNtCsjJlsfNAPoGO_13kona_executor2dbINtB2_6TrieDBppE14take_root_nodeB4_
FN:210,_RNvMNtCsjJlsfNAPoGO_13kona_executor2dbINtB2_6TrieDBppE15update_accountsB4_
FN:178,_RNvMNtCsjJlsfNAPoGO_13kona_executor2dbINtB2_6TrieDBppE16get_trie_accountB4_
FN:130,_RNvMNtCsjJlsfNAPoGO_13kona_executor2dbINtB2_6TrieDBppE19parent_block_headerB4_
FN:139,_RNvMNtCsjJlsfNAPoGO_13kona_executor2dbINtB2_6TrieDBppE23set_parent_block_headerB4_
FN:104,_RNvMNtCsjJlsfNAPoGO_13kona_executor2dbINtB2_6TrieDBppE3newB4_
FN:120,_RNvMNtCsjJlsfNAPoGO_13kona_executor2dbINtB2_6TrieDBppE4rootB4_
FN:392,_RNvXININtCsjJlsfNAPoGO_13kona_executor2dbs_0ppEINtB5_6TrieDBppENtCseqbp60zLAZ6_23revm_database_interface8Database10block_hashB7_
FN:352,_RNvXININtCsjJlsfNAPoGO_13kona_executor2dbs_0ppEINtB5_6TrieDBppENtCseqbp60zLAZ6_23revm_database_interface8Database12code_by_hashB7_
FN:330,_RNvXININtCsjJlsfNAPoGO_13kona_executor2dbs_0ppEINtB5_6TrieDBppENtCseqbp60zLAZ6_23revm_database_interface8Database5basicB7_
FN:359,_RNvXININtCsjJlsfNAPoGO_13kona_executor2dbs_0ppEINtB5_6TrieDBppENtCseqbp60zLAZ6_23revm_database_interface8Database7storageB7_
FN:214,_RNCNvMNtCs89knhh6EE53_13kona_executor2dbINtB4_6TrieDBNtNtB6_10test_utils20DiskTrieNodeProviderNtNtCsiRI8oMBxfZX_8kona_mpt4noop14NoopTrieHinterE15update_accounts0B6_
FN:246,_RNCNvMNtCs89knhh6EE53_13kona_executor2dbINtB4_6TrieDBNtNtB6_10test_utils20DiskTrieNodeProviderNtNtCsiRI8oMBxfZX_8kona_mpt4noop14NoopTrieHinterE15update_accountss0_0B6_
FN:253,_RNCNvMNtCs89knhh6EE53_13kona_executor2dbINtB4_6TrieDBNtNtB6_10test_utils20DiskTrieNodeProviderNtNtCsiRI8oMBxfZX_8kona_mpt4noop14NoopTrieHinterE15update_accountss1_0B6_
FN:186,_RNCNvMNtCs89knhh6EE53_13kona_executor2dbINtB4_6TrieDBNtNtB6_10test_utils20DiskTrieNodeProviderNtNtCsiRI8oMBxfZX_8kona_mpt4noop14NoopTrieHinterE16get_trie_account0B6_
FN:408,_RNCNvXs_NtCs89knhh6EE53_13kona_executor2dbINtB6_6TrieDBNtNtB6_6traits18NoopTrieDBProviderNtNtCsiRI8oMBxfZX_8kona_mpt4noop14NoopTrieHinterENtCseqbp60zLAZ6_23revm_database_interface8Database10block_hash0B8_
FN:408,_RNCNvXs_NtCs89knhh6EE53_13kona_executor2dbINtB6_6TrieDBNtNtB8_10test_utils20DiskTrieNodeProviderNtNtCsiRI8oMBxfZX_8kona_mpt4noop14NoopTrieHinterENtCseqbp60zLAZ6_23revm_database_interface8Database10block_hash0B8_
FN:356,_RNCNvXs_NtCs89knhh6EE53_13kona_executor2dbINtB6_6TrieDBNtNtB8_10test_utils20DiskTrieNodeProviderNtNtCsiRI8oMBxfZX_8kona_mpt4noop14NoopTrieHinterENtCseqbp60zLAZ6_23revm_database_interface8Database12code_by_hash0B8_
FN:363,_RNCNvXs_NtCs89knhh6EE53_13kona_executor2dbINtB6_6TrieDBNtNtB8_10test_utils20DiskTrieNodeProviderNtNtCsiRI8oMBxfZX_8kona_mpt4noop14NoopTrieHinterENtCseqbp60zLAZ6_23revm_database_interface8Database7storage0B8_
FN:125,_RNvMNtCs89knhh6EE53_13kona_executor2dbINtB2_6TrieDBNtNtB2_6traits18NoopTrieDBProviderNtNtCsiRI8oMBxfZX_8kona_mpt4noop14NoopTrieHinterE13storage_rootsB4_
FN:115,_RNvMNtCs89knhh6EE53_13kona_executor2dbINtB2_6TrieDBNtNtB2_6traits18NoopTrieDBProviderNtNtCsiRI8oMBxfZX_8kona_mpt4noop14NoopTrieHinterE14take_root_nodeB4_
FN:104,_RNvMNtCs89knhh6EE53_13kona_executor2dbINtB2_6TrieDBNtNtB2_6traits18NoopTrieDBProviderNtNtCsiRI8oMBxfZX_8kona_mpt4noop14NoopTrieHinterE3newB4_
FN:120,_RNvMNtCs89knhh6EE53_13kona_executor2dbINtB2_6TrieDBNtNtB2_6traits18NoopTrieDBProviderNtNtCsiRI8oMBxfZX_8kona_mpt4noop14NoopTrieHinterE4rootB4_
FN:151,_RNvMNtCs89knhh6EE53_13kona_executor2dbINtB2_6TrieDBNtNtB4_10test_utils20DiskTrieNodeProviderNtNtCsiRI8oMBxfZX_8kona_mpt4noop14NoopTrieHinterE10state_rootB4_
FN:125,_RNvMNtCs89knhh6EE53_13kona_executor2dbINtB2_6TrieDBNtNtB4_10test_utils20DiskTrieNodeProviderNtNtCsiRI8oMBxfZX_8kona_mpt4noop14NoopTrieHinterE13storage_rootsB4_
FN:294,_RNvMNtCs89knhh6EE53_13kona_executor2dbINtB2_6TrieDBNtNtB4_10test_utils20DiskTrieNodeProviderNtNtCsiRI8oMBxfZX_8kona_mpt4noop14NoopTrieHinterE14change_storageB4_
FN:210,_RNvMNtCs89knhh6EE53_13kona_executor2dbINtB2_6TrieDBNtNtB4_10test_utils20DiskTrieNodeProviderNtNtCsiRI8oMBxfZX_8kona_mpt4noop14NoopTrieHinterE15update_accountsB4_
FN:178,_RNvMNtCs89knhh6EE53_13kona_executor2dbINtB2_6TrieDBNtNtB4_10test_utils20DiskTrieNodeProviderNtNtCsiRI8oMBxfZX_8kona_mpt4noop14NoopTrieHinterE16get_trie_accountB4_
FN:130,_RNvMNtCs89knhh6EE53_13kona_executor2dbINtB2_6TrieDBNtNtB4_10test_utils20DiskTrieNodeProviderNtNtCsiRI8oMBxfZX_8kona_mpt4noop14NoopTrieHinterE19parent_block_headerB4_
FN:139,_RNvMNtCs89knhh6EE53_13kona_executor2dbINtB2_6TrieDBNtNtB4_10test_utils20DiskTrieNodeProviderNtNtCsiRI8oMBxfZX_8kona_mpt4noop14NoopTrieHinterE23set_parent_block_headerB4_
FN:104,_RNvMNtCs89knhh6EE53_13kona_executor2dbINtB2_6TrieDBNtNtB4_10test_utils20DiskTrieNodeProviderNtNtCsiRI8oMBxfZX_8kona_mpt4noop14NoopTrieHinterE3newB4_
FN:392,_RNvXs_NtCs89knhh6EE53_13kona_executor2dbINtB4_6TrieDBNtNtB4_6traits18NoopTrieDBProviderNtNtCsiRI8oMBxfZX_8kona_mpt4noop14NoopTrieHinterENtCseqbp60zLAZ6_23revm_database_interface8Database10block_hashB6_
FN:392,_RNvXs_NtCs89knhh6EE53_13kona_executor2dbINtB4_6TrieDBNtNtB6_10test_utils20DiskTrieNodeProviderNtNtCsiRI8oMBxfZX_8kona_mpt4noop14NoopTrieHinterENtCseqbp60zLAZ6_23revm_database_interface8Database10block_hashB6_
FN:352,_RNvXs_NtCs89knhh6EE53_13kona_executor2dbINtB4_6TrieDBNtNtB6_10test_utils20DiskTrieNodeProviderNtNtCsiRI8oMBxfZX_8kona_mpt4noop14NoopTrieHinterENtCseqbp60zLAZ6_23revm_database_interface8Database12code_by_hashB6_
FN:330,_RNvXs_NtCs89knhh6EE53_13kona_executor2dbINtB4_6TrieDBNtNtB6_10test_utils20DiskTrieNodeProviderNtNtCsiRI8oMBxfZX_8kona_mpt4noop14NoopTrieHinterENtCseqbp60zLAZ6_23revm_database_interface8Database5basicB6_
FN:359,_RNvXs_NtCs89knhh6EE53_13kona_executor2dbINtB4_6TrieDBNtNtB6_10test_utils20DiskTrieNodeProviderNtNtCsiRI8oMBxfZX_8kona_mpt4noop14NoopTrieHinterENtCseqbp60zLAZ6_23revm_database_interface8Database7storageB6_
FN:422,_RNvNtNtCs89knhh6EE53_13kona_executor2db5tests11new_test_db
FN:434,_RNvNtNtCs89knhh6EE53_13kona_executor2db5testss_26test_trie_db_root_node_ref
FN:441,_RNvNtNtCs89knhh6EE53_13kona_executor2db5testss_26test_trie_db_storage_roots
FN:448,_RNvNtNtCs89knhh6EE53_13kona_executor2db5testss_27test_block_hash_above_range
FN:457,_RNvNtNtCs89knhh6EE53_13kona_executor2db5testss_27test_block_hash_below_range
FN:427,_RNvNtNtCs89knhh6EE53_13kona_executor2db5testss_27test_trie_db_take_root_node
FN:467,_RNvNtNtCs89knhh6EE53_13kona_executor2db5testss_37test_block_hash_provider_missing_hash
FN:257,_RNCNvMNtCs89knhh6EE53_13kona_executor2dbINtB4_6TrieDBNtNtB6_10test_utils20DiskTrieNodeProviderNtNtCsiRI8oMBxfZX_8kona_mpt4noop14NoopTrieHinterE15update_accountss3_0B6_
FN:255,_RNCNvMNtCs89knhh6EE53_13kona_executor2dbINtB4_6TrieDBNtNtB6_10test_utils20DiskTrieNodeProviderNtNtCsiRI8oMBxfZX_8kona_mpt4noop14NoopTrieHinterE15update_accountss2_0B6_
FN:215,_RNCNvMNtCs89knhh6EE53_13kona_executor2dbINtB4_6TrieDBNtNtB6_10test_utils20DiskTrieNodeProviderNtNtCsiRI8oMBxfZX_8kona_mpt4noop14NoopTrieHinterE15update_accountss_0B6_
FNDA:0,_RNCNvMNtCsjJlsfNAPoGO_13kona_executor2dbINtB4_6TrieDBppE15update_accounts0B6_
FNDA:0,_RNCNvMNtCsjJlsfNAPoGO_13kona_executor2dbINtB4_6TrieDBppE15update_accountss0_0B6_
FNDA:0,_RNCNvMNtCsjJlsfNAPoGO_13kona_executor2dbINtB4_6TrieDBppE15update_accountss1_0B6_
FNDA:0,_RNCNvMNtCsjJlsfNAPoGO_13kona_executor2dbINtB4_6TrieDBppE15update_accountss2_0B6_
FNDA:0,_RNCNvMNtCsjJlsfNAPoGO_13kona_executor2dbINtB4_6TrieDBppE15update_accountss3_0B6_
FNDA:0,_RNCNvMNtCsjJlsfNAPoGO_13kona_executor2dbINtB4_6TrieDBppE15update_accountss_0B6_
FNDA:0,_RNCNvMNtCsjJlsfNAPoGO_13kona_executor2dbINtB4_6TrieDBppE16get_trie_account0B6_
FNDA:0,_RNCNvXININtCsjJlsfNAPoGO_13kona_executor2dbs_0ppEINtB7_6TrieDBppENtCseqbp60zLAZ6_23revm_database_interface8Database10block_hash0B9_
FNDA:0,_RNCNvXININtCsjJlsfNAPoGO_13kona_executor2dbs_0ppEINtB7_6TrieDBppENtCseqbp60zLAZ6_23revm_database_interface8Database12code_by_hash0B9_
FNDA:0,_RNCNvXININtCsjJlsfNAPoGO_13kona_executor2dbs_0ppEINtB7_6TrieDBppENtCseqbp60zLAZ6_23revm_database_interface8Database7storage0B9_
FNDA:0,_RNvMNtCsjJlsfNAPoGO_13kona_executor2dbINtB2_6TrieDBppE10state_rootB4_
FNDA:0,_RNvMNtCsjJlsfNAPoGO_13kona_executor2dbINtB2_6TrieDBppE13storage_rootsB4_
FNDA:0,_RNvMNtCsjJlsfNAPoGO_13kona_executor2dbINtB2_6TrieDBppE14change_storageB4_
FNDA:0,_RNvMNtCsjJlsfNAPoGO_13kona_executor2dbINtB2_6TrieDBppE14take_root_nodeB4_
FNDA:0,_RNvMNtCsjJlsfNAPoGO_13kona_executor2dbINtB2_6TrieDBppE15update_accountsB4_
FNDA:0,_RNvMNtCsjJlsfNAPoGO_13kona_executor2dbINtB2_6TrieDBppE16get_trie_accountB4_
FNDA:0,_RNvMNtCsjJlsfNAPoGO_13kona_executor2dbINtB2_6TrieDBppE19parent_block_headerB4_
FNDA:0,_RNvMNtCsjJlsfNAPoGO_13kona_executor2dbINtB2_6TrieDBppE23set_parent_block_headerB4_
FNDA:0,_RNvMNtCsjJlsfNAPoGO_13kona_executor2dbINtB2_6TrieDBppE3newB4_
FNDA:0,_RNvMNtCsjJlsfNAPoGO_13kona_executor2dbINtB2_6TrieDBppE4rootB4_
FNDA:0,_RNvXININtCsjJlsfNAPoGO_13kona_executor2dbs_0ppEINtB5_6TrieDBppENtCseqbp60zLAZ6_23revm_database_interface8Database10block_hashB7_
FNDA:0,_RNvXININtCsjJlsfNAPoGO_13kona_executor2dbs_0ppEINtB5_6TrieDBppENtCseqbp60zLAZ6_23revm_database_interface8Database12code_by_hashB7_
FNDA:0,_RNvXININtCsjJlsfNAPoGO_13kona_executor2dbs_0ppEINtB5_6TrieDBppENtCseqbp60zLAZ6_23revm_database_interface8Database5basicB7_
FNDA:0,_RNvXININtCsjJlsfNAPoGO_13kona_executor2dbs_0ppEINtB5_6TrieDBppENtCseqbp60zLAZ6_23revm_database_interface8Database7storageB7_
FNDA:353,_RNCNvMNtCs89knhh6EE53_13kona_executor2dbINtB4_6TrieDBNtNtB6_10test_utils20DiskTrieNodeProviderNtNtCsiRI8oMBxfZX_8kona_mpt4noop14NoopTrieHinterE15update_accounts0B6_
FNDA:16,_RNCNvMNtCs89knhh6EE53_13kona_executor2dbINtB4_6TrieDBNtNtB6_10test_utils20DiskTrieNodeProviderNtNtCsiRI8oMBxfZX_8kona_mpt4noop14NoopTrieHinterE15update_accountss0_0B6_
FNDA:1189,_RNCNvMNtCs89knhh6EE53_13kona_executor2dbINtB4_6TrieDBNtNtB6_10test_utils20DiskTrieNodeProviderNtNtCsiRI8oMBxfZX_8kona_mpt4noop14NoopTrieHinterE15update_accountss1_0B6_
FNDA:0,_RNCNvMNtCs89knhh6EE53_13kona_executor2dbINtB4_6TrieDBNtNtB6_10test_utils20DiskTrieNodeProviderNtNtCsiRI8oMBxfZX_8kona_mpt4noop14NoopTrieHinterE16get_trie_account0B6_
FNDA:0,_RNCNvXs_NtCs89knhh6EE53_13kona_executor2dbINtB6_6TrieDBNtNtB6_6traits18NoopTrieDBProviderNtNtCsiRI8oMBxfZX_8kona_mpt4noop14NoopTrieHinterENtCseqbp60zLAZ6_23revm_database_interface8Database10block_hash0B8_
FNDA:0,_RNCNvXs_NtCs89knhh6EE53_13kona_executor2dbINtB6_6TrieDBNtNtB8_10test_utils20DiskTrieNodeProviderNtNtCsiRI8oMBxfZX_8kona_mpt4noop14NoopTrieHinterENtCseqbp60zLAZ6_23revm_database_interface8Database10block_hash0B8_
FNDA:0,_RNCNvXs_NtCs89knhh6EE53_13kona_executor2dbINtB6_6TrieDBNtNtB8_10test_utils20DiskTrieNodeProviderNtNtCsiRI8oMBxfZX_8kona_mpt4noop14NoopTrieHinterENtCseqbp60zLAZ6_23revm_database_interface8Database12code_by_hash0B8_
FNDA:0,_RNCNvXs_NtCs89knhh6EE53_13kona_executor2dbINtB6_6TrieDBNtNtB8_10test_utils20DiskTrieNodeProviderNtNtCsiRI8oMBxfZX_8kona_mpt4noop14NoopTrieHinterENtCseqbp60zLAZ6_23revm_database_interface8Database7storage0B8_
FNDA:1,_RNvMNtCs89knhh6EE53_13kona_executor2dbINtB2_6TrieDBNtNtB2_6traits18NoopTrieDBProviderNtNtCsiRI8oMBxfZX_8kona_mpt4noop14NoopTrieHinterE13storage_rootsB4_
FNDA:1,_RNvMNtCs89knhh6EE53_13kona_executor2dbINtB2_6TrieDBNtNtB2_6traits18NoopTrieDBProviderNtNtCsiRI8oMBxfZX_8kona_mpt4noop14NoopTrieHinterE14take_root_nodeB4_
FNDA:6,_RNvMNtCs89knhh6EE53_13kona_executor2dbINtB2_6TrieDBNtNtB2_6traits18NoopTrieDBProviderNtNtCsiRI8oMBxfZX_8kona_mpt4noop14NoopTrieHinterE3newB4_
FNDA:1,_RNvMNtCs89knhh6EE53_13kona_executor2dbINtB2_6TrieDBNtNtB2_6traits18NoopTrieDBProviderNtNtCsiRI8oMBxfZX_8kona_mpt4noop14NoopTrieHinterE4rootB4_
FNDA:8,_RNvMNtCs89knhh6EE53_13kona_executor2dbINtB2_6TrieDBNtNtB4_10test_utils20DiskTrieNodeProviderNtNtCsiRI8oMBxfZX_8kona_mpt4noop14NoopTrieHinterE10state_rootB4_
FNDA:0,_RNvMNtCs89knhh6EE53_13kona_executor2dbINtB2_6TrieDBNtNtB4_10test_utils20DiskTrieNodeProviderNtNtCsiRI8oMBxfZX_8kona_mpt4noop14NoopTrieHinterE13storage_rootsB4_
FNDA:1189,_RNvMNtCs89knhh6EE53_13kona_executor2dbINtB2_6TrieDBNtNtB4_10test_utils20DiskTrieNodeProviderNtNtCsiRI8oMBxfZX_8kona_mpt4noop14NoopTrieHinterE14change_storageB4_
FNDA:8,_RNvMNtCs89knhh6EE53_13kona_executor2dbINtB2_6TrieDBNtNtB4_10test_utils20DiskTrieNodeProviderNtNtCsiRI8oMBxfZX_8kona_mpt4noop14NoopTrieHinterE15update_accountsB4_
FNDA:535,_RNvMNtCs89knhh6EE53_13kona_executor2dbINtB2_6TrieDBNtNtB4_10test_utils20DiskTrieNodeProviderNtNtCsiRI8oMBxfZX_8kona_mpt4noop14NoopTrieHinterE16get_trie_accountB4_
FNDA:24,_RNvMNtCs89knhh6EE53_13kona_executor2dbINtB2_6TrieDBNtNtB4_10test_utils20DiskTrieNodeProviderNtNtCsiRI8oMBxfZX_8kona_mpt4noop14NoopTrieHinterE19parent_block_headerB4_
FNDA:8,_RNvMNtCs89knhh6EE53_13kona_executor2dbINtB2_6TrieDBNtNtB4_10test_utils20DiskTrieNodeProviderNtNtCsiRI8oMBxfZX_8kona_mpt4noop14NoopTrieHinterE23set_parent_block_headerB4_
FNDA:8,_RNvMNtCs89knhh6EE53_13kona_executor2dbINtB2_6TrieDBNtNtB4_10test_utils20DiskTrieNodeProviderNtNtCsiRI8oMBxfZX_8kona_mpt4noop14NoopTrieHinterE3newB4_
FNDA:3,_RNvXs_NtCs89knhh6EE53_13kona_executor2dbINtB4_6TrieDBNtNtB4_6traits18NoopTrieDBProviderNtNtCsiRI8oMBxfZX_8kona_mpt4noop14NoopTrieHinterENtCseqbp60zLAZ6_23revm_database_interface8Database10block_hashB6_
FNDA:0,_RNvXs_NtCs89knhh6EE53_13kona_executor2dbINtB4_6TrieDBNtNtB6_10test_utils20DiskTrieNodeProviderNtNtCsiRI8oMBxfZX_8kona_mpt4noop14NoopTrieHinterENtCseqbp60zLAZ6_23revm_database_interface8Database10block_hashB6_
FNDA:190,_RNvXs_NtCs89knhh6EE53_13kona_executor2dbINtB4_6TrieDBNtNtB6_10test_utils20DiskTrieNodeProviderNtNtCsiRI8oMBxfZX_8kona_mpt4noop14NoopTrieHinterENtCseqbp60zLAZ6_23revm_database_interface8Database12code_by_hashB6_
FNDA:535,_RNvXs_NtCs89knhh6EE53_13kona_executor2dbINtB4_6TrieDBNtNtB6_10test_utils20DiskTrieNodeProviderNtNtCsiRI8oMBxfZX_8kona_mpt4noop14NoopTrieHinterENtCseqbp60zLAZ6_23revm_database_interface8Database5basicB6_
FNDA:2870,_RNvXs_NtCs89knhh6EE53_13kona_executor2dbINtB4_6TrieDBNtNtB6_10test_utils20DiskTrieNodeProviderNtNtCsiRI8oMBxfZX_8kona_mpt4noop14NoopTrieHinterENtCseqbp60zLAZ6_23revm_database_interface8Database7storageB6_
FNDA:6,_RNvNtNtCs89knhh6EE53_13kona_executor2db5tests11new_test_db
FNDA:1,_RNvNtNtCs89knhh6EE53_13kona_executor2db5testss_26test_trie_db_root_node_ref
FNDA:1,_RNvNtNtCs89knhh6EE53_13kona_executor2db5testss_26test_trie_db_storage_roots
FNDA:1,_RNvNtNtCs89knhh6EE53_13kona_executor2db5testss_27test_block_hash_above_range
FNDA:1,_RNvNtNtCs89knhh6EE53_13kona_executor2db5testss_27test_block_hash_below_range
FNDA:1,_RNvNtNtCs89knhh6EE53_13kona_executor2db5testss_27test_trie_db_take_root_node
FNDA:1,_RNvNtNtCs89knhh6EE53_13kona_executor2db5testss_37test_block_hash_provider_missing_hash
FNDA:1189,_RNCNvMNtCs89knhh6EE53_13kona_executor2dbINtB4_6TrieDBNtNtB6_10test_utils20DiskTrieNodeProviderNtNtCsiRI8oMBxfZX_8kona_mpt4noop14NoopTrieHinterE15update_accountss3_0B6_
FNDA:14026,_RNCNvMNtCs89knhh6EE53_13kona_executor2dbINtB4_6TrieDBNtNtB6_10test_utils20DiskTrieNodeProviderNtNtCsiRI8oMBxfZX_8kona_mpt4noop14NoopTrieHinterE15update_accountss2_0B6_
FNDA:4386,_RNCNvMNtCs89knhh6EE53_13kona_executor2dbINtB4_6TrieDBNtNtB6_10test_utils20DiskTrieNodeProviderNtNtCsiRI8oMBxfZX_8kona_mpt4noop14NoopTrieHinterE15update_accountss_0B6_
FNF:31
FNH:27
DA:104,14
DA:105,14
DA:106,14
DA:107,14
DA:108,14
DA:109,14
DA:110,14
DA:111,14
DA:112,14
DA:115,1
DA:116,1
DA:117,1
DA:120,1
DA:121,1
DA:122,1
DA:125,1
DA:126,1
DA:127,1
DA:130,24
DA:131,24
DA:132,24
DA:139,8
DA:140,8
DA:141,8
DA:151,8
DA:152,8
DA:155,8
DA:158,8
DA:159,8
DA:160,8
DA:162,0
DA:166,8
DA:167,8
DA:178,535
DA:179,535
DA:180,535
DA:181,535
DA:182,535
DA:183,535
DA:184,535
DA:185,535
DA:186,535
DA:189,535
DA:190,535
DA:192,27
DA:196,508
DA:197,508
DA:198,508
DA:199,508
DA:200,535
DA:210,8
DA:211,8
DA:212,8
DA:213,8
DA:214,353
DA:215,4386
DA:217,361
DA:218,353
DA:219,0
DA:220,353
DA:221,353
DA:222,353
DA:223,353
DA:224,353
DA:225,353
DA:226,353
DA:227,0
DA:228,0
DA:229,0
DA:230,353
DA:232,353
DA:233,353
DA:235,353
DA:236,353
DA:237,353
DA:238,353
DA:239,353
DA:240,353
DA:241,353
DA:242,353
DA:243,353
DA:244,353
DA:245,353
DA:246,353
DA:247,353
DA:248,353
DA:249,353
DA:250,353
DA:251,353
DA:252,353
DA:253,1189
DA:254,353
DA:255,14026
DA:256,353
DA:257,1189
DA:258,1189
DA:259,1189
DA:260,1189
DA:261,1189
DA:262,1189
DA:263,1189
DA:264,1189
DA:265,1189
DA:268,353
DA:269,353
DA:270,353
DA:271,353
DA:272,353
DA:273,353
DA:274,353
DA:275,353
DA:276,353
DA:279,8
DA:280,8
DA:294,1189
DA:295,1189
DA:296,1189
DA:297,1189
DA:298,1189
DA:299,1189
DA:300,1189
DA:301,1189
DA:302,0
DA:303,1189
DA:304,1189
DA:305,1189
DA:306,1189
DA:307,1189
DA:308,1189
DA:309,1189
DA:310,1189
DA:311,1189
DA:313,13
DA:316,1176
DA:319,1189
DA:320,1189
DA:330,535
DA:332,508
DA:333,535
DA:336,27
DA:340,508
DA:341,508
DA:342,508
DA:343,508
DA:344,508
DA:345,508
DA:346,508
DA:347,508
DA:348,508
DA:349,508
DA:350,535
DA:352,190
DA:353,190
DA:354,190
DA:355,190
DA:356,190
DA:357,190
DA:359,2870
DA:360,2870
DA:361,2870
DA:362,2870
DA:363,2870
DA:368,2870
DA:371,0
DA:373,2870
DA:374,2870
DA:375,2870
DA:376,2870
DA:377,1729
DA:379,1729
DA:380,1729
DA:381,1729
DA:385,1141
DA:390,2870
DA:392,3
DA:393,3
DA:394,3
DA:395,3
DA:396,3
DA:397,3
DA:398,2
DA:400,2
DA:401,1
DA:404,2
DA:405,1
DA:406,1
DA:407,1
DA:408,1
DA:411,1
DA:412,3
DA:422,6
DA:423,6
DA:424,6
DA:427,1
DA:428,1
DA:429,1
DA:430,1
DA:431,1
DA:434,1
DA:435,1
DA:436,1
DA:437,1
DA:438,1
DA:441,1
DA:442,1
DA:443,1
DA:444,1
DA:445,1
DA:448,1
DA:449,1
DA:450,1
DA:451,1
DA:452,1
DA:453,1
DA:454,1
DA:457,1
DA:458,1
DA:459,1
DA:460,1
DA:461,1
DA:462,1
DA:463,1
DA:464,1
DA:467,1
DA:468,1
DA:469,1
DA:470,1
DA:471,1
DA:472,1
DA:473,1
DA:474,1
DA:475,1
DA:476,1
BRF:0
BRH:0
LF:244
LH:233
end_of_record
SF:/Users/andreasbigger/kona/crates/proof/executor/src/db/traits.rs
FN:44,_RNvXNtNtCs89knhh6EE53_13kona_executor2db6traitsNtB2_18NoopTrieDBProviderNtNtCsiRI8oMBxfZX_8kona_mpt6traits12TrieProvider17trie_node_by_hash
FN:50,_RNvXs_NtNtCs89knhh6EE53_13kona_executor2db6traitsNtB4_18NoopTrieDBProviderNtB4_14TrieDBProvider16bytecode_by_hash
FN:54,_RNvXs_NtNtCs89knhh6EE53_13kona_executor2db6traitsNtB4_18NoopTrieDBProviderNtB4_14TrieDBProvider14header_by_hash
FNDA:0,_RNvXNtNtCs89knhh6EE53_13kona_executor2db6traitsNtB2_18NoopTrieDBProviderNtNtCsiRI8oMBxfZX_8kona_mpt6traits12TrieProvider17trie_node_by_hash
FNDA:0,_RNvXs_NtNtCs89knhh6EE53_13kona_executor2db6traitsNtB4_18NoopTrieDBProviderNtB4_14TrieDBProvider16bytecode_by_hash
FNDA:1,_RNvXs_NtNtCs89knhh6EE53_13kona_executor2db6traitsNtB4_18NoopTrieDBProviderNtB4_14TrieDBProvider14header_by_hash
FNF:3
FNH:1
DA:44,0
DA:45,0
DA:46,0
DA:50,0
DA:51,0
DA:52,0
DA:54,1
DA:55,1
DA:56,1
BRF:0
BRH:0
LF:9
LH:3
end_of_record
SF:/Users/andreasbigger/kona/crates/proof/executor/src/test_utils.rs
FN:159,_RNCNCNvMs_NtCsjJlsfNAPoGO_13kona_executor10test_utilsNtB8_26ExecutorTestFixtureCreator21create_static_fixture00Ba_
FN:40,_RNCNCNvNtCsjJlsfNAPoGO_13kona_executor10test_utils16run_test_fixture00B7_
FN:110,_RNCNvMs_NtCsjJlsfNAPoGO_13kona_executor10test_utilsNtB6_26ExecutorTestFixtureCreator21create_static_fixture0B8_
FN:23,_RNCNvNtCsjJlsfNAPoGO_13kona_executor10test_utils16run_test_fixture0B5_
FN:212,_RNCNvXs0_NtCsjJlsfNAPoGO_13kona_executor10test_utilsNtB7_26ExecutorTestFixtureCreatorNtNtCsiRI8oMBxfZX_8kona_mpt6traits12TrieProvider17trie_node_by_hash0B9_
FN:278,_RNCNvXs1_NtCsjJlsfNAPoGO_13kona_executor10test_utilsNtB7_26ExecutorTestFixtureCreatorNtNtNtB9_2db6traits14TrieDBProvider14header_by_hash0B9_
FN:242,_RNCNvXs1_NtCsjJlsfNAPoGO_13kona_executor10test_utilsNtB7_26ExecutorTestFixtureCreatorNtNtNtB9_2db6traits14TrieDBProvider16bytecode_by_hash0B9_
FN:219,_RNCNCNCNvXs0_NtCsjJlsfNAPoGO_13kona_executor10test_utilsNtBb_26ExecutorTestFixtureCreatorNtNtCsiRI8oMBxfZX_8kona_mpt6traits12TrieProvider17trie_node_by_hash000Bd_
FN:225,_RNCNCNCNvXs0_NtCsjJlsfNAPoGO_13kona_executor10test_utilsNtBb_26ExecutorTestFixtureCreatorNtNtCsiRI8oMBxfZX_8kona_mpt6traits12TrieProvider17trie_node_by_hash00s_0Bd_
FN:285,_RNCNCNCNvXs1_NtCsjJlsfNAPoGO_13kona_executor10test_utilsNtBb_26ExecutorTestFixtureCreatorNtNtNtBd_2db6traits14TrieDBProvider14header_by_hash000Bd_
FN:291,_RNCNCNCNvXs1_NtCsjJlsfNAPoGO_13kona_executor10test_utilsNtBb_26ExecutorTestFixtureCreatorNtNtNtBd_2db6traits14TrieDBProvider14header_by_hash00s_0Bd_
FN:261,_RNCNCNCNvXs1_NtCsjJlsfNAPoGO_13kona_executor10test_utilsNtBb_26ExecutorTestFixtureCreatorNtNtNtBd_2db6traits14TrieDBProvider16bytecode_by_hash000Bd_
FN:268,_RNCNCNCNvXs1_NtCsjJlsfNAPoGO_13kona_executor10test_utilsNtBb_26ExecutorTestFixtureCreatorNtNtNtBd_2db6traits14TrieDBProvider16bytecode_by_hash00s_0Bd_
FN:213,_RNCNCNvXs0_NtCsjJlsfNAPoGO_13kona_executor10test_utilsNtB9_26ExecutorTestFixtureCreatorNtNtCsiRI8oMBxfZX_8kona_mpt6traits12TrieProvider17trie_node_by_hash00Bb_
FN:279,_RNCNCNvXs1_NtCsjJlsfNAPoGO_13kona_executor10test_utilsNtB9_26ExecutorTestFixtureCreatorNtNtNtBb_2db6traits14TrieDBProvider14header_by_hash00Bb_
FN:243,_RNCNCNvXs1_NtCsjJlsfNAPoGO_13kona_executor10test_utilsNtB9_26ExecutorTestFixtureCreatorNtNtNtBb_2db6traits14TrieDBProvider16bytecode_by_hash00Bb_
FN:219,_RNCNCNCNvXs0_NtCs89knhh6EE53_13kona_executor10test_utilsNtBb_26ExecutorTestFixtureCreatorNtNtCsiRI8oMBxfZX_8kona_mpt6traits12TrieProvider17trie_node_by_hash000Bd_
FN:225,_RNCNCNCNvXs0_NtCs89knhh6EE53_13kona_executor10test_utilsNtBb_26ExecutorTestFixtureCreatorNtNtCsiRI8oMBxfZX_8kona_mpt6traits12TrieProvider17trie_node_by_hash00s_0Bd_
FN:285,_RNCNCNCNvXs1_NtCs89knhh6EE53_13kona_executor10test_utilsNtBb_26ExecutorTestFixtureCreatorNtNtNtBd_2db6traits14TrieDBProvider14header_by_hash000Bd_
FN:291,_RNCNCNCNvXs1_NtCs89knhh6EE53_13kona_executor10test_utilsNtBb_26ExecutorTestFixtureCreatorNtNtNtBd_2db6traits14TrieDBProvider14header_by_hash00s_0Bd_
FN:261,_RNCNCNCNvXs1_NtCs89knhh6EE53_13kona_executor10test_utilsNtBb_26ExecutorTestFixtureCreatorNtNtNtBd_2db6traits14TrieDBProvider16bytecode_by_hash000Bd_
FN:268,_RNCNCNCNvXs1_NtCs89knhh6EE53_13kona_executor10test_utilsNtBb_26ExecutorTestFixtureCreatorNtNtNtBd_2db6traits14TrieDBProvider16bytecode_by_hash00s_0Bd_
FN:159,_RNCNCNvMs_NtCs89knhh6EE53_13kona_executor10test_utilsNtB8_26ExecutorTestFixtureCreator21create_static_fixture00Ba_
FN:213,_RNCNCNvXs0_NtCs89knhh6EE53_13kona_executor10test_utilsNtB9_26ExecutorTestFixtureCreatorNtNtCsiRI8oMBxfZX_8kona_mpt6traits12TrieProvider17trie_node_by_hash00Bb_
FN:279,_RNCNCNvXs1_NtCs89knhh6EE53_13kona_executor10test_utilsNtB9_26ExecutorTestFixtureCreatorNtNtNtBb_2db6traits14TrieDBProvider14header_by_hash00Bb_
FN:243,_RNCNCNvXs1_NtCs89knhh6EE53_13kona_executor10test_utilsNtB9_26ExecutorTestFixtureCreatorNtNtNtBb_2db6traits14TrieDBProvider16bytecode_by_hash00Bb_
FN:102,_RNCNvMNtCs89knhh6EE53_13kona_executor10test_utilsNtB4_26ExecutorTestFixtureCreator3new0B6_
FN:110,_RNCNvMs_NtCs89knhh6EE53_13kona_executor10test_utilsNtB6_26ExecutorTestFixtureCreator21create_static_fixture0B8_
FN:212,_RNCNvXs0_NtCs89knhh6EE53_13kona_executor10test_utilsNtB7_26ExecutorTestFixtureCreatorNtNtCsiRI8oMBxfZX_8kona_mpt6traits12TrieProvider17trie_node_by_hash0B9_
FN:278,_RNCNvXs1_NtCs89knhh6EE53_13kona_executor10test_utilsNtB7_26ExecutorTestFixtureCreatorNtNtNtB9_2db6traits14TrieDBProvider14header_by_hash0B9_
FN:242,_RNCNvXs1_NtCs89knhh6EE53_13kona_executor10test_utilsNtB7_26ExecutorTestFixtureCreatorNtNtNtB9_2db6traits14TrieDBProvider16bytecode_by_hash0B9_
FN:91,_RNvMNtCs89knhh6EE53_13kona_executor10test_utilsNtB2_26ExecutorTestFixtureCreator3new
FN:110,_RNvMs_NtCs89knhh6EE53_13kona_executor10test_utilsNtB4_26ExecutorTestFixtureCreator21create_static_fixture
FN:210,_RNvXs0_NtCs89knhh6EE53_13kona_executor10test_utilsNtB5_26ExecutorTestFixtureCreatorNtNtCsiRI8oMBxfZX_8kona_mpt6traits12TrieProvider17trie_node_by_hash
FN:277,_RNvXs1_NtCs89knhh6EE53_13kona_executor10test_utilsNtB5_26ExecutorTestFixtureCreatorNtNtNtB7_2db6traits14TrieDBProvider14header_by_hash
FN:237,_RNvXs1_NtCs89knhh6EE53_13kona_executor10test_utilsNtB5_26ExecutorTestFixtureCreatorNtNtNtB7_2db6traits14TrieDBProvider16bytecode_by_hash
FN:323,_RNCNvXs3_NtCs89knhh6EE53_13kona_executor10test_utilsNtB7_20DiskTrieNodeProviderNtNtCsiRI8oMBxfZX_8kona_mpt6traits12TrieProvider17trie_node_by_hash0B9_
FN:345,_RNCNvXs4_NtCs89knhh6EE53_13kona_executor10test_utilsNtB7_20DiskTrieNodeProviderNtNtNtB9_2db6traits14TrieDBProvider14header_by_hash0B9_
FN:335,_RNCNvXs4_NtCs89knhh6EE53_13kona_executor10test_utilsNtB7_20DiskTrieNodeProviderNtNtNtB9_2db6traits14TrieDBProvider16bytecode_by_hash0B9_
FN:310,_RNvMs2_NtCs89knhh6EE53_13kona_executor10test_utilsNtB5_20DiskTrieNodeProvider3new
FN:23,_RNvNtCs89knhh6EE53_13kona_executor10test_utils16run_test_fixture
FN:318,_RNvXs3_NtCs89knhh6EE53_13kona_executor10test_utilsNtB5_20DiskTrieNodeProviderNtNtCsiRI8oMBxfZX_8kona_mpt6traits12TrieProvider17trie_node_by_hash
FN:340,_RNvXs4_NtCs89knhh6EE53_13kona_executor10test_utilsNtB5_20DiskTrieNodeProviderNtNtNtB7_2db6traits14TrieDBProvider14header_by_hash
FN:332,_RNvXs4_NtCs89knhh6EE53_13kona_executor10test_utilsNtB5_20DiskTrieNodeProviderNtNtNtB7_2db6traits14TrieDBProvider16bytecode_by_hash
FN:40,_RNCNCNvNtCs89knhh6EE53_13kona_executor10test_utils16run_test_fixture00B7_
FN:23,_RNCNvNtCs89knhh6EE53_13kona_executor10test_utils16run_test_fixture0B5_
FNDA:0,_RNCNCNvMs_NtCsjJlsfNAPoGO_13kona_executor10test_utilsNtB8_26ExecutorTestFixtureCreator21create_static_fixture00Ba_
FNDA:0,_RNCNCNvNtCsjJlsfNAPoGO_13kona_executor10test_utils16run_test_fixture00B7_
FNDA:0,_RNCNvMs_NtCsjJlsfNAPoGO_13kona_executor10test_utilsNtB6_26ExecutorTestFixtureCreator21create_static_fixture0B8_
FNDA:0,_RNCNvNtCsjJlsfNAPoGO_13kona_executor10test_utils16run_test_fixture0B5_
FNDA:0,_RNCNvXs0_NtCsjJlsfNAPoGO_13kona_executor10test_utilsNtB7_26ExecutorTestFixtureCreatorNtNtCsiRI8oMBxfZX_8kona_mpt6traits12TrieProvider17trie_node_by_hash0B9_
FNDA:0,_RNCNvXs1_NtCsjJlsfNAPoGO_13kona_executor10test_utilsNtB7_26ExecutorTestFixtureCreatorNtNtNtB9_2db6traits14TrieDBProvider14header_by_hash0B9_
FNDA:0,_RNCNvXs1_NtCsjJlsfNAPoGO_13kona_executor10test_utilsNtB7_26ExecutorTestFixtureCreatorNtNtNtB9_2db6traits14TrieDBProvider16bytecode_by_hash0B9_
FNDA:0,_RNCNCNCNvXs0_NtCsjJlsfNAPoGO_13kona_executor10test_utilsNtBb_26ExecutorTestFixtureCreatorNtNtCsiRI8oMBxfZX_8kona_mpt6traits12TrieProvider17trie_node_by_hash000Bd_
FNDA:0,_RNCNCNCNvXs0_NtCsjJlsfNAPoGO_13kona_executor10test_utilsNtBb_26ExecutorTestFixtureCreatorNtNtCsiRI8oMBxfZX_8kona_mpt6traits12TrieProvider17trie_node_by_hash00s_0Bd_
FNDA:0,_RNCNCNCNvXs1_NtCsjJlsfNAPoGO_13kona_executor10test_utilsNtBb_26ExecutorTestFixtureCreatorNtNtNtBd_2db6traits14TrieDBProvider14header_by_hash000Bd_
FNDA:0,_RNCNCNCNvXs1_NtCsjJlsfNAPoGO_13kona_executor10test_utilsNtBb_26ExecutorTestFixtureCreatorNtNtNtBd_2db6traits14TrieDBProvider14header_by_hash00s_0Bd_
FNDA:0,_RNCNCNCNvXs1_NtCsjJlsfNAPoGO_13kona_executor10test_utilsNtBb_26ExecutorTestFixtureCreatorNtNtNtBd_2db6traits14TrieDBProvider16bytecode_by_hash000Bd_
FNDA:0,_RNCNCNCNvXs1_NtCsjJlsfNAPoGO_13kona_executor10test_utilsNtBb_26ExecutorTestFixtureCreatorNtNtNtBd_2db6traits14TrieDBProvider16bytecode_by_hash00s_0Bd_
FNDA:0,_RNCNCNvXs0_NtCsjJlsfNAPoGO_13kona_executor10test_utilsNtB9_26ExecutorTestFixtureCreatorNtNtCsiRI8oMBxfZX_8kona_mpt6traits12TrieProvider17trie_node_by_hash00Bb_
FNDA:0,_RNCNCNvXs1_NtCsjJlsfNAPoGO_13kona_executor10test_utilsNtB9_26ExecutorTestFixtureCreatorNtNtNtBb_2db6traits14TrieDBProvider14header_by_hash00Bb_
FNDA:0,_RNCNCNvXs1_NtCsjJlsfNAPoGO_13kona_executor10test_utilsNtB9_26ExecutorTestFixtureCreatorNtNtNtBb_2db6traits14TrieDBProvider16bytecode_by_hash00Bb_
FNDA:0,_RNCNCNCNvXs0_NtCs89knhh6EE53_13kona_executor10test_utilsNtBb_26ExecutorTestFixtureCreatorNtNtCsiRI8oMBxfZX_8kona_mpt6traits12TrieProvider17trie_node_by_hash000Bd_
FNDA:0,_RNCNCNCNvXs0_NtCs89knhh6EE53_13kona_executor10test_utilsNtBb_26ExecutorTestFixtureCreatorNtNtCsiRI8oMBxfZX_8kona_mpt6traits12TrieProvider17trie_node_by_hash00s_0Bd_
FNDA:0,_RNCNCNCNvXs1_NtCs89knhh6EE53_13kona_executor10test_utilsNtBb_26ExecutorTestFixtureCreatorNtNtNtBd_2db6traits14TrieDBProvider14header_by_hash000Bd_
FNDA:0,_RNCNCNCNvXs1_NtCs89knhh6EE53_13kona_executor10test_utilsNtBb_26ExecutorTestFixtureCreatorNtNtNtBd_2db6traits14TrieDBProvider14header_by_hash00s_0Bd_
FNDA:0,_RNCNCNCNvXs1_NtCs89knhh6EE53_13kona_executor10test_utilsNtBb_26ExecutorTestFixtureCreatorNtNtNtBd_2db6traits14TrieDBProvider16bytecode_by_hash000Bd_
FNDA:0,_RNCNCNCNvXs1_NtCs89knhh6EE53_13kona_executor10test_utilsNtBb_26ExecutorTestFixtureCreatorNtNtNtBd_2db6traits14TrieDBProvider16bytecode_by_hash00s_0Bd_
FNDA:0,_RNCNCNvMs_NtCs89knhh6EE53_13kona_executor10test_utilsNtB8_26ExecutorTestFixtureCreator21create_static_fixture00Ba_
FNDA:0,_RNCNCNvXs0_NtCs89knhh6EE53_13kona_executor10test_utilsNtB9_26ExecutorTestFixtureCreatorNtNtCsiRI8oMBxfZX_8kona_mpt6traits12TrieProvider17trie_node_by_hash00Bb_
FNDA:0,_RNCNCNvXs1_NtCs89knhh6EE53_13kona_executor10test_utilsNtB9_26ExecutorTestFixtureCreatorNtNtNtBb_2db6traits14TrieDBProvider14header_by_hash00Bb_
FNDA:0,_RNCNCNvXs1_NtCs89knhh6EE53_13kona_executor10test_utilsNtB9_26ExecutorTestFixtureCreatorNtNtNtBb_2db6traits14TrieDBProvider16bytecode_by_hash00Bb_
FNDA:0,_RNCNvMNtCs89knhh6EE53_13kona_executor10test_utilsNtB4_26ExecutorTestFixtureCreator3new0B6_
FNDA:0,_RNCNvMs_NtCs89knhh6EE53_13kona_executor10test_utilsNtB6_26ExecutorTestFixtureCreator21create_static_fixture0B8_
FNDA:0,_RNCNvXs0_NtCs89knhh6EE53_13kona_executor10test_utilsNtB7_26ExecutorTestFixtureCreatorNtNtCsiRI8oMBxfZX_8kona_mpt6traits12TrieProvider17trie_node_by_hash0B9_
FNDA:0,_RNCNvXs1_NtCs89knhh6EE53_13kona_executor10test_utilsNtB7_26ExecutorTestFixtureCreatorNtNtNtB9_2db6traits14TrieDBProvider14header_by_hash0B9_
FNDA:0,_RNCNvXs1_NtCs89knhh6EE53_13kona_executor10test_utilsNtB7_26ExecutorTestFixtureCreatorNtNtNtB9_2db6traits14TrieDBProvider16bytecode_by_hash0B9_
FNDA:0,_RNvMNtCs89knhh6EE53_13kona_executor10test_utilsNtB2_26ExecutorTestFixtureCreator3new
FNDA:0,_RNvMs_NtCs89knhh6EE53_13kona_executor10test_utilsNtB4_26ExecutorTestFixtureCreator21create_static_fixture
FNDA:0,_RNvXs0_NtCs89knhh6EE53_13kona_executor10test_utilsNtB5_26ExecutorTestFixtureCreatorNtNtCsiRI8oMBxfZX_8kona_mpt6traits12TrieProvider17trie_node_by_hash
FNDA:0,_RNvXs1_NtCs89knhh6EE53_13kona_executor10test_utilsNtB5_26ExecutorTestFixtureCreatorNtNtNtB7_2db6traits14TrieDBProvider14header_by_hash
FNDA:0,_RNvXs1_NtCs89knhh6EE53_13kona_executor10test_utilsNtB5_26ExecutorTestFixtureCreatorNtNtNtB7_2db6traits14TrieDBProvider16bytecode_by_hash
FNDA:0,_RNCNvXs3_NtCs89knhh6EE53_13kona_executor10test_utilsNtB7_20DiskTrieNodeProviderNtNtCsiRI8oMBxfZX_8kona_mpt6traits12TrieProvider17trie_node_by_hash0B9_
FNDA:0,_RNCNvXs4_NtCs89knhh6EE53_13kona_executor10test_utilsNtB7_20DiskTrieNodeProviderNtNtNtB9_2db6traits14TrieDBProvider14header_by_hash0B9_
FNDA:0,_RNCNvXs4_NtCs89knhh6EE53_13kona_executor10test_utilsNtB7_20DiskTrieNodeProviderNtNtNtB9_2db6traits14TrieDBProvider16bytecode_by_hash0B9_
FNDA:8,_RNvMs2_NtCs89knhh6EE53_13kona_executor10test_utilsNtB5_20DiskTrieNodeProvider3new
FNDA:8,_RNvNtCs89knhh6EE53_13kona_executor10test_utils16run_test_fixture
FNDA:14506,_RNvXs3_NtCs89knhh6EE53_13kona_executor10test_utilsNtB5_20DiskTrieNodeProviderNtNtCsiRI8oMBxfZX_8kona_mpt6traits12TrieProvider17trie_node_by_hash
FNDA:0,_RNvXs4_NtCs89knhh6EE53_13kona_executor10test_utilsNtB5_20DiskTrieNodeProviderNtNtNtB7_2db6traits14TrieDBProvider14header_by_hash
FNDA:190,_RNvXs4_NtCs89knhh6EE53_13kona_executor10test_utilsNtB5_20DiskTrieNodeProviderNtNtNtB7_2db6traits14TrieDBProvider16bytecode_by_hash
FNDA:0,_RNCNCNvNtCs89knhh6EE53_13kona_executor10test_utils16run_test_fixture00B7_
FNDA:8,_RNCNvNtCs89knhh6EE53_13kona_executor10test_utils16run_test_fixture0B5_
FNF:30
FNH:5
DA:23,8
DA:24,8
DA:25,8
DA:26,8
DA:27,8
DA:28,8
DA:29,8
DA:30,8
DA:31,8
DA:32,8
DA:33,8
DA:34,8
DA:35,8
DA:36,8
DA:37,8
DA:38,8
DA:39,8
DA:40,8
DA:41,8
DA:42,8
DA:43,8
DA:44,8
DA:45,8
DA:46,8
DA:47,8
DA:48,8
DA:49,8
DA:50,8
DA:51,8
DA:52,8
DA:53,8
DA:54,8
DA:55,8
DA:56,8
DA:57,8
DA:59,0
DA:61,8
DA:91,0
DA:92,0
DA:93,0
DA:94,0
DA:95,0
DA:96,0
DA:97,0
DA:98,0
DA:99,0
DA:100,0
DA:101,0
DA:102,0
DA:103,0
DA:104,0
DA:105,0
DA:110,0
DA:111,0
DA:112,0
DA:114,0
DA:115,0
DA:116,0
DA:117,0
DA:118,0
DA:119,0
DA:120,0
DA:121,0
DA:122,0
DA:123,0
DA:124,0
DA:125,0
DA:126,0
DA:127,0
DA:128,0
DA:130,0
DA:131,0
DA:132,0
DA:133,0
DA:134,0
DA:135,0
DA:136,0
DA:137,0
DA:138,0
DA:139,0
DA:140,0
DA:142,0
DA:144,0
DA:147,0
DA:148,0
DA:149,0
DA:150,0
DA:151,0
DA:152,0
DA:153,0
DA:154,0
DA:155,0
DA:156,0
DA:157,0
DA:158,0
DA:159,0
DA:160,0
DA:161,0
DA:162,0
DA:163,0
DA:164,0
DA:165,0
DA:166,0
DA:167,0
DA:168,0
DA:169,0
DA:170,0
DA:171,0
DA:172,0
DA:173,0
DA:174,0
DA:175,0
DA:176,0
DA:177,0
DA:178,0
DA:179,0
DA:180,0
DA:181,0
DA:182,0
DA:183,0
DA:184,0
DA:185,0
DA:186,0
DA:187,0
DA:189,0
DA:190,0
DA:191,0
DA:192,0
DA:193,0
DA:194,0
DA:195,0
DA:196,0
DA:197,0
DA:198,0
DA:199,0
DA:200,0
DA:201,0
DA:202,0
DA:203,0
DA:204,0
DA:210,0
DA:212,0
DA:213,0
DA:214,0
DA:215,0
DA:216,0
DA:217,0
DA:218,0
DA:219,0
DA:221,0
DA:222,0
DA:223,0
DA:224,0
DA:225,0
DA:227,0
DA:228,0
DA:229,0
DA:232,0
DA:233,0
DA:237,0
DA:242,0
DA:243,0
DA:244,0
DA:245,0
DA:246,0
DA:247,0
DA:248,0
DA:249,0
DA:250,0
DA:254,0
DA:255,0
DA:256,0
DA:257,0
DA:258,0
DA:259,0
DA:260,0
DA:261,0
DA:264,0
DA:265,0
DA:266,0
DA:267,0
DA:268,0
DA:270,0
DA:271,0
DA:272,0
DA:274,0
DA:275,0
DA:277,0
DA:278,0
DA:279,0
DA:280,0
DA:281,0
DA:282,0
DA:283,0
DA:284,0
DA:285,0
DA:287,0
DA:288,0
DA:289,0
DA:290,0
DA:291,0
DA:293,0
DA:294,0
DA:295,0
DA:298,0
DA:299,0
DA:310,8
DA:311,8
DA:312,8
DA:318,14506
DA:319,14506
DA:320,14506
DA:321,14506
DA:322,14506
DA:323,14506
DA:324,14506
DA:325,14506
DA:326,14506
DA:327,14506
DA:328,14506
DA:332,190
DA:333,190
DA:334,190
DA:335,190
DA:336,190
DA:337,190
DA:338,190
DA:340,0
DA:341,0
DA:342,0
DA:343,0
DA:344,0
DA:345,0
DA:346,0
DA:347,0
DA:348,0
DA:349,0
DA:350,0
BRF:0
BRH:0
LF:265
LH:58
end_of_record
SF:/Users/andreasbigger/kona/crates/proof/executor/src/util.rs
FN:33,_RNCNvNtCs89knhh6EE53_13kona_executor4util31decode_holocene_eip_1559_params0B5_
FN:36,_RNCNvNtCs89knhh6EE53_13kona_executor4util31decode_holocene_eip_1559_paramss_0B5_
FN:76,_RNvNtCs89knhh6EE53_13kona_executor4util29encode_canyon_base_fee_params
FN:19,_RNvNtCs89knhh6EE53_13kona_executor4util31decode_holocene_eip_1559_params
FN:56,_RNvNtCs89knhh6EE53_13kona_executor4util31encode_holocene_eip_1559_params
FN:95,_RNvNtNtCs89knhh6EE53_13kona_executor4util4test12mock_payload
FN:194,_RNvNtNtCs89knhh6EE53_13kona_executor4util4tests_30test_encode_canyon_1559_params
FN:112,_RNvNtNtCs89knhh6EE53_13kona_executor4util4tests_36test_decode_holocene_eip_1559_params
FN:176,_RNvNtNtCs89knhh6EE53_13kona_executor4util4tests_36test_encode_holocene_eip_1559_params
FN:158,_RNvNtNtCs89knhh6EE53_13kona_executor4util4tests_44test_encode_holocene_eip_1559_params_default
FN:143,_RNvNtNtCs89knhh6EE53_13kona_executor4util4tests_44test_encode_holocene_eip_1559_params_missing
FN:136,_RNvNtNtCs89knhh6EE53_13kona_executor4util4tests_51test_decode_holocene_eip_1559_params_invalid_length
FN:122,_RNvNtNtCs89knhh6EE53_13kona_executor4util4tests_52test_decode_holocene_eip_1559_params_invalid_version
FN:129,_RNvNtNtCs89knhh6EE53_13kona_executor4util4tests_56test_decode_holocene_eip_1559_params_invalid_denominator
FNDA:0,_RNCNvNtCs89knhh6EE53_13kona_executor4util31decode_holocene_eip_1559_params0B5_
FNDA:0,_RNCNvNtCs89knhh6EE53_13kona_executor4util31decode_holocene_eip_1559_paramss_0B5_
FNDA:2,_RNvNtCs89knhh6EE53_13kona_executor4util29encode_canyon_base_fee_params
FNDA:12,_RNvNtCs89knhh6EE53_13kona_executor4util31decode_holocene_eip_1559_params
FNDA:11,_RNvNtCs89knhh6EE53_13kona_executor4util31encode_holocene_eip_1559_params
FNDA:3,_RNvNtNtCs89knhh6EE53_13kona_executor4util4test12mock_payload
FNDA:1,_RNvNtNtCs89knhh6EE53_13kona_executor4util4tests_30test_encode_canyon_1559_params
FNDA:1,_RNvNtNtCs89knhh6EE53_13kona_executor4util4tests_36test_decode_holocene_eip_1559_params
FNDA:1,_RNvNtNtCs89knhh6EE53_13kona_executor4util4tests_36test_encode_holocene_eip_1559_params
FNDA:1,_RNvNtNtCs89knhh6EE53_13kona_executor4util4tests_44test_encode_holocene_eip_1559_params_default
FNDA:1,_RNvNtNtCs89knhh6EE53_13kona_executor4util4tests_44test_encode_holocene_eip_1559_params_missing
FNDA:1,_RNvNtNtCs89knhh6EE53_13kona_executor4util4tests_51test_decode_holocene_eip_1559_params_invalid_length
FNDA:1,_RNvNtNtCs89knhh6EE53_13kona_executor4util4tests_52test_decode_holocene_eip_1559_params_invalid_version
FNDA:1,_RNvNtNtCs89knhh6EE53_13kona_executor4util4tests_56test_decode_holocene_eip_1559_params_invalid_denominator
FNF:14
FNH:12
DA:19,12
DA:20,12
DA:21,12
DA:22,1
DA:23,11
DA:24,11
DA:25,11
DA:26,11
DA:27,1
DA:28,10
DA:29,10
DA:30,10
DA:31,10
DA:32,10
DA:33,10
DA:35,10
DA:36,10
DA:40,10
DA:41,1
DA:42,9
DA:43,9
DA:44,9
DA:45,12
DA:56,11
DA:57,11
DA:58,11
DA:59,11
DA:60,11
DA:61,10
DA:62,1
DA:64,9
DA:67,10
DA:68,10
DA:69,10
DA:70,10
DA:71,11
DA:76,2
DA:77,2
DA:78,2
DA:79,2
DA:80,2
DA:81,2
DA:82,2
DA:83,2
DA:95,3
DA:96,3
DA:97,3
DA:98,3
DA:99,3
DA:100,3
DA:101,3
DA:102,3
DA:103,3
DA:104,3
DA:105,3
DA:106,3
DA:107,3
DA:108,3
DA:109,3
DA:112,1
DA:113,1
DA:114,1
DA:115,1
DA:116,1
DA:117,1
DA:118,1
DA:119,1
DA:122,1
DA:123,1
DA:124,1
DA:125,1
DA:126,1
DA:129,1
DA:130,1
DA:131,1
DA:132,1
DA:133,1
DA:136,1
DA:137,1
DA:138,1
DA:139,1
DA:140,1
DA:143,1
DA:144,1
DA:145,1
DA:146,1
DA:147,1
DA:148,1
DA:149,1
DA:150,1
DA:151,1
DA:152,1
DA:153,1
DA:154,1
DA:155,1
DA:158,1
DA:159,1
DA:160,1
DA:161,1
DA:162,1
DA:163,1
DA:164,1
DA:165,1
DA:166,1
DA:167,1
DA:168,1
DA:169,1
DA:170,1
DA:171,1
DA:172,1
DA:173,1
DA:176,1
DA:177,1
DA:178,1
DA:179,1
DA:180,1
DA:181,1
DA:182,1
DA:183,1
DA:184,1
DA:185,1
DA:186,1
DA:187,1
DA:188,1
DA:189,1
DA:190,1
DA:191,1
DA:194,1
DA:195,1
DA:196,1
DA:197,1
DA:198,1
DA:199,1
DA:200,1
DA:201,1
DA:202,1
DA:203,1
DA:204,1
BRF:0
BRH:0
LF:140
LH:138
end_of_record
SF:/Users/andreasbigger/kona/crates/proof/mpt/src/list_walker.rs
FN:131,_RINvMNtCsiRI8oMBxfZX_8kona_mpt11list_walkerINtB3_17OrderedListWalkerpE13get_trie_nodepEB5_
FN:137,_RNCINvMNtCsiRI8oMBxfZX_8kona_mpt11list_walkerINtB5_17OrderedListWalkerpE13get_trie_nodepE0B7_
FN:50,_RNCNvMNtCsiRI8oMBxfZX_8kona_mpt11list_walkerINtB4_17OrderedListWalkerpE7hydrate0B6_
FN:80,_RNvMNtCsiRI8oMBxfZX_8kona_mpt11list_walkerINtB2_17OrderedListWalkerpE10take_innerB4_
FN:85,_RNvMNtCsiRI8oMBxfZX_8kona_mpt11list_walkerINtB2_17OrderedListWalkerpE12fetch_leavesB4_
FN:40,_RNvMNtCsiRI8oMBxfZX_8kona_mpt11list_walkerINtB2_17OrderedListWalkerpE16try_new_hydratedB4_
FN:34,_RNvMNtCsiRI8oMBxfZX_8kona_mpt11list_walkerINtB2_17OrderedListWalkerpE3newB4_
FN:48,_RNvMNtCsiRI8oMBxfZX_8kona_mpt11list_walkerINtB2_17OrderedListWalkerpE7hydrateB4_
FN:148,_RNvXININtCsiRI8oMBxfZX_8kona_mpt11list_walkers_0pEINtB5_17OrderedListWalkerpENtNtNtNtCs8dmkrYGpicx_4core4iter6traits8iterator8Iterator4nextB7_
FN:228,_RNCNvNtNtCs3lisCNf5bLP_8kona_mpt11list_walker4tests_16test_list_walkers0_0B7_
FN:215,_RNCNvNtNtCs3lisCNf5bLP_8kona_mpt11list_walker4tests_16test_list_walkers_0B7_
FN:179,_RNCNvNtNtCs3lisCNf5bLP_8kona_mpt11list_walker4tests_32test_online_list_walker_receipts0B7_
FN:193,_RNCNvNtNtCs3lisCNf5bLP_8kona_mpt11list_walker4tests_36test_online_list_walker_transactions0B7_
FN:207,_RNvNtNtCs3lisCNf5bLP_8kona_mpt11list_walker4tests_16test_list_walker
FN:235,_RNvNtNtCs3lisCNf5bLP_8kona_mpt11list_walker4tests_22test_empty_list_walker
FN:179,_RNvNtNtCs3lisCNf5bLP_8kona_mpt11list_walker4tests_32test_online_list_walker_receipts
FN:193,_RNvNtNtCs3lisCNf5bLP_8kona_mpt11list_walker4tests_36test_online_list_walker_transactions
FN:186,_RNCNCNvNtNtCs3lisCNf5bLP_8kona_mpt11list_walker4tests_32test_online_list_walker_receipts00B9_
FN:200,_RNCNCNvNtNtCs3lisCNf5bLP_8kona_mpt11list_walker4tests_36test_online_list_walker_transactions00B9_
FN:210,_RNCNvNtNtCs3lisCNf5bLP_8kona_mpt11list_walker4tests_16test_list_walker0B7_
FN:131,_RINvMNtCs3lisCNf5bLP_8kona_mpt11list_walkerINtB3_17OrderedListWalkerNtNtB5_4noop16NoopTrieProviderE13get_trie_nodeRAhj20_EB5_
FN:131,_RINvMNtCs3lisCNf5bLP_8kona_mpt11list_walkerINtB3_17OrderedListWalkerNtNtB5_9test_util16TrieNodeProviderE13get_trie_nodeINtNtNtCsgKRRzl9x21L_16alloy_primitives4bits5fixed10FixedBytesKj20_EEB5_
FN:131,_RINvMNtCs3lisCNf5bLP_8kona_mpt11list_walkerINtB3_17OrderedListWalkerNtNtB5_9test_util16TrieNodeProviderE13get_trie_nodeRAhj20_EB5_
FN:137,_RNCINvMNtCs3lisCNf5bLP_8kona_mpt11list_walkerINtB5_17OrderedListWalkerNtNtB7_4noop16NoopTrieProviderE13get_trie_nodeRAhj20_E0B7_
FN:137,_RNCINvMNtCs3lisCNf5bLP_8kona_mpt11list_walkerINtB5_17OrderedListWalkerNtNtB7_9test_util16TrieNodeProviderE13get_trie_nodeINtNtNtCsgKRRzl9x21L_16alloy_primitives4bits5fixed10FixedBytesKj20_EE0B7_
FN:137,_RNCINvMNtCs3lisCNf5bLP_8kona_mpt11list_walkerINtB5_17OrderedListWalkerNtNtB7_9test_util16TrieNodeProviderE13get_trie_nodeRAhj20_E0B7_
FN:50,_RNCNvMNtCs3lisCNf5bLP_8kona_mpt11list_walkerINtB4_17OrderedListWalkerNtNtB6_9test_util16TrieNodeProviderE7hydrate0B6_
FN:85,_RNvMNtCs3lisCNf5bLP_8kona_mpt11list_walkerINtB2_17OrderedListWalkerNtNtB4_4noop16NoopTrieProviderE12fetch_leavesB4_
FN:85,_RNvMNtCs3lisCNf5bLP_8kona_mpt11list_walkerINtB2_17OrderedListWalkerNtNtB4_9test_util16TrieNodeProviderE12fetch_leavesB4_
FN:40,_RNvMNtCs3lisCNf5bLP_8kona_mpt11list_walkerINtB2_17OrderedListWalkerNtNtB4_9test_util16TrieNodeProviderE16try_new_hydratedB4_
FN:48,_RNvMNtCs3lisCNf5bLP_8kona_mpt11list_walkerINtB2_17OrderedListWalkerNtNtB4_9test_util16TrieNodeProviderE7hydrateB4_
FN:148,_RNvXs_NtCs3lisCNf5bLP_8kona_mpt11list_walkerINtB4_17OrderedListWalkerNtNtB6_9test_util16TrieNodeProviderENtNtNtNtCs8dmkrYGpicx_4core4iter6traits8iterator8Iterator4nextB6_
FN:80,_RNvMNtCs3lisCNf5bLP_8kona_mpt11list_walkerINtB2_17OrderedListWalkerpE10take_innerB4_
FN:34,_RNvMNtCs3lisCNf5bLP_8kona_mpt11list_walkerINtB2_17OrderedListWalkerpE3newB4_
FNDA:0,_RINvMNtCsiRI8oMBxfZX_8kona_mpt11list_walkerINtB3_17OrderedListWalkerpE13get_trie_nodepEB5_
FNDA:0,_RNCINvMNtCsiRI8oMBxfZX_8kona_mpt11list_walkerINtB5_17OrderedListWalkerpE13get_trie_nodepE0B7_
FNDA:0,_RNCNvMNtCsiRI8oMBxfZX_8kona_mpt11list_walkerINtB4_17OrderedListWalkerpE7hydrate0B6_
FNDA:0,_RNvMNtCsiRI8oMBxfZX_8kona_mpt11list_walkerINtB2_17OrderedListWalkerpE10take_innerB4_
FNDA:0,_RNvMNtCsiRI8oMBxfZX_8kona_mpt11list_walkerINtB2_17OrderedListWalkerpE12fetch_leavesB4_
FNDA:0,_RNvMNtCsiRI8oMBxfZX_8kona_mpt11list_walkerINtB2_17OrderedListWalkerpE16try_new_hydratedB4_
FNDA:0,_RNvMNtCsiRI8oMBxfZX_8kona_mpt11list_walkerINtB2_17OrderedListWalkerpE3newB4_
FNDA:0,_RNvMNtCsiRI8oMBxfZX_8kona_mpt11list_walkerINtB2_17OrderedListWalkerpE7hydrateB4_
FNDA:0,_RNvXININtCsiRI8oMBxfZX_8kona_mpt11list_walkers_0pEINtB5_17OrderedListWalkerpENtNtNtNtCs8dmkrYGpicx_4core4iter6traits8iterator8Iterator4nextB7_
FNDA:3,_RNCNvNtNtCs3lisCNf5bLP_8kona_mpt11list_walker4tests_16test_list_walkers0_0B7_
FNDA:5,_RNCNvNtNtCs3lisCNf5bLP_8kona_mpt11list_walker4tests_16test_list_walkers_0B7_
FNDA:0,_RNCNvNtNtCs3lisCNf5bLP_8kona_mpt11list_walker4tests_32test_online_list_walker_receipts0B7_
FNDA:0,_RNCNvNtNtCs3lisCNf5bLP_8kona_mpt11list_walker4tests_36test_online_list_walker_transactions0B7_
FNDA:1,_RNvNtNtCs3lisCNf5bLP_8kona_mpt11list_walker4tests_16test_list_walker
FNDA:1,_RNvNtNtCs3lisCNf5bLP_8kona_mpt11list_walker4tests_22test_empty_list_walker
FNDA:0,_RNvNtNtCs3lisCNf5bLP_8kona_mpt11list_walker4tests_32test_online_list_walker_receipts
FNDA:0,_RNvNtNtCs3lisCNf5bLP_8kona_mpt11list_walker4tests_36test_online_list_walker_transactions
FNDA:0,_RNCNCNvNtNtCs3lisCNf5bLP_8kona_mpt11list_walker4tests_32test_online_list_walker_receipts00B9_
FNDA:0,_RNCNCNvNtNtCs3lisCNf5bLP_8kona_mpt11list_walker4tests_36test_online_list_walker_transactions00B9_
FNDA:3,_RNCNvNtNtCs3lisCNf5bLP_8kona_mpt11list_walker4tests_16test_list_walker0B7_
FNDA:0,_RINvMNtCs3lisCNf5bLP_8kona_mpt11list_walkerINtB3_17OrderedListWalkerNtNtB5_4noop16NoopTrieProviderE13get_trie_nodeRAhj20_EB5_
FNDA:1,_RINvMNtCs3lisCNf5bLP_8kona_mpt11list_walkerINtB3_17OrderedListWalkerNtNtB5_9test_util16TrieNodeProviderE13get_trie_nodeINtNtNtCsgKRRzl9x21L_16alloy_primitives4bits5fixed10FixedBytesKj20_EEB5_
FNDA:1,_RINvMNtCs3lisCNf5bLP_8kona_mpt11list_walkerINtB3_17OrderedListWalkerNtNtB5_9test_util16TrieNodeProviderE13get_trie_nodeRAhj20_EB5_
FNDA:0,_RNCINvMNtCs3lisCNf5bLP_8kona_mpt11list_walkerINtB5_17OrderedListWalkerNtNtB7_4noop16NoopTrieProviderE13get_trie_nodeRAhj20_E0B7_
FNDA:0,_RNCINvMNtCs3lisCNf5bLP_8kona_mpt11list_walkerINtB5_17OrderedListWalkerNtNtB7_9test_util16TrieNodeProviderE13get_trie_nodeINtNtNtCsgKRRzl9x21L_16alloy_primitives4bits5fixed10FixedBytesKj20_EE0B7_
FNDA:0,_RNCINvMNtCs3lisCNf5bLP_8kona_mpt11list_walkerINtB5_17OrderedListWalkerNtNtB7_9test_util16TrieNodeProviderE13get_trie_nodeRAhj20_E0B7_
FNDA:0,_RNCNvMNtCs3lisCNf5bLP_8kona_mpt11list_walkerINtB4_17OrderedListWalkerNtNtB6_9test_util16TrieNodeProviderE7hydrate0B6_
FNDA:1,_RNvMNtCs3lisCNf5bLP_8kona_mpt11list_walkerINtB2_17OrderedListWalkerNtNtB4_4noop16NoopTrieProviderE12fetch_leavesB4_
FNDA:5,_RNvMNtCs3lisCNf5bLP_8kona_mpt11list_walkerINtB2_17OrderedListWalkerNtNtB4_9test_util16TrieNodeProviderE12fetch_leavesB4_
FNDA:1,_RNvMNtCs3lisCNf5bLP_8kona_mpt11list_walkerINtB2_17OrderedListWalkerNtNtB4_9test_util16TrieNodeProviderE16try_new_hydratedB4_
FNDA:1,_RNvMNtCs3lisCNf5bLP_8kona_mpt11list_walkerINtB2_17OrderedListWalkerNtNtB4_9test_util16TrieNodeProviderE7hydrateB4_
FNDA:0,_RNvXs_NtCs3lisCNf5bLP_8kona_mpt11list_walkerINtB4_17OrderedListWalkerNtNtB6_9test_util16TrieNodeProviderENtNtNtNtCs8dmkrYGpicx_4core4iter6traits8iterator8Iterator4nextB6_
FNDA:0,_RNvMNtCs3lisCNf5bLP_8kona_mpt11list_walkerINtB2_17OrderedListWalkerpE10take_innerB4_
FNDA:0,_RNvMNtCs3lisCNf5bLP_8kona_mpt11list_walkerINtB2_17OrderedListWalkerpE3newB4_
FNF:20
FNH:9
DA:34,0
DA:35,0
DA:36,0
DA:40,1
DA:41,1
DA:42,1
DA:43,1
DA:44,1
DA:48,1
DA:49,1
DA:50,1
DA:51,0
DA:52,1
DA:55,1
DA:60,1
DA:61,1
DA:62,1
DA:63,1
DA:64,1
DA:65,1
DA:66,1
DA:67,0
DA:68,0
DA:69,0
DA:70,0
DA:71,0
DA:72,0
DA:74,1
DA:75,1
DA:76,1
DA:80,0
DA:81,0
DA:82,0
DA:85,6
DA:86,6
DA:87,6
DA:88,6
DA:89,6
DA:90,2
DA:91,2
DA:92,34
DA:93,34
DA:94,1
DA:97,1
DA:98,1
DA:100,30
DA:101,30
DA:102,3
DA:103,3
DA:104,3
DA:108,2
DA:110,3
DA:111,3
DA:113,0
DA:114,0
DA:115,0
DA:116,0
DA:117,0
DA:118,0
DA:119,0
DA:121,0
DA:124,1
DA:125,0
DA:127,6
DA:131,2
DA:132,2
DA:133,2
DA:134,2
DA:135,2
DA:136,2
DA:137,2
DA:138,2
DA:139,2
DA:148,0
DA:149,0
DA:150,0
DA:151,0
DA:152,0
DA:153,0
DA:154,0
DA:155,0
DA:157,0
DA:159,0
DA:179,0
DA:180,0
DA:181,0
DA:182,0
DA:183,0
DA:184,0
DA:185,0
DA:186,0
DA:187,0
DA:188,0
DA:189,0
DA:190,0
DA:193,0
DA:194,0
DA:195,0
DA:196,0
DA:197,0
DA:198,0
DA:199,0
DA:200,0
DA:201,0
DA:202,0
DA:203,0
DA:204,0
DA:207,1
DA:210,3
DA:211,1
DA:212,1
DA:213,1
DA:214,1
DA:215,5
DA:216,5
DA:217,5
DA:218,5
DA:219,1
DA:220,1
DA:221,1
DA:222,1
DA:223,1
DA:224,1
DA:225,1
DA:226,1
DA:227,1
DA:228,3
DA:229,1
DA:230,1
DA:231,1
DA:232,1
DA:235,1
DA:236,1
DA:237,1
DA:238,1
DA:239,1
DA:240,1
DA:241,1
BRF:0
BRH:0
LF:168
LH:85
end_of_record
SF:/Users/andreasbigger/kona/crates/proof/mpt/src/node.rs
FN:361,_RINvMNtCsiRI8oMBxfZX_8kona_mpt4nodeNtB3_8TrieNode20collapse_if_possibleNtNtCs89knhh6EE53_13kona_executor10test_utils20DiskTrieNodeProviderNtNtB5_4noop14NoopTrieHinterEB1b_
FN:150,_RINvMNtCsiRI8oMBxfZX_8kona_mpt4nodeNtB3_8TrieNode4openNtNtCs89knhh6EE53_13kona_executor10test_utils20DiskTrieNodeProviderEBU_
FN:309,_RINvMNtCsiRI8oMBxfZX_8kona_mpt4nodeNtB3_8TrieNode6deleteNtNtCs89knhh6EE53_13kona_executor10test_utils20DiskTrieNodeProviderNtNtB5_4noop14NoopTrieHinterEBW_
FN:194,_RINvMNtCsiRI8oMBxfZX_8kona_mpt4nodeNtB3_8TrieNode6insertNtNtCs89knhh6EE53_13kona_executor10test_utils20DiskTrieNodeProviderEBW_
FN:122,_RINvMNtCsiRI8oMBxfZX_8kona_mpt4nodeNtB3_8TrieNode7unblindNtNtCs89knhh6EE53_13kona_executor10test_utils20DiskTrieNodeProviderEBX_
FN:397,_RNCINvMNtCsiRI8oMBxfZX_8kona_mpt4nodeNtB5_8TrieNode20collapse_if_possibleNtNtCs89knhh6EE53_13kona_executor10test_utils20DiskTrieNodeProviderNtNtB7_4noop14NoopTrieHinterE0B1d_
FN:429,_RNCINvMNtCsiRI8oMBxfZX_8kona_mpt4nodeNtB5_8TrieNode20collapse_if_possibleNtNtCs89knhh6EE53_13kona_executor10test_utils20DiskTrieNodeProviderNtNtB7_4noop14NoopTrieHinterEs_0B1d_
FN:160,_RNCINvMNtCsiRI8oMBxfZX_8kona_mpt4nodeNtB5_8TrieNode4openNtNtCs89knhh6EE53_13kona_executor10test_utils20DiskTrieNodeProviderE0BW_
FN:131,_RNCINvMNtCsiRI8oMBxfZX_8kona_mpt4nodeNtB5_8TrieNode7unblindNtNtCs89knhh6EE53_13kona_executor10test_utils20DiskTrieNodeProviderE0BZ_
FN:361,_RINvMNtCsiRI8oMBxfZX_8kona_mpt4nodeNtB3_8TrieNode20collapse_if_possibleppEB5_
FN:150,_RINvMNtCsiRI8oMBxfZX_8kona_mpt4nodeNtB3_8TrieNode4openpEB5_
FN:309,_RINvMNtCsiRI8oMBxfZX_8kona_mpt4nodeNtB3_8TrieNode6deleteppEB5_
FN:194,_RINvMNtCsiRI8oMBxfZX_8kona_mpt4nodeNtB3_8TrieNode6insertpEB5_
FN:122,_RINvMNtCsiRI8oMBxfZX_8kona_mpt4nodeNtB3_8TrieNode7unblindpEB5_
FN:397,_RNCINvMNtCsiRI8oMBxfZX_8kona_mpt4nodeNtB5_8TrieNode20collapse_if_possibleppE0B7_
FN:429,_RNCINvMNtCsiRI8oMBxfZX_8kona_mpt4nodeNtB5_8TrieNode20collapse_if_possibleppEs_0B7_
FN:160,_RNCINvMNtCsiRI8oMBxfZX_8kona_mpt4nodeNtB5_8TrieNode4openpE0B7_
FN:131,_RNCINvMNtCsiRI8oMBxfZX_8kona_mpt4nodeNtB5_8TrieNode7unblindpE0B7_
FN:501,_RNCNvMNtCsiRI8oMBxfZX_8kona_mpt4nodeNtB4_8TrieNode14payload_length0B6_
FN:601,_RNCNvXs0_NtCsiRI8oMBxfZX_8kona_mpt4nodeNtB7_8TrieNodeNtNtCsfonRIHmZTHf_9alloy_rlp6decode9Decodable6decode0B9_
FN:549,_RNCNvXs_NtCsiRI8oMBxfZX_8kona_mpt4nodeNtB6_8TrieNodeNtNtCsfonRIHmZTHf_9alloy_rlp6encode9Encodable6encode0B8_
FN:103,_RNvMNtCsiRI8oMBxfZX_8kona_mpt4nodeNtB2_8TrieNode11new_blinded
FN:515,_RNvMNtCsiRI8oMBxfZX_8kona_mpt4nodeNtB2_8TrieNode14blinded_length
FN:478,_RNvMNtCsiRI8oMBxfZX_8kona_mpt4nodeNtB2_8TrieNode14payload_length
FN:448,_RNvMNtCsiRI8oMBxfZX_8kona_mpt4nodeNtB2_8TrieNode36try_decode_leaf_or_extension_payload
FN:109,_RNvMNtCsiRI8oMBxfZX_8kona_mpt4nodeNtB2_8TrieNode5blind
FN:583,_RNvXs0_NtCsiRI8oMBxfZX_8kona_mpt4nodeNtB5_8TrieNodeNtNtCsfonRIHmZTHf_9alloy_rlp6decode9Decodable6decode
FN:522,_RNvXs_NtCsiRI8oMBxfZX_8kona_mpt4nodeNtB4_8TrieNodeNtNtCsfonRIHmZTHf_9alloy_rlp6encode9Encodable6encode
FN:561,_RNvXs_NtCsiRI8oMBxfZX_8kona_mpt4nodeNtB4_8TrieNodeNtNtCsfonRIHmZTHf_9alloy_rlp6encode9Encodable6length
FN:501,_RNCNvMNtCs3lisCNf5bLP_8kona_mpt4nodeNtB4_8TrieNode14payload_length0B6_
FN:601,_RNCNvXs0_NtCs3lisCNf5bLP_8kona_mpt4nodeNtB7_8TrieNodeNtNtCsfonRIHmZTHf_9alloy_rlp6decode9Decodable6decode0B9_
FN:549,_RNCNvXs_NtCs3lisCNf5bLP_8kona_mpt4nodeNtB6_8TrieNodeNtNtCsfonRIHmZTHf_9alloy_rlp6encode9Encodable6encode0B8_
FN:103,_RNvMNtCs3lisCNf5bLP_8kona_mpt4nodeNtB2_8TrieNode11new_blinded
FN:515,_RNvMNtCs3lisCNf5bLP_8kona_mpt4nodeNtB2_8TrieNode14blinded_length
FN:478,_RNvMNtCs3lisCNf5bLP_8kona_mpt4nodeNtB2_8TrieNode14payload_length
FN:448,_RNvMNtCs3lisCNf5bLP_8kona_mpt4nodeNtB2_8TrieNode36try_decode_leaf_or_extension_payload
FN:109,_RNvMNtCs3lisCNf5bLP_8kona_mpt4nodeNtB2_8TrieNode5blind
FN:583,_RNvXs0_NtCs3lisCNf5bLP_8kona_mpt4nodeNtB5_8TrieNodeNtNtCsfonRIHmZTHf_9alloy_rlp6decode9Decodable6decode
FN:522,_RNvXs_NtCs3lisCNf5bLP_8kona_mpt4nodeNtB4_8TrieNodeNtNtCsfonRIHmZTHf_9alloy_rlp6encode9Encodable6encode
FN:561,_RNvXs_NtCs3lisCNf5bLP_8kona_mpt4nodeNtB4_8TrieNodeNtNtCsfonRIHmZTHf_9alloy_rlp6encode9Encodable6length
FN:732,_RNCNvNtNtCs3lisCNf5bLP_8kona_mpt4node4tests_30test_retrieve_from_trie_simple0B7_
FN:741,_RNCNvNtNtCs3lisCNf5bLP_8kona_mpt4node4tests_30test_retrieve_from_trie_simples_0B7_
FN:721,_RNvNtNtCs3lisCNf5bLP_8kona_mpt4node4tests_16test_decode_leaf
FN:641,_RNvNtNtCs3lisCNf5bLP_8kona_mpt4node4tests_18test_decode_branch
FN:635,_RNvNtNtCs3lisCNf5bLP_8kona_mpt4node4tests_18test_empty_blinded
FN:766,_RNvNtNtCs3lisCNf5bLP_8kona_mpt4node4tests_18test_insert_static
FN:729,_RNvNtNtCs3lisCNf5bLP_8kona_mpt4node4tests_30test_retrieve_from_trie_simple
FN:681,_RNvNtNtCs3lisCNf5bLP_8kona_mpt4node4tests_39test_encode_decode_extension_open_short
FN:698,_RNvNtNtCs3lisCNf5bLP_8kona_mpt4node4tests_41test_encode_decode_extension_blinded_long
FN:361,_RINvMNtCs3lisCNf5bLP_8kona_mpt4nodeNtB3_8TrieNode20collapse_if_possibleNtNtB5_4noop16NoopTrieProviderNtB19_14NoopTrieHinterEB5_
FN:150,_RINvMNtCs3lisCNf5bLP_8kona_mpt4nodeNtB3_8TrieNode4openNtNtB5_9test_util16TrieNodeProviderEB5_
FN:309,_RINvMNtCs3lisCNf5bLP_8kona_mpt4nodeNtB3_8TrieNode6deleteNtNtB5_4noop16NoopTrieProviderNtBU_14NoopTrieHinterEB5_
FN:194,_RINvMNtCs3lisCNf5bLP_8kona_mpt4nodeNtB3_8TrieNode6insertNtNtB5_4noop16NoopTrieProviderEB5_
FN:122,_RINvMNtCs3lisCNf5bLP_8kona_mpt4nodeNtB3_8TrieNode7unblindNtNtB5_4noop16NoopTrieProviderEB5_
FN:122,_RINvMNtCs3lisCNf5bLP_8kona_mpt4nodeNtB3_8TrieNode7unblindNtNtB5_9test_util16TrieNodeProviderEB5_
FN:397,_RNCINvMNtCs3lisCNf5bLP_8kona_mpt4nodeNtB5_8TrieNode20collapse_if_possibleNtNtB7_4noop16NoopTrieProviderNtB1b_14NoopTrieHinterE0B7_
FN:429,_RNCINvMNtCs3lisCNf5bLP_8kona_mpt4nodeNtB5_8TrieNode20collapse_if_possibleNtNtB7_4noop16NoopTrieProviderNtB1b_14NoopTrieHinterEs_0B7_
FN:160,_RNCINvMNtCs3lisCNf5bLP_8kona_mpt4nodeNtB5_8TrieNode4openNtNtB7_9test_util16TrieNodeProviderE0B7_
FN:131,_RNCINvMNtCs3lisCNf5bLP_8kona_mpt4nodeNtB5_8TrieNode7unblindNtNtB7_4noop16NoopTrieProviderE0B7_
FN:131,_RNCINvMNtCs3lisCNf5bLP_8kona_mpt4nodeNtB5_8TrieNode7unblindNtNtB7_9test_util16TrieNodeProviderE0B7_
FN:150,_RINvMNtCsiRI8oMBxfZX_8kona_mpt4nodeNtB3_8TrieNode4openNtNtNtCslXQRWBiPfxI_10kona_proof7eip29355tests16MockTrieProviderEBW_
FN:122,_RINvMNtCsiRI8oMBxfZX_8kona_mpt4nodeNtB3_8TrieNode7unblindNtNtNtCslXQRWBiPfxI_10kona_proof7eip29355tests16MockTrieProviderEBZ_
FN:160,_RNCINvMNtCsiRI8oMBxfZX_8kona_mpt4nodeNtB5_8TrieNode4openNtNtNtCslXQRWBiPfxI_10kona_proof7eip29355tests16MockTrieProviderE0BY_
FN:131,_RNCINvMNtCsiRI8oMBxfZX_8kona_mpt4nodeNtB5_8TrieNode7unblindNtNtNtCslXQRWBiPfxI_10kona_proof7eip29355tests16MockTrieProviderE0B11_
FNDA:69,_RINvMNtCsiRI8oMBxfZX_8kona_mpt4nodeNtB3_8TrieNode20collapse_if_possibleNtNtCs89knhh6EE53_13kona_executor10test_utils20DiskTrieNodeProviderNtNtB5_4noop14NoopTrieHinterEB1b_
FNDA:35813,_RINvMNtCsiRI8oMBxfZX_8kona_mpt4nodeNtB3_8TrieNode4openNtNtCs89knhh6EE53_13kona_executor10test_utils20DiskTrieNodeProviderEBU_
FNDA:77,_RINvMNtCsiRI8oMBxfZX_8kona_mpt4nodeNtB3_8TrieNode6deleteNtNtCs89knhh6EE53_13kona_executor10test_utils20DiskTrieNodeProviderNtNtB5_4noop14NoopTrieHinterEBW_
FNDA:10440,_RINvMNtCsiRI8oMBxfZX_8kona_mpt4nodeNtB3_8TrieNode6insertNtNtCs89knhh6EE53_13kona_executor10test_utils20DiskTrieNodeProviderEBW_
FNDA:14519,_RINvMNtCsiRI8oMBxfZX_8kona_mpt4nodeNtB3_8TrieNode7unblindNtNtCs89knhh6EE53_13kona_executor10test_utils20DiskTrieNodeProviderEBX_
FNDA:792,_RNCINvMNtCsiRI8oMBxfZX_8kona_mpt4nodeNtB5_8TrieNode20collapse_if_possibleNtNtCs89knhh6EE53_13kona_executor10test_utils20DiskTrieNodeProviderNtNtB7_4noop14NoopTrieHinterE0B1d_
FNDA:0,_RNCINvMNtCsiRI8oMBxfZX_8kona_mpt4nodeNtB5_8TrieNode20collapse_if_possibleNtNtCs89knhh6EE53_13kona_executor10test_utils20DiskTrieNodeProviderNtNtB7_4noop14NoopTrieHinterEs_0B1d_
FNDA:17907,_RNCINvMNtCsiRI8oMBxfZX_8kona_mpt4nodeNtB5_8TrieNode4openNtNtCs89knhh6EE53_13kona_executor10test_utils20DiskTrieNodeProviderE0BW_
FNDA:0,_RNCINvMNtCsiRI8oMBxfZX_8kona_mpt4nodeNtB5_8TrieNode7unblindNtNtCs89knhh6EE53_13kona_executor10test_utils20DiskTrieNodeProviderE0BZ_
FNDA:0,_RINvMNtCsiRI8oMBxfZX_8kona_mpt4nodeNtB3_8TrieNode20collapse_if_possibleppEB5_
FNDA:0,_RINvMNtCsiRI8oMBxfZX_8kona_mpt4nodeNtB3_8TrieNode4openpEB5_
FNDA:0,_RINvMNtCsiRI8oMBxfZX_8kona_mpt4nodeNtB3_8TrieNode6deleteppEB5_
FNDA:0,_RINvMNtCsiRI8oMBxfZX_8kona_mpt4nodeNtB3_8TrieNode6insertpEB5_
FNDA:0,_RINvMNtCsiRI8oMBxfZX_8kona_mpt4nodeNtB3_8TrieNode7unblindpEB5_
FNDA:0,_RNCINvMNtCsiRI8oMBxfZX_8kona_mpt4nodeNtB5_8TrieNode20collapse_if_possibleppE0B7_
FNDA:0,_RNCINvMNtCsiRI8oMBxfZX_8kona_mpt4nodeNtB5_8TrieNode20collapse_if_possibleppEs_0B7_
FNDA:0,_RNCINvMNtCsiRI8oMBxfZX_8kona_mpt4nodeNtB5_8TrieNode4openpE0B7_
FNDA:0,_RNCINvMNtCsiRI8oMBxfZX_8kona_mpt4nodeNtB5_8TrieNode7unblindpE0B7_
FNDA:2225555,_RNCNvMNtCsiRI8oMBxfZX_8kona_mpt4nodeNtB4_8TrieNode14payload_length0B6_
FNDA:0,_RNCNvXs0_NtCsiRI8oMBxfZX_8kona_mpt4nodeNtB7_8TrieNodeNtNtCsfonRIHmZTHf_9alloy_rlp6decode9Decodable6decode0B9_
FNDA:178534,_RNCNvXs_NtCsiRI8oMBxfZX_8kona_mpt4nodeNtB6_8TrieNodeNtNtCsfonRIHmZTHf_9alloy_rlp6encode9Encodable6encode0B8_
FNDA:146956,_RNvMNtCsiRI8oMBxfZX_8kona_mpt4nodeNtB2_8TrieNode11new_blinded
FNDA:2226856,_RNvMNtCsiRI8oMBxfZX_8kona_mpt4nodeNtB2_8TrieNode14blinded_length
FNDA:235145,_RNvMNtCsiRI8oMBxfZX_8kona_mpt4nodeNtB2_8TrieNode14payload_length
FNDA:2681,_RNvMNtCsiRI8oMBxfZX_8kona_mpt4nodeNtB2_8TrieNode36try_decode_leaf_or_extension_payload
FNDA:130783,_RNvMNtCsiRI8oMBxfZX_8kona_mpt4nodeNtB2_8TrieNode5blind
FNDA:215756,_RNvXs0_NtCsiRI8oMBxfZX_8kona_mpt4nodeNtB5_8TrieNodeNtNtCsfonRIHmZTHf_9alloy_rlp6decode9Decodable6decode
FNDA:61614,_RNvXs_NtCsiRI8oMBxfZX_8kona_mpt4nodeNtB4_8TrieNodeNtNtCsfonRIHmZTHf_9alloy_rlp6encode9Encodable6encode
FNDA:2418890,_RNvXs_NtCsiRI8oMBxfZX_8kona_mpt4nodeNtB4_8TrieNodeNtNtCsfonRIHmZTHf_9alloy_rlp6encode9Encodable6length
FNDA:59268001,_RNCNvMNtCs3lisCNf5bLP_8kona_mpt4nodeNtB4_8TrieNode14payload_length0B6_
FNDA:0,_RNCNvXs0_NtCs3lisCNf5bLP_8kona_mpt4nodeNtB7_8TrieNodeNtNtCsfonRIHmZTHf_9alloy_rlp6decode9Decodable6decode0B9_
FNDA:5902111,_RNCNvXs_NtCs3lisCNf5bLP_8kona_mpt4nodeNtB6_8TrieNodeNtNtCsfonRIHmZTHf_9alloy_rlp6encode9Encodable6encode0B8_
FNDA:23,_RNvMNtCs3lisCNf5bLP_8kona_mpt4nodeNtB2_8TrieNode11new_blinded
FNDA:59395143,_RNvMNtCs3lisCNf5bLP_8kona_mpt4nodeNtB2_8TrieNode14blinded_length
FNDA:21131235,_RNvMNtCs3lisCNf5bLP_8kona_mpt4nodeNtB2_8TrieNode14payload_length
FNDA:12,_RNvMNtCs3lisCNf5bLP_8kona_mpt4nodeNtB2_8TrieNode36try_decode_leaf_or_extension_payload
FNDA:1398516,_RNvMNtCs3lisCNf5bLP_8kona_mpt4nodeNtB2_8TrieNode5blind
FNDA:100,_RNvXs0_NtCs3lisCNf5bLP_8kona_mpt4nodeNtB5_8TrieNodeNtNtCsfonRIHmZTHf_9alloy_rlp6decode9Decodable6decode
FNDA:5914165,_RNvXs_NtCs3lisCNf5bLP_8kona_mpt4nodeNtB4_8TrieNodeNtNtCsfonRIHmZTHf_9alloy_rlp6encode9Encodable6encode
FNDA:66707555,_RNvXs_NtCs3lisCNf5bLP_8kona_mpt4nodeNtB4_8TrieNodeNtNtCsfonRIHmZTHf_9alloy_rlp6encode9Encodable6length
FNDA:5,_RNCNvNtNtCs3lisCNf5bLP_8kona_mpt4node4tests_30test_retrieve_from_trie_simple0B7_
FNDA:7,_RNCNvNtNtCs3lisCNf5bLP_8kona_mpt4node4tests_30test_retrieve_from_trie_simples_0B7_
FNDA:1,_RNvNtNtCs3lisCNf5bLP_8kona_mpt4node4tests_16test_decode_leaf
FNDA:1,_RNvNtNtCs3lisCNf5bLP_8kona_mpt4node4tests_18test_decode_branch
FNDA:1,_RNvNtNtCs3lisCNf5bLP_8kona_mpt4node4tests_18test_empty_blinded
FNDA:1,_RNvNtNtCs3lisCNf5bLP_8kona_mpt4node4tests_18test_insert_static
FNDA:1,_RNvNtNtCs3lisCNf5bLP_8kona_mpt4node4tests_30test_retrieve_from_trie_simple
FNDA:1,_RNvNtNtCs3lisCNf5bLP_8kona_mpt4node4tests_39test_encode_decode_extension_open_short
FNDA:1,_RNvNtNtCs3lisCNf5bLP_8kona_mpt4node4tests_41test_encode_decode_extension_blinded_long
FNDA:4306,_RINvMNtCs3lisCNf5bLP_8kona_mpt4nodeNtB3_8TrieNode20collapse_if_possibleNtNtB5_4noop16NoopTrieProviderNtB19_14NoopTrieHinterEB5_
FNDA:20,_RINvMNtCs3lisCNf5bLP_8kona_mpt4nodeNtB3_8TrieNode4openNtNtB5_9test_util16TrieNodeProviderEB5_
FNDA:5582,_RINvMNtCs3lisCNf5bLP_8kona_mpt4nodeNtB3_8TrieNode6deleteNtNtB5_4noop16NoopTrieProviderNtBU_14NoopTrieHinterEB5_
FNDA:3921477,_RINvMNtCs3lisCNf5bLP_8kona_mpt4nodeNtB3_8TrieNode6insertNtNtB5_4noop16NoopTrieProviderEB5_
FNDA:0,_RINvMNtCs3lisCNf5bLP_8kona_mpt4nodeNtB3_8TrieNode7unblindNtNtB5_4noop16NoopTrieProviderEB5_
FNDA:6,_RINvMNtCs3lisCNf5bLP_8kona_mpt4nodeNtB3_8TrieNode7unblindNtNtB5_9test_util16TrieNodeProviderEB5_
FNDA:48073,_RNCINvMNtCs3lisCNf5bLP_8kona_mpt4nodeNtB5_8TrieNode20collapse_if_possibleNtNtB7_4noop16NoopTrieProviderNtB1b_14NoopTrieHinterE0B7_
FNDA:0,_RNCINvMNtCs3lisCNf5bLP_8kona_mpt4nodeNtB5_8TrieNode20collapse_if_possibleNtNtB7_4noop16NoopTrieProviderNtB1b_14NoopTrieHinterEs_0B7_
FNDA:9,_RNCINvMNtCs3lisCNf5bLP_8kona_mpt4nodeNtB5_8TrieNode4openNtNtB7_9test_util16TrieNodeProviderE0B7_
FNDA:0,_RNCINvMNtCs3lisCNf5bLP_8kona_mpt4nodeNtB5_8TrieNode7unblindNtNtB7_4noop16NoopTrieProviderE0B7_
FNDA:0,_RNCINvMNtCs3lisCNf5bLP_8kona_mpt4nodeNtB5_8TrieNode7unblindNtNtB7_9test_util16TrieNodeProviderE0B7_
FNDA:16,_RINvMNtCsiRI8oMBxfZX_8kona_mpt4nodeNtB3_8TrieNode4openNtNtNtCslXQRWBiPfxI_10kona_proof7eip29355tests16MockTrieProviderEBW_
FNDA:8,_RINvMNtCsiRI8oMBxfZX_8kona_mpt4nodeNtB3_8TrieNode7unblindNtNtNtCslXQRWBiPfxI_10kona_proof7eip29355tests16MockTrieProviderEBZ_
FNDA:0,_RNCINvMNtCsiRI8oMBxfZX_8kona_mpt4nodeNtB5_8TrieNode4openNtNtNtCslXQRWBiPfxI_10kona_proof7eip29355tests16MockTrieProviderE0BY_
FNDA:0,_RNCINvMNtCsiRI8oMBxfZX_8kona_mpt4nodeNtB5_8TrieNode7unblindNtNtNtCslXQRWBiPfxI_10kona_proof7eip29355tests16MockTrieProviderE0B11_
FNF:29
FNH:26
DA:103,146979
DA:104,146979
DA:105,146979
DA:109,1529299
DA:110,1529299
DA:111,117364
DA:112,1
DA:114,1411934
DA:115,1411934
DA:116,1411934
DA:119,1529299
DA:122,14533
DA:123,14533
DA:124,14533
DA:125,13
DA:126,13
DA:127,13
DA:128,13
DA:129,14520
DA:130,14520
DA:131,14520
DA:133,0
DA:134,14533
DA:135,14533
DA:150,35849
DA:151,35849
DA:152,35849
DA:153,35849
DA:154,35849
DA:155,35849
DA:156,17916
DA:157,17916
DA:158,17916
DA:159,17916
DA:160,17916
DA:161,17916
DA:163,2602
DA:164,2602
DA:166,81
DA:167,81
DA:169,68
DA:170,68
DA:172,13
DA:176,14447
DA:177,14447
DA:179,803
DA:181,35849
DA:194,3931917
DA:195,3931917
DA:196,3931917
DA:197,3931917
DA:198,3931917
DA:199,3931917
DA:200,3931917
DA:203,694291
DA:204,694291
DA:206,307906
DA:207,307906
DA:208,307906
DA:209,307906
DA:210,307906
DA:211,693
DA:212,693
DA:213,307213
DA:214,307213
DA:215,307213
DA:216,307213
DA:217,307213
DA:218,307213
DA:219,307213
DA:220,307213
DA:221,307213
DA:222,307213
DA:223,307213
DA:224,307213
DA:225,307213
DA:226,307213
DA:227,307213
DA:228,307213
DA:229,307213
DA:230,307213
DA:231,307213
DA:232,307213
DA:233,307213
DA:234,307213
DA:235,259514
DA:236,259514
DA:237,47699
DA:238,47699
DA:239,47699
DA:240,47699
DA:241,47699
DA:242,47699
DA:243,307213
DA:245,156109
DA:246,156109
DA:247,156109
DA:248,115446
DA:249,115446
DA:250,40663
DA:251,40663
DA:252,40663
DA:253,40663
DA:254,40663
DA:255,40663
DA:256,40663
DA:257,40663
DA:258,40663
DA:261,38921
DA:263,1742
DA:267,40663
DA:268,40663
DA:269,40663
DA:270,40663
DA:271,40663
DA:272,40663
DA:273,40663
DA:274,40663
DA:275,40663
DA:276,37892
DA:277,37892
DA:278,2771
DA:279,2771
DA:280,2771
DA:281,2771
DA:282,2771
DA:283,2771
DA:284,40663
DA:286,2773598
DA:287,2773598
DA:288,2773598
DA:289,2773598
DA:294,13
DA:295,13
DA:298,3931917
DA:309,5659
DA:310,5659
DA:311,5659
DA:312,5659
DA:313,5659
DA:314,5659
DA:315,5659
DA:316,0
DA:317,1289
DA:318,1289
DA:319,1289
DA:320,1289
DA:322,0
DA:325,30
DA:326,30
DA:327,30
DA:328,0
DA:329,30
DA:330,0
DA:331,0
DA:332,30
DA:333,30
DA:334,30
DA:337,30
DA:339,4340
DA:340,4340
DA:341,4340
DA:344,4340
DA:347,0
DA:348,0
DA:351,5659
DA:361,4375
DA:362,4375
DA:363,4375
DA:364,4375
DA:365,4375
DA:366,4375
DA:367,30
DA:368,0
DA:369,0
DA:370,0
DA:371,0
DA:372,0
DA:373,0
DA:374,0
DA:375,29
DA:376,29
DA:377,29
DA:378,29
DA:379,29
DA:380,29
DA:381,29
DA:382,29
DA:383,0
DA:384,0
DA:385,0
DA:386,0
DA:387,1
DA:388,1
DA:389,1
DA:390,1
DA:392,4345
DA:393,4345
DA:394,4345
DA:395,4345
DA:396,4345
DA:397,73865
DA:398,4345
DA:399,4345
DA:400,4345
DA:401,466
DA:402,466
DA:403,466
DA:404,466
DA:405,445
DA:406,445
DA:407,445
DA:408,445
DA:409,445
DA:410,445
DA:411,1
DA:412,1
DA:413,1
DA:414,1
DA:415,1
DA:416,1
DA:417,15
DA:418,15
DA:419,15
DA:420,15
DA:421,15
DA:422,15
DA:423,5
DA:424,5
DA:425,5
DA:426,5
DA:427,5
DA:428,5
DA:429,5
DA:431,5
DA:432,5
DA:434,0
DA:436,3879
DA:438,0
DA:440,4375
DA:441,4375
DA:448,2693
DA:450,2693
DA:451,2693
DA:452,2693
DA:453,1230
DA:454,1463
DA:455,0
DA:459,2693
DA:462,83
DA:463,83
DA:464,83
DA:465,83
DA:466,83
DA:470,2610
DA:471,2610
DA:473,0
DA:475,2693
DA:478,21366380
DA:479,21366380
DA:480,4563567
DA:481,10
DA:482,13057092
DA:483,13057092
DA:484,13057092
DA:485,13057046
DA:486,13057046
DA:487,13057092
DA:489,128443
DA:490,128443
DA:491,128443
DA:492,7971
DA:493,120472
DA:494,128443
DA:496,3617268
DA:497,3617268
DA:498,3617268
DA:499,3617268
DA:500,3617268
DA:501,61493556
DA:502,61493556
DA:503,61493556
DA:504,61493556
DA:507,21366380
DA:515,61621999
DA:516,61621999
DA:517,61621999
DA:518,61621999
DA:522,5975779
DA:523,5975779
DA:524,5975779
DA:525,4563567
DA:526,10
DA:527,1042909
DA:528,1042909
DA:529,1042909
DA:530,1042909
DA:531,1042909
DA:532,1042909
DA:533,11608
DA:534,11608
DA:535,11608
DA:536,11608
DA:537,11608
DA:538,11607
DA:539,11607
DA:540,11607
DA:541,1
DA:542,1
DA:544,357685
DA:545,357685
DA:546,357685
DA:547,357685
DA:548,357685
DA:549,6080645
DA:550,6080645
DA:551,1517071
DA:552,1517071
DA:553,4563574
DA:554,4563574
DA:555,4563574
DA:556,6080645
DA:557,357685
DA:559,5975779
DA:561,69126445
DA:562,69126445
DA:563,52288231
DA:564,1447613
DA:566,12014183
DA:567,12014183
DA:570,116835
DA:571,116835
DA:574,3259583
DA:575,3259583
DA:578,69126445
DA:583,215856
DA:585,215856
DA:587,215856
DA:589,14531
DA:591,14531
DA:593,11838
DA:594,11838
DA:598,2693
DA:599,2693
DA:600,2693
DA:601,2693
DA:603,0
DA:606,201325
DA:608,54905
DA:609,54905
DA:612,146420
DA:613,146420
DA:615,0
DA:618,215856
DA:635,1
DA:636,1
DA:637,1
DA:638,1
DA:641,1
DA:645,1
DA:646,1
DA:647,1
DA:648,1
DA:649,1
DA:650,1
DA:651,1
DA:652,1
DA:653,1
DA:654,1
DA:655,1
DA:656,1
DA:657,1
DA:658,1
DA:659,1
DA:660,1
DA:661,1
DA:662,1
DA:663,1
DA:664,1
DA:665,1
DA:666,1
DA:667,1
DA:668,1
DA:669,1
DA:670,1
DA:671,1
DA:672,1
DA:673,1
DA:674,1
DA:676,1
DA:677,1
DA:678,1
DA:681,1
DA:684,1
DA:685,1
DA:686,1
DA:687,1
DA:688,1
DA:689,1
DA:690,1
DA:691,1
DA:692,1
DA:693,1
DA:694,1
DA:695,1
DA:698,1
DA:701,1
DA:702,1
DA:703,1
DA:704,1
DA:705,1
DA:706,1
DA:707,1
DA:708,1
DA:709,1
DA:710,1
DA:711,1
DA:712,1
DA:713,1
DA:714,1
DA:715,1
DA:716,1
DA:717,1
DA:718,1
DA:721,1
DA:723,1
DA:724,1
DA:725,1
DA:726,1
DA:729,1
DA:732,5
DA:733,5
DA:734,5
DA:735,5
DA:736,5
DA:737,1
DA:738,1
DA:739,1
DA:740,1
DA:741,7
DA:742,7
DA:743,7
DA:744,7
DA:745,1
DA:746,1
DA:747,1
DA:748,1
DA:749,5
DA:750,5
DA:751,5
DA:752,5
DA:753,5
DA:754,5
DA:755,5
DA:756,5
DA:757,5
DA:758,5
DA:761,1
DA:762,1
DA:763,1
DA:766,1
DA:767,1
DA:768,1
DA:769,1
DA:770,1
DA:771,1
DA:772,1
DA:773,1
DA:774,1
DA:775,1
DA:776,1
DA:777,1
DA:778,1
DA:779,1
DA:780,1
DA:781,1
DA:782,1
DA:783,1
DA:784,1
DA:785,1
DA:786,1
DA:787,1
DA:788,1
DA:789,1
DA:790,1
DA:791,1
DA:792,1
DA:793,1
DA:794,1
DA:795,1
DA:796,1
DA:797,1
DA:798,1
BRF:0
BRH:0
LF:506
LH:465
end_of_record
SF:/Users/andreasbigger/kona/crates/proof/mpt/src/noop.rs
FN:16,_RNvXNtCsiRI8oMBxfZX_8kona_mpt4noopNtB2_16NoopTrieProviderNtNtB4_6traits12TrieProvider17trie_node_by_hash
FN:28,_RNvXs_NtCsiRI8oMBxfZX_8kona_mpt4noopNtB4_14NoopTrieHinterNtNtB6_6traits10TrieHinter14hint_trie_node
FN:32,_RNvXs_NtCsiRI8oMBxfZX_8kona_mpt4noopNtB4_14NoopTrieHinterNtNtB6_6traits10TrieHinter18hint_account_proof
FN:36,_RNvXs_NtCsiRI8oMBxfZX_8kona_mpt4noopNtB4_14NoopTrieHinterNtNtB6_6traits10TrieHinter18hint_storage_proof
FN:45,_RNvXs_NtCsiRI8oMBxfZX_8kona_mpt4noopNtB4_14NoopTrieHinterNtNtB6_6traits10TrieHinter22hint_execution_witness
FN:16,_RNvXNtCs3lisCNf5bLP_8kona_mpt4noopNtB2_16NoopTrieProviderNtNtB4_6traits12TrieProvider17trie_node_by_hash
FN:28,_RNvXs_NtCs3lisCNf5bLP_8kona_mpt4noopNtB4_14NoopTrieHinterNtNtB6_6traits10TrieHinter14hint_trie_node
FN:32,_RNvXs_NtCs3lisCNf5bLP_8kona_mpt4noopNtB4_14NoopTrieHinterNtNtB6_6traits10TrieHinter18hint_account_proof
FN:36,_RNvXs_NtCs3lisCNf5bLP_8kona_mpt4noopNtB4_14NoopTrieHinterNtNtB6_6traits10TrieHinter18hint_storage_proof
FN:45,_RNvXs_NtCs3lisCNf5bLP_8kona_mpt4noopNtB4_14NoopTrieHinterNtNtB6_6traits10TrieHinter22hint_execution_witness
FNDA:0,_RNvXNtCsiRI8oMBxfZX_8kona_mpt4noopNtB2_16NoopTrieProviderNtNtB4_6traits12TrieProvider17trie_node_by_hash
FNDA:5,_RNvXs_NtCsiRI8oMBxfZX_8kona_mpt4noopNtB4_14NoopTrieHinterNtNtB6_6traits10TrieHinter14hint_trie_node
FNDA:535,_RNvXs_NtCsiRI8oMBxfZX_8kona_mpt4noopNtB4_14NoopTrieHinterNtNtB6_6traits10TrieHinter18hint_account_proof
FNDA:2874,_RNvXs_NtCsiRI8oMBxfZX_8kona_mpt4noopNtB4_14NoopTrieHinterNtNtB6_6traits10TrieHinter18hint_storage_proof
FNDA:8,_RNvXs_NtCsiRI8oMBxfZX_8kona_mpt4noopNtB4_14NoopTrieHinterNtNtB6_6traits10TrieHinter22hint_execution_witness
FNDA:0,_RNvXNtCs3lisCNf5bLP_8kona_mpt4noopNtB2_16NoopTrieProviderNtNtB4_6traits12TrieProvider17trie_node_by_hash
FNDA:0,_RNvXs_NtCs3lisCNf5bLP_8kona_mpt4noopNtB4_14NoopTrieHinterNtNtB6_6traits10TrieHinter14hint_trie_node
FNDA:0,_RNvXs_NtCs3lisCNf5bLP_8kona_mpt4noopNtB4_14NoopTrieHinterNtNtB6_6traits10TrieHinter18hint_account_proof
FNDA:0,_RNvXs_NtCs3lisCNf5bLP_8kona_mpt4noopNtB4_14NoopTrieHinterNtNtB6_6traits10TrieHinter18hint_storage_proof
FNDA:0,_RNvXs_NtCs3lisCNf5bLP_8kona_mpt4noopNtB4_14NoopTrieHinterNtNtB6_6traits10TrieHinter22hint_execution_witness
FNF:5
FNH:4
DA:16,0
DA:17,0
DA:18,0
DA:28,5
DA:29,5
DA:30,5
DA:32,535
DA:33,535
DA:34,535
DA:36,2874
DA:37,2874
DA:38,2874
DA:39,2874
DA:40,2874
DA:41,2874
DA:42,2874
DA:43,2874
DA:45,8
DA:46,8
DA:47,8
DA:48,8
DA:49,8
DA:50,8
DA:51,8
BRF:0
BRH:0
LF:24
LH:21
end_of_record
SF:/Users/andreasbigger/kona/crates/proof/mpt/src/test_util.rs
FN:50,_RNCNCNCNvNtCs3lisCNf5bLP_8kona_mpt9test_util32get_live_derivable_receipts_list0s0_00B9_
FN:30,_RNCNCNvNtCs3lisCNf5bLP_8kona_mpt9test_util32get_live_derivable_receipts_list00B7_
FN:79,_RNCNCNvNtCs3lisCNf5bLP_8kona_mpt9test_util32get_live_derivable_receipts_list0s2_0B7_
FN:35,_RNCNCNvNtCs3lisCNf5bLP_8kona_mpt9test_util32get_live_derivable_receipts_list0s_0B7_
FN:100,_RNCNCNvNtCs3lisCNf5bLP_8kona_mpt9test_util36get_live_derivable_transactions_list00B7_
FN:120,_RNCNCNvNtCs3lisCNf5bLP_8kona_mpt9test_util36get_live_derivable_transactions_list0s0_0B7_
FN:20,_RNCNvNtCs3lisCNf5bLP_8kona_mpt9test_util32get_live_derivable_receipts_list0B5_
FN:90,_RNCNvNtCs3lisCNf5bLP_8kona_mpt9test_util36get_live_derivable_transactions_list0B5_
FN:68,_RNCNCNvNtCs3lisCNf5bLP_8kona_mpt9test_util32get_live_derivable_receipts_list0s1_0B7_
FN:109,_RNCNCNvNtCs3lisCNf5bLP_8kona_mpt9test_util36get_live_derivable_transactions_list0s_0B7_
FN:152,_RNCNvXs_NtCs3lisCNf5bLP_8kona_mpt9test_utilNtB6_16TrieNodeProviderNtNtB8_6traits12TrieProvider17trie_node_by_hash0B8_
FN:135,_RNvMNtCs3lisCNf5bLP_8kona_mpt9test_utilNtB2_16TrieNodeProvider3new
FN:19,_RNvNtCs3lisCNf5bLP_8kona_mpt9test_util32get_live_derivable_receipts_list
FN:89,_RNvNtCs3lisCNf5bLP_8kona_mpt9test_util36get_live_derivable_transactions_list
FN:143,_RNvXs_NtCs3lisCNf5bLP_8kona_mpt9test_utilNtB4_16TrieNodeProviderNtNtB6_6traits12TrieProvider17trie_node_by_hash
FN:40,_RNCNCNvNtCs3lisCNf5bLP_8kona_mpt9test_util32get_live_derivable_receipts_list0s0_0B7_
FNDA:0,_RNCNCNCNvNtCs3lisCNf5bLP_8kona_mpt9test_util32get_live_derivable_receipts_list0s0_00B9_
FNDA:0,_RNCNCNvNtCs3lisCNf5bLP_8kona_mpt9test_util32get_live_derivable_receipts_list00B7_
FNDA:0,_RNCNCNvNtCs3lisCNf5bLP_8kona_mpt9test_util32get_live_derivable_receipts_list0s2_0B7_
FNDA:0,_RNCNCNvNtCs3lisCNf5bLP_8kona_mpt9test_util32get_live_derivable_receipts_list0s_0B7_
FNDA:0,_RNCNCNvNtCs3lisCNf5bLP_8kona_mpt9test_util36get_live_derivable_transactions_list00B7_
FNDA:0,_RNCNCNvNtCs3lisCNf5bLP_8kona_mpt9test_util36get_live_derivable_transactions_list0s0_0B7_
FNDA:0,_RNCNvNtCs3lisCNf5bLP_8kona_mpt9test_util32get_live_derivable_receipts_list0B5_
FNDA:0,_RNCNvNtCs3lisCNf5bLP_8kona_mpt9test_util36get_live_derivable_transactions_list0B5_
FNDA:0,_RNCNCNvNtCs3lisCNf5bLP_8kona_mpt9test_util32get_live_derivable_receipts_list0s1_0B7_
FNDA:0,_RNCNCNvNtCs3lisCNf5bLP_8kona_mpt9test_util36get_live_derivable_transactions_list0s_0B7_
FNDA:0,_RNCNvXs_NtCs3lisCNf5bLP_8kona_mpt9test_utilNtB6_16TrieNodeProviderNtNtB8_6traits12TrieProvider17trie_node_by_hash0B8_
FNDA:2,_RNvMNtCs3lisCNf5bLP_8kona_mpt9test_utilNtB2_16TrieNodeProvider3new
FNDA:0,_RNvNtCs3lisCNf5bLP_8kona_mpt9test_util32get_live_derivable_receipts_list
FNDA:0,_RNvNtCs3lisCNf5bLP_8kona_mpt9test_util36get_live_derivable_transactions_list
FNDA:9,_RNvXs_NtCs3lisCNf5bLP_8kona_mpt9test_utilNtB4_16TrieNodeProviderNtNtB6_6traits12TrieProvider17trie_node_by_hash
FNDA:0,_RNCNCNvNtCs3lisCNf5bLP_8kona_mpt9test_util32get_live_derivable_receipts_list0s0_0B7_
FNF:16
FNH:2
DA:19,0
DA:20,0
DA:21,0
DA:22,0
DA:23,0
DA:24,0
DA:25,0
DA:26,0
DA:27,0
DA:28,0
DA:29,0
DA:30,0
DA:31,0
DA:32,0
DA:33,0
DA:34,0
DA:35,0
DA:36,0
DA:38,0
DA:39,0
DA:40,0
DA:41,0
DA:42,0
DA:43,0
DA:44,0
DA:45,0
DA:46,0
DA:47,0
DA:48,0
DA:49,0
DA:50,0
DA:51,0
DA:52,0
DA:53,0
DA:54,0
DA:55,0
DA:56,0
DA:57,0
DA:58,0
DA:59,0
DA:60,0
DA:61,0
DA:63,0
DA:64,0
DA:65,0
DA:66,0
DA:67,0
DA:68,0
DA:69,0
DA:70,0
DA:71,0
DA:72,0
DA:73,0
DA:74,0
DA:77,0
DA:78,0
DA:79,0
DA:80,0
DA:81,0
DA:82,0
DA:83,0
DA:84,0
DA:85,0
DA:86,0
DA:89,0
DA:90,0
DA:91,0
DA:92,0
DA:93,0
DA:94,0
DA:95,0
DA:96,0
DA:97,0
DA:98,0
DA:99,0
DA:100,0
DA:101,0
DA:103,0
DA:104,0
DA:106,0
DA:107,0
DA:108,0
DA:109,0
DA:110,0
DA:111,0
DA:112,0
DA:113,0
DA:114,0
DA:115,0
DA:118,0
DA:119,0
DA:120,0
DA:121,0
DA:122,0
DA:123,0
DA:124,0
DA:125,0
DA:126,0
DA:127,0
DA:135,2
DA:136,2
DA:137,2
DA:143,9
DA:144,9
DA:145,9
DA:146,9
DA:147,9
DA:148,9
DA:149,9
DA:150,9
DA:151,9
DA:152,9
DA:153,9
BRF:0
BRH:0
LF:130
LH:14
end_of_record
SF:/Users/andreasbigger/kona/crates/proof/mpt/src/util.rs
FN:8,_RINvNtCsiRI8oMBxfZX_8kona_mpt4util25ordered_trie_with_encoderNtNtCsgKRRzl9x21L_16alloy_primitives6bytes_5BytesNCNvMNtNtCs89knhh6EE53_13kona_executor7builder8assembleINtNtB1R_4core18StatelessL2BuilderNtNtB1T_10test_utils20DiskTrieNodeProviderNtNtB4_4noop14NoopTrieHinterNtCs2t3x9hha69z_12alloy_op_evm12OpEvmFactoryE10seal_block0EB1T_
FN:8,_RINvNtCsiRI8oMBxfZX_8kona_mpt4util25ordered_trie_with_encoderNtNtNtCs2OUQ25vnln_18op_alloy_consensus7receipt8envelope17OpReceiptEnvelopeNCNvMNtNtCs89knhh6EE53_13kona_executor7builder8assembleINtNtB2h_4core18StatelessL2BuilderNtNtB2j_10test_utils20DiskTrieNodeProviderNtNtB4_4noop14NoopTrieHinterNtCs2t3x9hha69z_12alloy_op_evm12OpEvmFactoryE21compute_receipts_roots0_0EB2j_
FN:8,_RINvNtCsiRI8oMBxfZX_8kona_mpt4util25ordered_trie_with_encoderNtNtNtCs2OUQ25vnln_18op_alloy_consensus7receipt8envelope17OpReceiptEnvelopeNCNvMNtNtCs89knhh6EE53_13kona_executor7builder8assembleINtNtB2h_4core18StatelessL2BuilderNtNtB2j_10test_utils20DiskTrieNodeProviderNtNtB4_4noop14NoopTrieHinterNtCs2t3x9hha69z_12alloy_op_evm12OpEvmFactoryE21compute_receipts_roots_0EB2j_
FN:18,_RNCINvNtCsiRI8oMBxfZX_8kona_mpt4util25ordered_trie_with_encoderNtNtCsgKRRzl9x21L_16alloy_primitives6bytes_5BytesNCNvMNtNtCs89knhh6EE53_13kona_executor7builder8assembleINtNtB1T_4core18StatelessL2BuilderNtNtB1V_10test_utils20DiskTrieNodeProviderNtNtB6_4noop14NoopTrieHinterNtCs2t3x9hha69z_12alloy_op_evm12OpEvmFactoryE10seal_block0E0B1V_
FN:18,_RNCINvNtCsiRI8oMBxfZX_8kona_mpt4util25ordered_trie_with_encoderNtNtNtCs2OUQ25vnln_18op_alloy_consensus7receipt8envelope17OpReceiptEnvelopeNCNvMNtNtCs89knhh6EE53_13kona_executor7builder8assembleINtNtB2j_4core18StatelessL2BuilderNtNtB2l_10test_utils20DiskTrieNodeProviderNtNtB6_4noop14NoopTrieHinterNtCs2t3x9hha69z_12alloy_op_evm12OpEvmFactoryE21compute_receipts_roots0_0E0B2l_
FN:18,_RNCINvNtCsiRI8oMBxfZX_8kona_mpt4util25ordered_trie_with_encoderNtNtNtCs2OUQ25vnln_18op_alloy_consensus7receipt8envelope17OpReceiptEnvelopeNCNvMNtNtCs89knhh6EE53_13kona_executor7builder8assembleINtNtB2j_4core18StatelessL2BuilderNtNtB2l_10test_utils20DiskTrieNodeProviderNtNtB6_4noop14NoopTrieHinterNtCs2t3x9hha69z_12alloy_op_evm12OpEvmFactoryE21compute_receipts_roots_0E0B2l_
FN:8,_RINvNtCsiRI8oMBxfZX_8kona_mpt4util25ordered_trie_with_encoderppEB4_
FN:18,_RNCINvNtCsiRI8oMBxfZX_8kona_mpt4util25ordered_trie_with_encoderppE0B6_
FN:43,_RNvNtCsiRI8oMBxfZX_8kona_mpt4util20adjust_index_for_rlp
FN:87,_RNvNtCsiRI8oMBxfZX_8kona_mpt4util22unpack_path_to_nibbles
FN:62,_RNvNtCsiRI8oMBxfZX_8kona_mpt4util23rlp_list_element_length
FN:18,_RNCINvNtCs3lisCNf5bLP_8kona_mpt4util25ordered_trie_with_encoderINtNtNtCs6eM2O2TNYBr_15alloy_consensus11transaction8envelope18EthereumTxEnvelopeNtNtB14_7eip484416TxEip4844VariantENCNCNvNtB6_9test_util36get_live_derivable_transactions_list0s_0E0B6_
FN:18,_RNCINvNtCs3lisCNf5bLP_8kona_mpt4util25ordered_trie_with_encoderNtNtNtCs6eM2O2TNYBr_15alloy_consensus7receipt8envelope15ReceiptEnvelopeNCNCNvNtB6_9test_util32get_live_derivable_receipts_list0s1_0E0B6_
FN:18,_RNCINvNtCs3lisCNf5bLP_8kona_mpt4util25ordered_trie_with_encoderReNCNvNtNtB6_11list_walker4tests_16test_list_walker0E0B6_
FN:18,_RNCINvNtCs3lisCNf5bLP_8kona_mpt4util25ordered_trie_with_encoderReNCNvNtNtB6_4node4tests_30test_retrieve_from_trie_simple0E0B6_
FN:8,_RINvNtCs3lisCNf5bLP_8kona_mpt4util25ordered_trie_with_encoderINtNtNtCs6eM2O2TNYBr_15alloy_consensus11transaction8envelope18EthereumTxEnvelopeNtNtB12_7eip484416TxEip4844VariantENCNCNvNtB4_9test_util36get_live_derivable_transactions_list0s_0EB4_
FN:8,_RINvNtCs3lisCNf5bLP_8kona_mpt4util25ordered_trie_with_encoderNtNtNtCs6eM2O2TNYBr_15alloy_consensus7receipt8envelope15ReceiptEnvelopeNCNCNvNtB4_9test_util32get_live_derivable_receipts_list0s1_0EB4_
FN:8,_RINvNtCs3lisCNf5bLP_8kona_mpt4util25ordered_trie_with_encoderReNCNvNtNtB4_11list_walker4tests_16test_list_walker0EB4_
FN:8,_RINvNtCs3lisCNf5bLP_8kona_mpt4util25ordered_trie_with_encoderReNCNvNtNtB4_4node4tests_30test_retrieve_from_trie_simple0EB4_
FN:43,_RNvNtCs3lisCNf5bLP_8kona_mpt4util20adjust_index_for_rlp
FN:87,_RNvNtCs3lisCNf5bLP_8kona_mpt4util22unpack_path_to_nibbles
FN:62,_RNvNtCs3lisCNf5bLP_8kona_mpt4util23rlp_list_element_length
FNDA:8,_RINvNtCsiRI8oMBxfZX_8kona_mpt4util25ordered_trie_with_encoderNtNtCsgKRRzl9x21L_16alloy_primitives6bytes_5BytesNCNvMNtNtCs89knhh6EE53_13kona_executor7builder8assembleINtNtB1R_4core18StatelessL2BuilderNtNtB1T_10test_utils20DiskTrieNodeProviderNtNtB4_4noop14NoopTrieHinterNtCs2t3x9hha69z_12alloy_op_evm12OpEvmFactoryE10seal_block0EB1T_
FNDA:8,_RINvNtCsiRI8oMBxfZX_8kona_mpt4util25ordered_trie_with_encoderNtNtNtCs2OUQ25vnln_18op_alloy_consensus7receipt8envelope17OpReceiptEnvelopeNCNvMNtNtCs89knhh6EE53_13kona_executor7builder8assembleINtNtB2h_4core18StatelessL2BuilderNtNtB2j_10test_utils20DiskTrieNodeProviderNtNtB4_4noop14NoopTrieHinterNtCs2t3x9hha69z_12alloy_op_evm12OpEvmFactoryE21compute_receipts_roots0_0EB2j_
FNDA:0,_RINvNtCsiRI8oMBxfZX_8kona_mpt4util25ordered_trie_with_encoderNtNtNtCs2OUQ25vnln_18op_alloy_consensus7receipt8envelope17OpReceiptEnvelopeNCNvMNtNtCs89knhh6EE53_13kona_executor7builder8assembleINtNtB2h_4core18StatelessL2BuilderNtNtB2j_10test_utils20DiskTrieNodeProviderNtNtB4_4noop14NoopTrieHinterNtCs2t3x9hha69z_12alloy_op_evm12OpEvmFactoryE21compute_receipts_roots_0EB2j_
FNDA:188,_RNCINvNtCsiRI8oMBxfZX_8kona_mpt4util25ordered_trie_with_encoderNtNtCsgKRRzl9x21L_16alloy_primitives6bytes_5BytesNCNvMNtNtCs89knhh6EE53_13kona_executor7builder8assembleINtNtB1T_4core18StatelessL2BuilderNtNtB1V_10test_utils20DiskTrieNodeProviderNtNtB6_4noop14NoopTrieHinterNtCs2t3x9hha69z_12alloy_op_evm12OpEvmFactoryE10seal_block0E0B1V_
FNDA:188,_RNCINvNtCsiRI8oMBxfZX_8kona_mpt4util25ordered_trie_with_encoderNtNtNtCs2OUQ25vnln_18op_alloy_consensus7receipt8envelope17OpReceiptEnvelopeNCNvMNtNtCs89knhh6EE53_13kona_executor7builder8assembleINtNtB2j_4core18StatelessL2BuilderNtNtB2l_10test_utils20DiskTrieNodeProviderNtNtB6_4noop14NoopTrieHinterNtCs2t3x9hha69z_12alloy_op_evm12OpEvmFactoryE21compute_receipts_roots0_0E0B2l_
FNDA:0,_RNCINvNtCsiRI8oMBxfZX_8kona_mpt4util25ordered_trie_with_encoderNtNtNtCs2OUQ25vnln_18op_alloy_consensus7receipt8envelope17OpReceiptEnvelopeNCNvMNtNtCs89knhh6EE53_13kona_executor7builder8assembleINtNtB2j_4core18StatelessL2BuilderNtNtB2l_10test_utils20DiskTrieNodeProviderNtNtB6_4noop14NoopTrieHinterNtCs2t3x9hha69z_12alloy_op_evm12OpEvmFactoryE21compute_receipts_roots_0E0B2l_
FNDA:0,_RINvNtCsiRI8oMBxfZX_8kona_mpt4util25ordered_trie_with_encoderppEB4_
FNDA:0,_RNCINvNtCsiRI8oMBxfZX_8kona_mpt4util25ordered_trie_with_encoderppE0B6_
FNDA:752,_RNvNtCsiRI8oMBxfZX_8kona_mpt4util20adjust_index_for_rlp
FNDA:2681,_RNvNtCsiRI8oMBxfZX_8kona_mpt4util22unpack_path_to_nibbles
FNDA:14514,_RNvNtCsiRI8oMBxfZX_8kona_mpt4util23rlp_list_element_length
FNDA:0,_RNCINvNtCs3lisCNf5bLP_8kona_mpt4util25ordered_trie_with_encoderINtNtNtCs6eM2O2TNYBr_15alloy_consensus11transaction8envelope18EthereumTxEnvelopeNtNtB14_7eip484416TxEip4844VariantENCNCNvNtB6_9test_util36get_live_derivable_transactions_list0s_0E0B6_
FNDA:0,_RNCINvNtCs3lisCNf5bLP_8kona_mpt4util25ordered_trie_with_encoderNtNtNtCs6eM2O2TNYBr_15alloy_consensus7receipt8envelope15ReceiptEnvelopeNCNCNvNtB6_9test_util32get_live_derivable_receipts_list0s1_0E0B6_
FNDA:3,_RNCINvNtCs3lisCNf5bLP_8kona_mpt4util25ordered_trie_with_encoderReNCNvNtNtB6_11list_walker4tests_16test_list_walker0E0B6_
FNDA:5,_RNCINvNtCs3lisCNf5bLP_8kona_mpt4util25ordered_trie_with_encoderReNCNvNtNtB6_4node4tests_30test_retrieve_from_trie_simple0E0B6_
FNDA:0,_RINvNtCs3lisCNf5bLP_8kona_mpt4util25ordered_trie_with_encoderINtNtNtCs6eM2O2TNYBr_15alloy_consensus11transaction8envelope18EthereumTxEnvelopeNtNtB12_7eip484416TxEip4844VariantENCNCNvNtB4_9test_util36get_live_derivable_transactions_list0s_0EB4_
FNDA:0,_RINvNtCs3lisCNf5bLP_8kona_mpt4util25ordered_trie_with_encoderNtNtNtCs6eM2O2TNYBr_15alloy_consensus7receipt8envelope15ReceiptEnvelopeNCNCNvNtB4_9test_util32get_live_derivable_receipts_list0s1_0EB4_
FNDA:1,_RINvNtCs3lisCNf5bLP_8kona_mpt4util25ordered_trie_with_encoderReNCNvNtNtB4_11list_walker4tests_16test_list_walker0EB4_
FNDA:1,_RINvNtCs3lisCNf5bLP_8kona_mpt4util25ordered_trie_with_encoderReNCNvNtNtB4_4node4tests_30test_retrieve_from_trie_simple0EB4_
FNDA:16,_RNvNtCs3lisCNf5bLP_8kona_mpt4util20adjust_index_for_rlp
FNDA:12,_RNvNtCs3lisCNf5bLP_8kona_mpt4util22unpack_path_to_nibbles
FNDA:17,_RNvNtCs3lisCNf5bLP_8kona_mpt4util23rlp_list_element_length
FNF:5
FNH:5
DA:8,18
DA:9,18
DA:10,18
DA:11,18
DA:12,18
DA:13,18
DA:14,18
DA:15,18
DA:16,18
DA:17,18
DA:18,384
DA:19,384
DA:20,384
DA:21,384
DA:22,384
DA:23,384
DA:24,18
DA:25,18
DA:26,18
DA:27,384
DA:28,384
DA:29,384
DA:30,384
DA:31,384
DA:32,384
DA:33,384
DA:34,384
DA:35,384
DA:36,384
DA:37,384
DA:39,18
DA:40,18
DA:43,768
DA:44,768
DA:45,0
DA:46,768
DA:47,36
DA:49,732
DA:51,768
DA:62,14531
DA:63,14531
DA:64,14531
DA:65,0
DA:66,14531
DA:67,14531
DA:68,14531
DA:69,14531
DA:70,221163
DA:71,206632
DA:72,206632
DA:73,206632
DA:75,14531
DA:76,14531
DA:87,2693
DA:88,2693
DA:89,2693
DA:90,2693
BRF:0
BRH:0
LF:59
LH:57
end_of_record
SF:/Users/andreasbigger/kona/crates/proof/preimage/src/hint.rs
FN:113,_RINvXs7_NtCsbcJAgMR32cv_13kona_preimage4hintINtB6_10HintReaderNtNtB8_14native_channel13NativeChannelENtNtB8_6traits16HintReaderServer9next_hintNtNtNtNtCsagClJoJoeWA_11kona_client8fpvm_evm11precompiles10test_utils20PrecompileHintRouterEB2p_
FN:75,_RNCINvXs7_NtCsbcJAgMR32cv_13kona_preimage4hintINtB8_10HintReaderNtNtBa_14native_channel13NativeChannelENtNtBa_6traits16HintReaderServer9next_hintNtNtNtNtCsagClJoJoeWA_11kona_client8fpvm_evm11precompiles10test_utils20PrecompileHintRouterE0B2r_
FN:30,_RNCNvXs3_NtCsbcJAgMR32cv_13kona_preimage4hintINtB7_10HintWriterNtNtB9_14native_channel13NativeChannelENtNtB9_6traits16HintWriterClient5write0CsagClJoJoeWA_11kona_client
FN:18,_RNvMNtCsbcJAgMR32cv_13kona_preimage4hintINtB2_10HintWriterNtNtB4_14native_channel13NativeChannelE3newCsagClJoJoeWA_11kona_client
FN:62,_RNvMs_NtCsbcJAgMR32cv_13kona_preimage4hintINtB4_10HintReaderNtNtB6_14native_channel13NativeChannelE3newCsagClJoJoeWA_11kona_client
FN:47,_RNvXs3_NtCsbcJAgMR32cv_13kona_preimage4hintINtB5_10HintWriterNtNtB7_14native_channel13NativeChannelENtNtB7_6traits16HintWriterClient5writeCsagClJoJoeWA_11kona_client
FN:113,_RINvXs7_NtCscwuARTPjPmf_13kona_preimage4hintINtB6_10HintReaderNtNtB8_14native_channel13NativeChannelENtNtB8_6traits16HintReaderServer9next_hintNtNtB6_4test10TestRouterEB8_
FN:113,_RINvXs7_NtCscwuARTPjPmf_13kona_preimage4hintINtB6_10HintReaderNtNtB8_14native_channel13NativeChannelENtNtB8_6traits16HintReaderServer9next_hintNtNtB6_4test14TestFailRouterEB8_
FN:75,_RNCINvXs7_NtCscwuARTPjPmf_13kona_preimage4hintINtB8_10HintReaderNtNtBa_14native_channel13NativeChannelENtNtBa_6traits16HintReaderServer9next_hintNtNtB8_4test10TestRouterE0Ba_
FN:75,_RNCINvXs7_NtCscwuARTPjPmf_13kona_preimage4hintINtB8_10HintReaderNtNtBa_14native_channel13NativeChannelENtNtBa_6traits16HintReaderServer9next_hintNtNtB8_4test14TestFailRouterE0Ba_
FN:30,_RNCNvXs3_NtCscwuARTPjPmf_13kona_preimage4hintINtB7_10HintWriterNtNtB9_14native_channel13NativeChannelENtNtB9_6traits16HintWriterClient5write0B9_
FN:18,_RNvMNtCscwuARTPjPmf_13kona_preimage4hintINtB2_10HintWriterNtNtB4_14native_channel13NativeChannelE3newB4_
FN:62,_RNvMs_NtCscwuARTPjPmf_13kona_preimage4hintINtB4_10HintReaderNtNtB6_14native_channel13NativeChannelE3newB6_
FN:47,_RNvXs3_NtCscwuARTPjPmf_13kona_preimage4hintINtB5_10HintWriterNtNtB7_14native_channel13NativeChannelENtNtB7_6traits16HintWriterClient5writeB7_
FN:165,_RNCNCNvNtNtCscwuARTPjPmf_13kona_preimage4hint4tests_24test_unblock_on_bad_utf80s1_0B9_
FN:191,_RNCNCNvNtNtCscwuARTPjPmf_13kona_preimage4hint4tests_29test_unblock_on_fetch_failure0s1_0B9_
FN:145,_RNCNvNtNtCscwuARTPjPmf_13kona_preimage4hint4tests_24test_unblock_on_bad_utf80B7_
FN:195,_RNCNvNtNtCscwuARTPjPmf_13kona_preimage4hint4tests_25test_hint_client_and_host0B7_
FN:174,_RNCNvNtNtCscwuARTPjPmf_13kona_preimage4hint4tests_29test_unblock_on_fetch_failure0B7_
FN:129,_RNCNvXNtNtCscwuARTPjPmf_13kona_preimage4hint4testNtB4_10TestRouterNtNtB8_6traits10HintRouter10route_hint0B8_
FN:139,_RNCNvXs_NtNtCscwuARTPjPmf_13kona_preimage4hint4testNtB6_14TestFailRouterNtNtBa_6traits10HintRouter10route_hint0Ba_
FN:145,_RNvNtNtCscwuARTPjPmf_13kona_preimage4hint4tests_24test_unblock_on_bad_utf8
FN:195,_RNvNtNtCscwuARTPjPmf_13kona_preimage4hint4tests_25test_hint_client_and_host
FN:174,_RNvNtNtCscwuARTPjPmf_13kona_preimage4hint4tests_29test_unblock_on_fetch_failure
FN:132,_RNvXNtNtCscwuARTPjPmf_13kona_preimage4hint4testNtB2_10TestRouterNtNtB6_6traits10HintRouter10route_hint
FN:141,_RNvXs_NtNtCscwuARTPjPmf_13kona_preimage4hint4testNtB4_14TestFailRouterNtNtB8_6traits10HintRouter10route_hint
FN:150,_RNCNCNvNtNtCscwuARTPjPmf_13kona_preimage4hint4tests_24test_unblock_on_bad_utf800B9_
FN:156,_RNCNCNvNtNtCscwuARTPjPmf_13kona_preimage4hint4tests_24test_unblock_on_bad_utf80s_0B9_
FN:201,_RNCNCNvNtNtCscwuARTPjPmf_13kona_preimage4hint4tests_25test_hint_client_and_host00B9_
FN:208,_RNCNCNvNtNtCscwuARTPjPmf_13kona_preimage4hint4tests_25test_hint_client_and_host0s_0B9_
FN:179,_RNCNCNvNtNtCscwuARTPjPmf_13kona_preimage4hint4tests_29test_unblock_on_fetch_failure00B9_
FN:184,_RNCNCNvNtNtCscwuARTPjPmf_13kona_preimage4hint4tests_29test_unblock_on_fetch_failure0s_0B9_
FNDA:45,_RINvXs7_NtCsbcJAgMR32cv_13kona_preimage4hintINtB6_10HintReaderNtNtB8_14native_channel13NativeChannelENtNtB8_6traits16HintReaderServer9next_hintNtNtNtNtCsagClJoJoeWA_11kona_client8fpvm_evm11precompiles10test_utils20PrecompileHintRouterEB2p_
FNDA:45,_RNCINvXs7_NtCsbcJAgMR32cv_13kona_preimage4hintINtB8_10HintReaderNtNtBa_14native_channel13NativeChannelENtNtBa_6traits16HintReaderServer9next_hintNtNtNtNtCsagClJoJoeWA_11kona_client8fpvm_evm11precompiles10test_utils20PrecompileHintRouterE0B2r_
FNDA:11,_RNCNvXs3_NtCsbcJAgMR32cv_13kona_preimage4hintINtB7_10HintWriterNtNtB9_14native_channel13NativeChannelENtNtB9_6traits16HintWriterClient5write0CsagClJoJoeWA_11kona_client
FNDA:34,_RNvMNtCsbcJAgMR32cv_13kona_preimage4hintINtB2_10HintWriterNtNtB4_14native_channel13NativeChannelE3newCsagClJoJoeWA_11kona_client
FNDA:34,_RNvMs_NtCsbcJAgMR32cv_13kona_preimage4hintINtB4_10HintReaderNtNtB6_14native_channel13NativeChannelE3newCsagClJoJoeWA_11kona_client
FNDA:11,_RNvXs3_NtCsbcJAgMR32cv_13kona_preimage4hintINtB5_10HintWriterNtNtB7_14native_channel13NativeChannelENtNtB7_6traits16HintWriterClient5writeCsagClJoJoeWA_11kona_client
FNDA:2,_RINvXs7_NtCscwuARTPjPmf_13kona_preimage4hintINtB6_10HintReaderNtNtB8_14native_channel13NativeChannelENtNtB8_6traits16HintReaderServer9next_hintNtNtB6_4test10TestRouterEB8_
FNDA:1,_RINvXs7_NtCscwuARTPjPmf_13kona_preimage4hintINtB6_10HintReaderNtNtB8_14native_channel13NativeChannelENtNtB8_6traits16HintReaderServer9next_hintNtNtB6_4test14TestFailRouterEB8_
FNDA:2,_RNCINvXs7_NtCscwuARTPjPmf_13kona_preimage4hintINtB8_10HintReaderNtNtBa_14native_channel13NativeChannelENtNtBa_6traits16HintReaderServer9next_hintNtNtB8_4test10TestRouterE0Ba_
FNDA:1,_RNCINvXs7_NtCscwuARTPjPmf_13kona_preimage4hintINtB8_10HintReaderNtNtBa_14native_channel13NativeChannelENtNtBa_6traits16HintReaderServer9next_hintNtNtB8_4test14TestFailRouterE0Ba_
FNDA:3,_RNCNvXs3_NtCscwuARTPjPmf_13kona_preimage4hintINtB7_10HintWriterNtNtB9_14native_channel13NativeChannelENtNtB9_6traits16HintWriterClient5write0B9_
FNDA:3,_RNvMNtCscwuARTPjPmf_13kona_preimage4hintINtB2_10HintWriterNtNtB4_14native_channel13NativeChannelE3newB4_
FNDA:3,_RNvMs_NtCscwuARTPjPmf_13kona_preimage4hintINtB4_10HintReaderNtNtB6_14native_channel13NativeChannelE3newB6_
FNDA:3,_RNvXs3_NtCscwuARTPjPmf_13kona_preimage4hintINtB5_10HintWriterNtNtB7_14native_channel13NativeChannelENtNtB7_6traits16HintWriterClient5writeB7_
FNDA:1,_RNCNCNvNtNtCscwuARTPjPmf_13kona_preimage4hint4tests_24test_unblock_on_bad_utf80s1_0B9_
FNDA:1,_RNCNCNvNtNtCscwuARTPjPmf_13kona_preimage4hint4tests_29test_unblock_on_fetch_failure0s1_0B9_
FNDA:1,_RNCNvNtNtCscwuARTPjPmf_13kona_preimage4hint4tests_24test_unblock_on_bad_utf80B7_
FNDA:1,_RNCNvNtNtCscwuARTPjPmf_13kona_preimage4hint4tests_25test_hint_client_and_host0B7_
FNDA:1,_RNCNvNtNtCscwuARTPjPmf_13kona_preimage4hint4tests_29test_unblock_on_fetch_failure0B7_
FNDA:1,_RNCNvXNtNtCscwuARTPjPmf_13kona_preimage4hint4testNtB4_10TestRouterNtNtB8_6traits10HintRouter10route_hint0B8_
FNDA:1,_RNCNvXs_NtNtCscwuARTPjPmf_13kona_preimage4hint4testNtB6_14TestFailRouterNtNtBa_6traits10HintRouter10route_hint0Ba_
FNDA:1,_RNvNtNtCscwuARTPjPmf_13kona_preimage4hint4tests_24test_unblock_on_bad_utf8
FNDA:1,_RNvNtNtCscwuARTPjPmf_13kona_preimage4hint4tests_25test_hint_client_and_host
FNDA:1,_RNvNtNtCscwuARTPjPmf_13kona_preimage4hint4tests_29test_unblock_on_fetch_failure
FNDA:1,_RNvXNtNtCscwuARTPjPmf_13kona_preimage4hint4testNtB2_10TestRouterNtNtB6_6traits10HintRouter10route_hint
FNDA:1,_RNvXs_NtNtCscwuARTPjPmf_13kona_preimage4hint4testNtB4_14TestFailRouterNtNtB8_6traits10HintRouter10route_hint
FNDA:1,_RNCNCNvNtNtCscwuARTPjPmf_13kona_preimage4hint4tests_24test_unblock_on_bad_utf800B9_
FNDA:1,_RNCNCNvNtNtCscwuARTPjPmf_13kona_preimage4hint4tests_24test_unblock_on_bad_utf80s_0B9_
FNDA:1,_RNCNCNvNtNtCscwuARTPjPmf_13kona_preimage4hint4tests_25test_hint_client_and_host00B9_
FNDA:1,_RNCNCNvNtNtCscwuARTPjPmf_13kona_preimage4hint4tests_25test_hint_client_and_host0s_0B9_
FNDA:1,_RNCNCNvNtNtCscwuARTPjPmf_13kona_preimage4hint4tests_29test_unblock_on_fetch_failure00B9_
FNDA:1,_RNCNCNvNtNtCscwuARTPjPmf_13kona_preimage4hint4tests_29test_unblock_on_fetch_failure0s_0B9_
FNF:24
FNH:24
DA:18,37
DA:19,37
DA:20,37
DA:30,14
DA:31,14
DA:35,14
DA:36,14
DA:38,14
DA:41,14
DA:42,14
DA:44,14
DA:46,14
DA:47,28
DA:62,37
DA:63,37
DA:64,37
DA:75,48
DA:77,48
DA:78,48
DA:79,14
DA:80,14
DA:81,14
DA:82,14
DA:83,14
DA:84,14
DA:85,13
DA:86,1
DA:87,1
DA:88,1
DA:90,1
DA:91,1
DA:92,1
DA:96,13
DA:99,13
DA:101,1
DA:103,1
DA:104,1
DA:105,12
DA:106,12
DA:107,12
DA:108,12
DA:110,12
DA:112,12
DA:113,96
DA:129,1
DA:130,1
DA:131,1
DA:132,2
DA:139,1
DA:140,1
DA:141,2
DA:145,1
DA:146,1
DA:147,1
DA:148,1
DA:149,1
DA:150,1
DA:151,1
DA:152,1
DA:153,1
DA:154,1
DA:155,1
DA:156,1
DA:157,1
DA:158,1
DA:159,1
DA:160,1
DA:161,1
DA:162,1
DA:163,1
DA:164,1
DA:165,1
DA:166,1
DA:167,1
DA:168,1
DA:169,1
DA:170,1
DA:171,1
DA:174,1
DA:175,1
DA:176,1
DA:177,1
DA:178,1
DA:179,1
DA:180,1
DA:181,1
DA:182,1
DA:183,1
DA:184,1
DA:185,1
DA:186,1
DA:187,1
DA:188,1
DA:189,1
DA:190,1
DA:191,1
DA:192,1
DA:195,1
DA:196,1
DA:197,1
DA:198,1
DA:199,1
DA:200,1
DA:201,1
DA:202,1
DA:203,1
DA:204,1
DA:205,1
DA:206,1
DA:207,1
DA:208,1
DA:209,1
DA:210,1
DA:211,1
DA:212,1
DA:213,1
DA:214,1
DA:215,1
DA:216,1
DA:217,1
DA:218,1
DA:219,1
DA:220,1
DA:221,1
DA:222,1
BRF:0
BRH:0
LF:207
LH:203
end_of_record
SF:/Users/andreasbigger/kona/crates/proof/preimage/src/key.rs
FN:100,_RNvMs_NtCsbcJAgMR32cv_13kona_preimage3keyNtB4_11PreimageKey13new_keccak256
FN:107,_RNvMs_NtCsbcJAgMR32cv_13kona_preimage3keyNtB4_11PreimageKey14new_precompile
FN:84,_RNvMs_NtCsbcJAgMR32cv_13kona_preimage3keyNtB4_11PreimageKey3new
FN:119,_RNvMs_NtCsbcJAgMR32cv_13kona_preimage3keyNtB4_11PreimageKey8key_type
FN:124,_RNvMs_NtCsbcJAgMR32cv_13kona_preimage3keyNtB4_11PreimageKey9key_value
FN:92,_RNvMs_NtCsbcJAgMR32cv_13kona_preimage3keyNtB4_11PreimageKey9new_local
FN:47,_RNvXNtCsbcJAgMR32cv_13kona_preimage3keyNtB2_15PreimageKeyTypeINtNtCs8dmkrYGpicx_4core7convert7TryFromhE8try_from
FN:130,_RNvXs0_NtCsbcJAgMR32cv_13kona_preimage3keyAhj20_INtNtCs8dmkrYGpicx_4core7convert4FromNtB5_11PreimageKeyE4from
FN:148,_RNvXs2_NtCsbcJAgMR32cv_13kona_preimage3keyNtB5_11PreimageKeyINtNtCs8dmkrYGpicx_4core7convert7TryFromAhj20_E8try_from
FN:155,_RNvXs3_NtCsbcJAgMR32cv_13kona_preimage3keyNtB5_11PreimageKeyNtNtCs8dmkrYGpicx_4core3fmt7Display3fmt
FN:72,_RNvXsx_NtCsbcJAgMR32cv_13kona_preimage3keyNtB5_11PreimageKeyNtNtCs3ZBKHO1rOL0_4rkyv6traits7Archive7resolve
FN:139,_RNvXs1_NtCscwuARTPjPmf_13kona_preimage3keyINtNtNtCsgKRRzl9x21L_16alloy_primitives4bits5fixed10FixedBytesKj20_EINtNtCs8dmkrYGpicx_4core7convert4FromNtB5_11PreimageKeyE4from
FN:213,_RNvNtNtCscwuARTPjPmf_13kona_preimage3key4tests_18test_preimage_keys
FN:185,_RNvNtNtCscwuARTPjPmf_13kona_preimage3key4tests_23test_preimage_key_value
FN:204,_RNvNtNtCscwuARTPjPmf_13kona_preimage3key4tests_25test_preimage_key_display
FN:166,_RNvNtNtCscwuARTPjPmf_13kona_preimage3key4tests_25test_preimage_key_from_u8
FN:178,_RNvNtNtCscwuARTPjPmf_13kona_preimage3key4tests_27test_preimage_key_new_local
FN:196,_RNvNtNtCscwuARTPjPmf_13kona_preimage3key4tests_32test_preimage_key_roundtrip_b256
FN:72,_RNCNvXININtCscwuARTPjPmf_13kona_preimage3keysF_0pENtB7_19ArchivedPreimageKeyINtCsaEKUIlmExh2_9bytecheck10CheckBytespE11check_bytes0B9_
FN:72,_RNCNvXININtCscwuARTPjPmf_13kona_preimage3keysF_0pENtB7_19ArchivedPreimageKeyINtCsaEKUIlmExh2_9bytecheck10CheckBytespE11check_bytess_0B9_
FN:100,_RNvMs_NtCscwuARTPjPmf_13kona_preimage3keyNtB4_11PreimageKey13new_keccak256
FN:107,_RNvMs_NtCscwuARTPjPmf_13kona_preimage3keyNtB4_11PreimageKey14new_precompile
FN:72,_RNvXsx_NtCscwuARTPjPmf_13kona_preimage3keyNtB5_11PreimageKeyNtNtCs3ZBKHO1rOL0_4rkyv6traits7Archive7resolve
FN:84,_RNvMs_NtCscwuARTPjPmf_13kona_preimage3keyNtB4_11PreimageKey3new
FN:119,_RNvMs_NtCscwuARTPjPmf_13kona_preimage3keyNtB4_11PreimageKey8key_type
FN:124,_RNvMs_NtCscwuARTPjPmf_13kona_preimage3keyNtB4_11PreimageKey9key_value
FN:92,_RNvMs_NtCscwuARTPjPmf_13kona_preimage3keyNtB4_11PreimageKey9new_local
FN:47,_RNvXNtCscwuARTPjPmf_13kona_preimage3keyNtB2_15PreimageKeyTypeINtNtCs8dmkrYGpicx_4core7convert7TryFromhE8try_from
FN:130,_RNvXs0_NtCscwuARTPjPmf_13kona_preimage3keyAhj20_INtNtCs8dmkrYGpicx_4core7convert4FromNtB5_11PreimageKeyE4from
FN:148,_RNvXs2_NtCscwuARTPjPmf_13kona_preimage3keyNtB5_11PreimageKeyINtNtCs8dmkrYGpicx_4core7convert7TryFromAhj20_E8try_from
FN:155,_RNvXs3_NtCscwuARTPjPmf_13kona_preimage3keyNtB5_11PreimageKeyNtNtCs8dmkrYGpicx_4core3fmt7Display3fmt
FNDA:0,_RNvMs_NtCsbcJAgMR32cv_13kona_preimage3keyNtB4_11PreimageKey13new_keccak256
FNDA:0,_RNvMs_NtCsbcJAgMR32cv_13kona_preimage3keyNtB4_11PreimageKey14new_precompile
FNDA:33,_RNvMs_NtCsbcJAgMR32cv_13kona_preimage3keyNtB4_11PreimageKey3new
FNDA:0,_RNvMs_NtCsbcJAgMR32cv_13kona_preimage3keyNtB4_11PreimageKey8key_type
FNDA:0,_RNvMs_NtCsbcJAgMR32cv_13kona_preimage3keyNtB4_11PreimageKey9key_value
FNDA:0,_RNvMs_NtCsbcJAgMR32cv_13kona_preimage3keyNtB4_11PreimageKey9new_local
FNDA:11,_RNvXNtCsbcJAgMR32cv_13kona_preimage3keyNtB2_15PreimageKeyTypeINtNtCs8dmkrYGpicx_4core7convert7TryFromhE8try_from
FNDA:11,_RNvXs0_NtCsbcJAgMR32cv_13kona_preimage3keyAhj20_INtNtCs8dmkrYGpicx_4core7convert4FromNtB5_11PreimageKeyE4from
FNDA:11,_RNvXs2_NtCsbcJAgMR32cv_13kona_preimage3keyNtB5_11PreimageKeyINtNtCs8dmkrYGpicx_4core7convert7TryFromAhj20_E8try_from
FNDA:0,_RNvXs3_NtCsbcJAgMR32cv_13kona_preimage3keyNtB5_11PreimageKeyNtNtCs8dmkrYGpicx_4core3fmt7Display3fmt
FNDA:0,_RNvXsx_NtCsbcJAgMR32cv_13kona_preimage3keyNtB5_11PreimageKeyNtNtCs3ZBKHO1rOL0_4rkyv6traits7Archive7resolve
FNDA:1,_RNvXs1_NtCscwuARTPjPmf_13kona_preimage3keyINtNtNtCsgKRRzl9x21L_16alloy_primitives4bits5fixed10FixedBytesKj20_EINtNtCs8dmkrYGpicx_4core7convert4FromNtB5_11PreimageKeyE4from
FNDA:1,_RNvNtNtCscwuARTPjPmf_13kona_preimage3key4tests_18test_preimage_keys
FNDA:1,_RNvNtNtCscwuARTPjPmf_13kona_preimage3key4tests_23test_preimage_key_value
FNDA:1,_RNvNtNtCscwuARTPjPmf_13kona_preimage3key4tests_25test_preimage_key_display
FNDA:1,_RNvNtNtCscwuARTPjPmf_13kona_preimage3key4tests_25test_preimage_key_from_u8
FNDA:1,_RNvNtNtCscwuARTPjPmf_13kona_preimage3key4tests_27test_preimage_key_new_local
FNDA:1,_RNvNtNtCscwuARTPjPmf_13kona_preimage3key4tests_32test_preimage_key_roundtrip_b256
FNDA:0,_RNCNvXININtCscwuARTPjPmf_13kona_preimage3keysF_0pENtB7_19ArchivedPreimageKeyINtCsaEKUIlmExh2_9bytecheck10CheckBytespE11check_bytes0B9_
FNDA:0,_RNCNvXININtCscwuARTPjPmf_13kona_preimage3keysF_0pENtB7_19ArchivedPreimageKeyINtCsaEKUIlmExh2_9bytecheck10CheckBytespE11check_bytess_0B9_
FNDA:0,_RNvMs_NtCscwuARTPjPmf_13kona_preimage3keyNtB4_11PreimageKey13new_keccak256
FNDA:0,_RNvMs_NtCscwuARTPjPmf_13kona_preimage3keyNtB4_11PreimageKey14new_precompile
FNDA:0,_RNvXsx_NtCscwuARTPjPmf_13kona_preimage3keyNtB5_11PreimageKeyNtNtCs3ZBKHO1rOL0_4rkyv6traits7Archive7resolve
FNDA:18,_RNvMs_NtCscwuARTPjPmf_13kona_preimage3keyNtB4_11PreimageKey3new
FNDA:7,_RNvMs_NtCscwuARTPjPmf_13kona_preimage3keyNtB4_11PreimageKey8key_type
FNDA:2,_RNvMs_NtCscwuARTPjPmf_13kona_preimage3keyNtB4_11PreimageKey9key_value
FNDA:1,_RNvMs_NtCscwuARTPjPmf_13kona_preimage3keyNtB4_11PreimageKey9new_local
FNDA:13,_RNvXNtCscwuARTPjPmf_13kona_preimage3keyNtB2_15PreimageKeyTypeINtNtCs8dmkrYGpicx_4core7convert7TryFromhE8try_from
FNDA:12,_RNvXs0_NtCscwuARTPjPmf_13kona_preimage3keyAhj20_INtNtCs8dmkrYGpicx_4core7convert4FromNtB5_11PreimageKeyE4from
FNDA:5,_RNvXs2_NtCscwuARTPjPmf_13kona_preimage3keyNtB5_11PreimageKeyINtNtCs8dmkrYGpicx_4core7convert7TryFromAhj20_E8try_from
FNDA:1,_RNvXs3_NtCscwuARTPjPmf_13kona_preimage3keyNtB5_11PreimageKeyNtNtCs8dmkrYGpicx_4core3fmt7Display3fmt
FNF:18
FNH:15
DA:47,24
DA:48,24
DA:49,2
DA:50,5
DA:51,1
DA:52,1
DA:53,1
DA:54,12
DA:55,2
DA:57,22
DA:58,24
DA:72,0
DA:84,51
DA:85,51
DA:86,51
DA:87,51
DA:88,51
DA:92,1
DA:93,1
DA:94,1
DA:95,1
DA:96,1
DA:100,0
DA:101,0
DA:102,0
DA:107,0
DA:108,0
DA:109,0
DA:110,0
DA:111,0
DA:112,0
DA:113,0
DA:114,0
DA:115,0
DA:116,0
DA:119,7
DA:120,7
DA:121,7
DA:124,2
DA:125,2
DA:126,2
DA:130,23
DA:131,23
DA:132,23
DA:133,23
DA:134,23
DA:135,23
DA:139,1
DA:140,1
DA:141,1
DA:142,1
DA:148,16
DA:149,16
DA:150,16
DA:151,16
DA:155,1
DA:156,1
DA:157,1
DA:158,1
DA:166,1
DA:167,1
DA:168,1
DA:169,1
DA:170,1
DA:171,1
DA:172,1
DA:173,1
DA:174,1
DA:175,1
DA:178,1
DA:179,1
DA:180,1
DA:181,1
DA:182,1
DA:185,1
DA:186,1
DA:187,1
DA:188,1
DA:189,1
DA:190,1
DA:191,1
DA:192,1
DA:193,1
DA:196,1
DA:197,1
DA:198,1
DA:199,1
DA:200,1
DA:201,1
DA:204,1
DA:205,1
DA:206,1
DA:207,1
DA:208,1
DA:209,1
DA:210,1
DA:213,1
DA:214,1
DA:215,1
DA:216,1
DA:217,1
DA:218,1
DA:219,1
DA:220,1
DA:221,1
DA:223,7
DA:224,6
DA:225,6
DA:227,6
DA:228,6
DA:229,6
DA:230,6
DA:232,1
BRF:0
BRH:0
LF:113
LH:99
end_of_record
SF:/Users/andreasbigger/kona/crates/proof/preimage/src/native_channel.rs
FN:53,_RNCNCNvXs3_NtCsbcJAgMR32cv_13kona_preimage14native_channelNtB9_13NativeChannelNtNtBb_6traits7Channel10read_exact00Bb_
FN:46,_RNCNCNvXs3_NtCsbcJAgMR32cv_13kona_preimage14native_channelNtB9_13NativeChannelNtNtBb_6traits7Channel4read00Bb_
FN:59,_RNCNCNvXs3_NtCsbcJAgMR32cv_13kona_preimage14native_channelNtB9_13NativeChannelNtNtBb_6traits7Channel5write00Bb_
FN:52,_RNCNvXs3_NtCsbcJAgMR32cv_13kona_preimage14native_channelNtB7_13NativeChannelNtNtB9_6traits7Channel10read_exact0B9_
FN:45,_RNCNvXs3_NtCsbcJAgMR32cv_13kona_preimage14native_channelNtB7_13NativeChannelNtNtB9_6traits7Channel4read0B9_
FN:58,_RNCNvXs3_NtCsbcJAgMR32cv_13kona_preimage14native_channelNtB7_13NativeChannelNtNtB9_6traits7Channel5write0B9_
FN:23,_RNvMNtCsbcJAgMR32cv_13kona_preimage14native_channelNtB2_20BidirectionalChannel3new
FN:56,_RNvXs3_NtCsbcJAgMR32cv_13kona_preimage14native_channelNtB5_13NativeChannelNtNtB7_6traits7Channel10read_exact
FN:50,_RNvXs3_NtCsbcJAgMR32cv_13kona_preimage14native_channelNtB5_13NativeChannelNtNtB7_6traits7Channel4read
FN:61,_RNvXs3_NtCsbcJAgMR32cv_13kona_preimage14native_channelNtB5_13NativeChannelNtNtB7_6traits7Channel5write
FN:46,_RNCNCNvXs3_NtCscwuARTPjPmf_13kona_preimage14native_channelNtB9_13NativeChannelNtNtBb_6traits7Channel4read00Bb_
FN:45,_RNCNvXs3_NtCscwuARTPjPmf_13kona_preimage14native_channelNtB7_13NativeChannelNtNtB9_6traits7Channel4read0B9_
FN:50,_RNvXs3_NtCscwuARTPjPmf_13kona_preimage14native_channelNtB5_13NativeChannelNtNtB7_6traits7Channel4read
FN:53,_RNCNCNvXs3_NtCscwuARTPjPmf_13kona_preimage14native_channelNtB9_13NativeChannelNtNtBb_6traits7Channel10read_exact00Bb_
FN:59,_RNCNCNvXs3_NtCscwuARTPjPmf_13kona_preimage14native_channelNtB9_13NativeChannelNtNtBb_6traits7Channel5write00Bb_
FN:52,_RNCNvXs3_NtCscwuARTPjPmf_13kona_preimage14native_channelNtB7_13NativeChannelNtNtB9_6traits7Channel10read_exact0B9_
FN:58,_RNCNvXs3_NtCscwuARTPjPmf_13kona_preimage14native_channelNtB7_13NativeChannelNtNtB9_6traits7Channel5write0B9_
FN:23,_RNvMNtCscwuARTPjPmf_13kona_preimage14native_channelNtB2_20BidirectionalChannel3new
FN:56,_RNvXs3_NtCscwuARTPjPmf_13kona_preimage14native_channelNtB5_13NativeChannelNtNtB7_6traits7Channel10read_exact
FN:61,_RNvXs3_NtCscwuARTPjPmf_13kona_preimage14native_channelNtB5_13NativeChannelNtNtB7_6traits7Channel5write
FNDA:68,_RNCNCNvXs3_NtCsbcJAgMR32cv_13kona_preimage14native_channelNtB9_13NativeChannelNtNtBb_6traits7Channel10read_exact00Bb_
FNDA:0,_RNCNCNvXs3_NtCsbcJAgMR32cv_13kona_preimage14native_channelNtB9_13NativeChannelNtNtBb_6traits7Channel4read00Bb_
FNDA:0,_RNCNCNvXs3_NtCsbcJAgMR32cv_13kona_preimage14native_channelNtB9_13NativeChannelNtNtBb_6traits7Channel5write00Bb_
FNDA:134,_RNCNvXs3_NtCsbcJAgMR32cv_13kona_preimage14native_channelNtB7_13NativeChannelNtNtB9_6traits7Channel10read_exact0B9_
FNDA:0,_RNCNvXs3_NtCsbcJAgMR32cv_13kona_preimage14native_channelNtB7_13NativeChannelNtNtB9_6traits7Channel4read0B9_
FNDA:66,_RNCNvXs3_NtCsbcJAgMR32cv_13kona_preimage14native_channelNtB7_13NativeChannelNtNtB9_6traits7Channel5write0B9_
FNDA:68,_RNvMNtCsbcJAgMR32cv_13kona_preimage14native_channelNtB2_20BidirectionalChannel3new
FNDA:134,_RNvXs3_NtCsbcJAgMR32cv_13kona_preimage14native_channelNtB5_13NativeChannelNtNtB7_6traits7Channel10read_exact
FNDA:0,_RNvXs3_NtCsbcJAgMR32cv_13kona_preimage14native_channelNtB5_13NativeChannelNtNtB7_6traits7Channel4read
FNDA:66,_RNvXs3_NtCsbcJAgMR32cv_13kona_preimage14native_channelNtB5_13NativeChannelNtNtB7_6traits7Channel5write
FNDA:0,_RNCNCNvXs3_NtCscwuARTPjPmf_13kona_preimage14native_channelNtB9_13NativeChannelNtNtBb_6traits7Channel4read00Bb_
FNDA:0,_RNCNvXs3_NtCscwuARTPjPmf_13kona_preimage14native_channelNtB7_13NativeChannelNtNtB9_6traits7Channel4read0B9_
FNDA:0,_RNvXs3_NtCscwuARTPjPmf_13kona_preimage14native_channelNtB5_13NativeChannelNtNtB7_6traits7Channel4read
FNDA:2,_RNCNCNvXs3_NtCscwuARTPjPmf_13kona_preimage14native_channelNtB9_13NativeChannelNtNtBb_6traits7Channel10read_exact00Bb_
FNDA:0,_RNCNCNvXs3_NtCscwuARTPjPmf_13kona_preimage14native_channelNtB9_13NativeChannelNtNtBb_6traits7Channel5write00Bb_
FNDA:23,_RNCNvXs3_NtCscwuARTPjPmf_13kona_preimage14native_channelNtB7_13NativeChannelNtNtB9_6traits7Channel10read_exact0B9_
FNDA:21,_RNCNvXs3_NtCscwuARTPjPmf_13kona_preimage14native_channelNtB7_13NativeChannelNtNtB9_6traits7Channel5write0B9_
FNDA:5,_RNvMNtCscwuARTPjPmf_13kona_preimage14native_channelNtB2_20BidirectionalChannel3new
FNDA:23,_RNvXs3_NtCscwuARTPjPmf_13kona_preimage14native_channelNtB5_13NativeChannelNtNtB7_6traits7Channel10read_exact
FNDA:21,_RNvXs3_NtCscwuARTPjPmf_13kona_preimage14native_channelNtB5_13NativeChannelNtNtB7_6traits7Channel5write
FNF:10
FNH:6
DA:23,73
DA:24,73
DA:25,73
DA:26,73
DA:27,73
DA:28,73
DA:29,73
DA:30,73
DA:31,73
DA:45,0
DA:46,0
DA:47,0
DA:48,0
DA:49,0
DA:50,0
DA:52,157
DA:53,157
DA:54,87
DA:55,87
DA:56,314
DA:58,87
DA:59,87
DA:60,87
DA:61,174
BRF:0
BRH:0
LF:30
LH:21
end_of_record
SF:/Users/andreasbigger/kona/crates/proof/preimage/src/oracle.rs
FN:135,_RINvXs7_NtCsbcJAgMR32cv_13kona_preimage6oracleINtB6_12OracleServerNtNtB8_14native_channel13NativeChannelENtNtB8_6traits20PreimageOracleServer21next_preimage_requestNtNtNtNtCsagClJoJoeWA_11kona_client8fpvm_evm11precompiles10test_utils25PrecompilePreimageFetcherEB2K_
FN:117,_RNCINvXs7_NtCsbcJAgMR32cv_13kona_preimage6oracleINtB8_12OracleServerNtNtBa_14native_channel13NativeChannelENtNtBa_6traits20PreimageOracleServer21next_preimage_requestNtNtNtNtCsagClJoJoeWA_11kona_client8fpvm_evm11precompiles10test_utils25PrecompilePreimageFetcherE0B2M_
FN:26,_RNCNvMNtCsbcJAgMR32cv_13kona_preimage6oracleINtB4_12OracleReaderNtNtB6_14native_channel13NativeChannelE9write_key0CsagClJoJoeWA_11kona_client
FN:45,_RNCNvXs3_NtCsbcJAgMR32cv_13kona_preimage6oracleINtB7_12OracleReaderNtNtB9_14native_channel13NativeChannelENtNtB9_6traits20PreimageOracleClient3get0CsagClJoJoeWA_11kona_client
FN:19,_RNvMNtCsbcJAgMR32cv_13kona_preimage6oracleINtB2_12OracleReaderNtNtB4_14native_channel13NativeChannelE3newCsagClJoJoeWA_11kona_client
FN:26,_RNvMNtCsbcJAgMR32cv_13kona_preimage6oracleINtB2_12OracleReaderNtNtB4_14native_channel13NativeChannelE9write_keyCsagClJoJoeWA_11kona_client
FN:104,_RNvMs_NtCsbcJAgMR32cv_13kona_preimage6oracleINtB4_12OracleServerNtNtB6_14native_channel13NativeChannelE3newCsagClJoJoeWA_11kona_client
FN:64,_RNvXs3_NtCsbcJAgMR32cv_13kona_preimage6oracleINtB5_12OracleReaderNtNtB7_14native_channel13NativeChannelENtNtB7_6traits20PreimageOracleClient3getCsagClJoJoeWA_11kona_client
FN:135,_RINvXs7_NtCscwuARTPjPmf_13kona_preimage6oracleINtB6_12OracleServerNtNtB8_14native_channel13NativeChannelENtNtB8_6traits20PreimageOracleServer21next_preimage_requestNtNtB6_4test11TestFetcherEB8_
FN:117,_RNCINvXs7_NtCscwuARTPjPmf_13kona_preimage6oracleINtB8_12OracleServerNtNtBa_14native_channel13NativeChannelENtNtBa_6traits20PreimageOracleServer21next_preimage_requestNtNtB8_4test11TestFetcherE0Ba_
FN:26,_RNCNvMNtCscwuARTPjPmf_13kona_preimage6oracleINtB4_12OracleReaderNtNtB6_14native_channel13NativeChannelE9write_key0B6_
FN:45,_RNCNvXs3_NtCscwuARTPjPmf_13kona_preimage6oracleINtB7_12OracleReaderNtNtB9_14native_channel13NativeChannelENtNtB9_6traits20PreimageOracleClient3get0B9_
FN:68,_RNCNvXs3_NtCscwuARTPjPmf_13kona_preimage6oracleINtB7_12OracleReaderNtNtB9_14native_channel13NativeChannelENtNtB9_6traits20PreimageOracleClient9get_exact0B9_
FN:19,_RNvMNtCscwuARTPjPmf_13kona_preimage6oracleINtB2_12OracleReaderNtNtB4_14native_channel13NativeChannelE3newB4_
FN:26,_RNvMNtCscwuARTPjPmf_13kona_preimage6oracleINtB2_12OracleReaderNtNtB4_14native_channel13NativeChannelE9write_keyB4_
FN:104,_RNvMs_NtCscwuARTPjPmf_13kona_preimage6oracleINtB4_12OracleServerNtNtB6_14native_channel13NativeChannelE3newB6_
FN:64,_RNvXs3_NtCscwuARTPjPmf_13kona_preimage6oracleINtB5_12OracleReaderNtNtB7_14native_channel13NativeChannelENtNtB7_6traits20PreimageOracleClient3getB7_
FN:90,_RNvXs3_NtCscwuARTPjPmf_13kona_preimage6oracleINtB5_12OracleReaderNtNtB7_14native_channel13NativeChannelENtNtB7_6traits20PreimageOracleClient9get_exactB7_
FN:223,_RNCNCNvNtNtCscwuARTPjPmf_13kona_preimage6oracle4tests_27test_oracle_client_and_host00B9_
FN:230,_RNCNCNvNtNtCscwuARTPjPmf_13kona_preimage6oracle4tests_27test_oracle_client_and_host0s_0B9_
FN:177,_RNCNCNvNtNtCscwuARTPjPmf_13kona_preimage6oracle4tests_28test_oracle_reader_get_exact00B9_
FN:186,_RNCNCNvNtNtCscwuARTPjPmf_13kona_preimage6oracle4tests_28test_oracle_reader_get_exact0s_0B9_
FN:206,_RNCNvNtNtCscwuARTPjPmf_13kona_preimage6oracle4tests_27test_oracle_client_and_host0B7_
FN:160,_RNCNvNtNtCscwuARTPjPmf_13kona_preimage6oracle4tests_28test_oracle_reader_get_exact0B7_
FN:153,_RNCNvXNtNtCscwuARTPjPmf_13kona_preimage6oracle4testNtB4_11TestFetcherNtNtB8_6traits15PreimageFetcher12get_preimage0B8_
FN:206,_RNvNtNtCscwuARTPjPmf_13kona_preimage6oracle4tests_27test_oracle_client_and_host
FN:160,_RNvNtNtCscwuARTPjPmf_13kona_preimage6oracle4tests_28test_oracle_reader_get_exact
FN:156,_RNvXNtNtCscwuARTPjPmf_13kona_preimage6oracle4testNtB2_11TestFetcherNtNtB6_6traits15PreimageFetcher12get_preimage
FNDA:45,_RINvXs7_NtCsbcJAgMR32cv_13kona_preimage6oracleINtB6_12OracleServerNtNtB8_14native_channel13NativeChannelENtNtB8_6traits20PreimageOracleServer21next_preimage_requestNtNtNtNtCsagClJoJoeWA_11kona_client8fpvm_evm11precompiles10test_utils25PrecompilePreimageFetcherEB2K_
FNDA:45,_RNCINvXs7_NtCsbcJAgMR32cv_13kona_preimage6oracleINtB8_12OracleServerNtNtBa_14native_channel13NativeChannelENtNtBa_6traits20PreimageOracleServer21next_preimage_requestNtNtNtNtCsagClJoJoeWA_11kona_client8fpvm_evm11precompiles10test_utils25PrecompilePreimageFetcherE0B2M_
FNDA:11,_RNCNvMNtCsbcJAgMR32cv_13kona_preimage6oracleINtB4_12OracleReaderNtNtB6_14native_channel13NativeChannelE9write_key0CsagClJoJoeWA_11kona_client
FNDA:11,_RNCNvXs3_NtCsbcJAgMR32cv_13kona_preimage6oracleINtB7_12OracleReaderNtNtB9_14native_channel13NativeChannelENtNtB9_6traits20PreimageOracleClient3get0CsagClJoJoeWA_11kona_client
FNDA:34,_RNvMNtCsbcJAgMR32cv_13kona_preimage6oracleINtB2_12OracleReaderNtNtB4_14native_channel13NativeChannelE3newCsagClJoJoeWA_11kona_client
FNDA:11,_RNvMNtCsbcJAgMR32cv_13kona_preimage6oracleINtB2_12OracleReaderNtNtB4_14native_channel13NativeChannelE9write_keyCsagClJoJoeWA_11kona_client
FNDA:34,_RNvMs_NtCsbcJAgMR32cv_13kona_preimage6oracleINtB4_12OracleServerNtNtB6_14native_channel13NativeChannelE3newCsagClJoJoeWA_11kona_client
FNDA:11,_RNvXs3_NtCsbcJAgMR32cv_13kona_preimage6oracleINtB5_12OracleReaderNtNtB7_14native_channel13NativeChannelENtNtB7_6traits20PreimageOracleClient3getCsagClJoJoeWA_11kona_client
FNDA:6,_RINvXs7_NtCscwuARTPjPmf_13kona_preimage6oracleINtB6_12OracleServerNtNtB8_14native_channel13NativeChannelENtNtB8_6traits20PreimageOracleServer21next_preimage_requestNtNtB6_4test11TestFetcherEB8_
FNDA:6,_RNCINvXs7_NtCscwuARTPjPmf_13kona_preimage6oracleINtB8_12OracleServerNtNtBa_14native_channel13NativeChannelENtNtBa_6traits20PreimageOracleServer21next_preimage_requestNtNtB8_4test11TestFetcherE0Ba_
FNDA:4,_RNCNvMNtCscwuARTPjPmf_13kona_preimage6oracleINtB4_12OracleReaderNtNtB6_14native_channel13NativeChannelE9write_key0B6_
FNDA:2,_RNCNvXs3_NtCscwuARTPjPmf_13kona_preimage6oracleINtB7_12OracleReaderNtNtB9_14native_channel13NativeChannelENtNtB9_6traits20PreimageOracleClient3get0B9_
FNDA:2,_RNCNvXs3_NtCscwuARTPjPmf_13kona_preimage6oracleINtB7_12OracleReaderNtNtB9_14native_channel13NativeChannelENtNtB9_6traits20PreimageOracleClient9get_exact0B9_
FNDA:2,_RNvMNtCscwuARTPjPmf_13kona_preimage6oracleINtB2_12OracleReaderNtNtB4_14native_channel13NativeChannelE3newB4_
FNDA:4,_RNvMNtCscwuARTPjPmf_13kona_preimage6oracleINtB2_12OracleReaderNtNtB4_14native_channel13NativeChannelE9write_keyB4_
FNDA:2,_RNvMs_NtCscwuARTPjPmf_13kona_preimage6oracleINtB4_12OracleServerNtNtB6_14native_channel13NativeChannelE3newB6_
FNDA:2,_RNvXs3_NtCscwuARTPjPmf_13kona_preimage6oracleINtB5_12OracleReaderNtNtB7_14native_channel13NativeChannelENtNtB7_6traits20PreimageOracleClient3getB7_
FNDA:2,_RNvXs3_NtCscwuARTPjPmf_13kona_preimage6oracleINtB5_12OracleReaderNtNtB7_14native_channel13NativeChannelENtNtB7_6traits20PreimageOracleClient9get_exactB7_
FNDA:1,_RNCNCNvNtNtCscwuARTPjPmf_13kona_preimage6oracle4tests_27test_oracle_client_and_host00B9_
FNDA:1,_RNCNCNvNtNtCscwuARTPjPmf_13kona_preimage6oracle4tests_27test_oracle_client_and_host0s_0B9_
FNDA:1,_RNCNCNvNtNtCscwuARTPjPmf_13kona_preimage6oracle4tests_28test_oracle_reader_get_exact00B9_
FNDA:1,_RNCNCNvNtNtCscwuARTPjPmf_13kona_preimage6oracle4tests_28test_oracle_reader_get_exact0s_0B9_
FNDA:1,_RNCNvNtNtCscwuARTPjPmf_13kona_preimage6oracle4tests_27test_oracle_client_and_host0B7_
FNDA:1,_RNCNvNtNtCscwuARTPjPmf_13kona_preimage6oracle4tests_28test_oracle_reader_get_exact0B7_
FNDA:4,_RNCNvXNtNtCscwuARTPjPmf_13kona_preimage6oracle4testNtB4_11TestFetcherNtNtB8_6traits15PreimageFetcher12get_preimage0B8_
FNDA:1,_RNvNtNtCscwuARTPjPmf_13kona_preimage6oracle4tests_27test_oracle_client_and_host
FNDA:1,_RNvNtNtCscwuARTPjPmf_13kona_preimage6oracle4tests_28test_oracle_reader_get_exact
FNDA:4,_RNvXNtNtCscwuARTPjPmf_13kona_preimage6oracle4testNtB2_11TestFetcherNtNtB6_6traits15PreimageFetcher12get_preimage
FNF:20
FNH:20
DA:19,36
DA:20,36
DA:21,36
DA:26,15
DA:27,15
DA:28,15
DA:29,15
DA:32,15
DA:33,15
DA:34,15
DA:35,15
DA:45,13
DA:46,13
DA:48,13
DA:50,13
DA:51,0
DA:52,13
DA:53,13
DA:54,13
DA:55,13
DA:56,13
DA:59,13
DA:61,13
DA:63,13
DA:64,26
DA:68,2
DA:69,2
DA:72,2
DA:74,2
DA:77,2
DA:78,0
DA:79,2
DA:80,2
DA:81,2
DA:82,0
DA:83,2
DA:84,2
DA:85,2
DA:87,2
DA:89,2
DA:90,4
DA:104,36
DA:105,36
DA:106,36
DA:117,51
DA:119,51
DA:120,51
DA:121,15
DA:123,15
DA:126,15
DA:129,15
DA:130,15
DA:132,15
DA:134,15
DA:135,102
DA:153,4
DA:154,4
DA:155,4
DA:156,8
DA:160,1
DA:161,1
DA:162,1
DA:163,1
DA:164,1
DA:165,1
DA:166,1
DA:167,1
DA:168,1
DA:169,1
DA:170,1
DA:171,1
DA:172,1
DA:173,1
DA:174,1
DA:175,1
DA:176,1
DA:177,1
DA:178,1
DA:179,1
DA:180,1
DA:181,1
DA:182,1
DA:183,1
DA:184,1
DA:185,1
DA:186,1
DA:187,1
DA:188,1
DA:189,1
DA:190,1
DA:191,3
DA:192,1
DA:193,1
DA:194,2
DA:195,1
DA:196,1
DA:197,1
DA:198,1
DA:199,1
DA:200,1
DA:201,1
DA:202,1
DA:203,1
DA:206,1
DA:207,1
DA:208,1
DA:209,1
DA:210,1
DA:211,1
DA:212,1
DA:213,1
DA:214,1
DA:215,1
DA:216,1
DA:217,1
DA:218,1
DA:219,1
DA:220,1
DA:221,1
DA:222,1
DA:223,1
DA:224,1
DA:225,1
DA:226,1
DA:227,1
DA:228,1
DA:229,1
DA:230,1
DA:231,1
DA:232,1
DA:233,1
DA:234,1
DA:235,3
DA:236,1
DA:237,1
DA:238,2
DA:239,1
DA:240,1
DA:241,1
DA:242,1
DA:243,1
DA:244,1
DA:245,1
DA:246,1
DA:247,1
BRF:0
BRH:0
LF:228
LH:223
end_of_record
SF:/Users/andreasbigger/kona/crates/proof/proof-interop/src/boot.rs
FN:60,_RINvMNtCsgUbS4F3ijnb_18kona_proof_interop4bootNtB3_8BootInfo4loadpEB5_
FN:172,_RINvNtCsgUbS4F3ijnb_18kona_proof_interop4boot18read_raw_pre_statepEB4_
FN:63,_RNCINvMNtCsgUbS4F3ijnb_18kona_proof_interop4bootNtB5_8BootInfo4loadpE0B7_
FN:178,_RNCINvNtCsgUbS4F3ijnb_18kona_proof_interop4boot18read_raw_pre_statepE0B6_
FN:111,_RNCNCINvMNtCsgUbS4F3ijnb_18kona_proof_interop4bootNtB7_8BootInfo4loadpE00B9_
FN:120,_RNCNCINvMNtCsgUbS4F3ijnb_18kona_proof_interop4bootNtB7_8BootInfo4loadpE0s0_0B9_
FN:121,_RNCNCINvMNtCsgUbS4F3ijnb_18kona_proof_interop4bootNtB7_8BootInfo4loadpE0s1_0B9_
FN:114,_RNCNCINvMNtCsgUbS4F3ijnb_18kona_proof_interop4bootNtB7_8BootInfo4loadpE0s_0B9_
FN:152,_RNvMNtCsgUbS4F3ijnb_18kona_proof_interop4bootNtB2_8BootInfo13rollup_config
FN:146,_RNvMNtCsgUbS4F3ijnb_18kona_proof_interop4bootNtB2_8BootInfo20active_rollup_config
FNDA:0,_RINvMNtCsgUbS4F3ijnb_18kona_proof_interop4bootNtB3_8BootInfo4loadpEB5_
FNDA:0,_RINvNtCsgUbS4F3ijnb_18kona_proof_interop4boot18read_raw_pre_statepEB4_
FNDA:0,_RNCINvMNtCsgUbS4F3ijnb_18kona_proof_interop4bootNtB5_8BootInfo4loadpE0B7_
FNDA:0,_RNCINvNtCsgUbS4F3ijnb_18kona_proof_interop4boot18read_raw_pre_statepE0B6_
FNDA:0,_RNCNCINvMNtCsgUbS4F3ijnb_18kona_proof_interop4bootNtB7_8BootInfo4loadpE00B9_
FNDA:0,_RNCNCINvMNtCsgUbS4F3ijnb_18kona_proof_interop4bootNtB7_8BootInfo4loadpE0s0_0B9_
FNDA:0,_RNCNCINvMNtCsgUbS4F3ijnb_18kona_proof_interop4bootNtB7_8BootInfo4loadpE0s1_0B9_
FNDA:0,_RNCNCINvMNtCsgUbS4F3ijnb_18kona_proof_interop4bootNtB7_8BootInfo4loadpE0s_0B9_
FNDA:0,_RNvMNtCsgUbS4F3ijnb_18kona_proof_interop4bootNtB2_8BootInfo13rollup_config
FNDA:0,_RNvMNtCsgUbS4F3ijnb_18kona_proof_interop4bootNtB2_8BootInfo20active_rollup_config
FNF:10
FNH:0
DA:60,0
DA:61,0
DA:62,0
DA:63,0
DA:64,0
DA:65,0
DA:66,0
DA:67,0
DA:68,0
DA:70,0
DA:71,0
DA:72,0
DA:73,0
DA:74,0
DA:76,0
DA:77,0
DA:78,0
DA:79,0
DA:80,0
DA:82,0
DA:83,0
DA:84,0
DA:85,0
DA:86,0
DA:87,0
DA:88,0
DA:89,0
DA:92,0
DA:93,0
DA:94,0
DA:96,0
DA:99,0
DA:100,0
DA:102,0
DA:104,0
DA:106,0
DA:107,0
DA:109,0
DA:110,0
DA:111,0
DA:113,0
DA:114,0
DA:120,0
DA:121,0
DA:123,0
DA:125,0
DA:128,0
DA:129,0
DA:130,0
DA:131,0
DA:132,0
DA:135,0
DA:136,0
DA:137,0
DA:138,0
DA:139,0
DA:140,0
DA:141,0
DA:142,0
DA:143,0
DA:146,0
DA:147,0
DA:148,0
DA:149,0
DA:152,0
DA:153,0
DA:154,0
DA:172,0
DA:173,0
DA:174,0
DA:175,0
DA:176,0
DA:177,0
DA:178,0
DA:179,0
DA:180,0
DA:181,0
DA:182,0
DA:183,0
DA:184,0
DA:185,0
DA:186,0
DA:188,0
DA:189,0
DA:190,0
DA:191,0
DA:192,0
DA:193,0
DA:194,0
DA:195,0
BRF:0
BRH:0
LF:96
LH:0
end_of_record
SF:/Users/andreasbigger/kona/crates/proof/proof-interop/src/consolidation.rs
FN:198,_RNCNCNCNvMNtCsgUbS4F3ijnb_18kona_proof_interop13consolidationINtB8_22SuperchainConsolidatorppE23re_execute_deposit_only0s2_00Ba_
FN:136,_RNCNCNvMNtCsgUbS4F3ijnb_18kona_proof_interop13consolidationINtB6_22SuperchainConsolidatorppE23re_execute_deposit_only00B8_
FN:163,_RNCNCNvMNtCsgUbS4F3ijnb_18kona_proof_interop13consolidationINtB6_22SuperchainConsolidatorppE23re_execute_deposit_only0s0_0B8_
FN:169,_RNCNCNvMNtCsgUbS4F3ijnb_18kona_proof_interop13consolidationINtB6_22SuperchainConsolidatorppE23re_execute_deposit_only0s1_0B8_
FN:190,_RNCNCNvMNtCsgUbS4F3ijnb_18kona_proof_interop13consolidationINtB6_22SuperchainConsolidatorppE23re_execute_deposit_only0s2_0B8_
FN:141,_RNCNCNvMNtCsgUbS4F3ijnb_18kona_proof_interop13consolidationINtB6_22SuperchainConsolidatorppE23re_execute_deposit_only0s3_0B8_
FN:148,_RNCNCNvMNtCsgUbS4F3ijnb_18kona_proof_interop13consolidationINtB6_22SuperchainConsolidatorppE23re_execute_deposit_only0s_0B8_
FN:65,_RNCNvMNtCsgUbS4F3ijnb_18kona_proof_interop13consolidationINtB4_22SuperchainConsolidatorppE11consolidate0B6_
FN:93,_RNCNvMNtCsgUbS4F3ijnb_18kona_proof_interop13consolidationINtB4_22SuperchainConsolidatorppE16consolidate_once0B6_
FN:117,_RNCNvMNtCsgUbS4F3ijnb_18kona_proof_interop13consolidationINtB4_22SuperchainConsolidatorppE23re_execute_deposit_only0B6_
FN:65,_RNvMNtCsgUbS4F3ijnb_18kona_proof_interop13consolidationINtB2_22SuperchainConsolidatorppE11consolidateB4_
FN:93,_RNvMNtCsgUbS4F3ijnb_18kona_proof_interop13consolidationINtB2_22SuperchainConsolidatorppE16consolidate_onceB4_
FN:114,_RNvMNtCsgUbS4F3ijnb_18kona_proof_interop13consolidationINtB2_22SuperchainConsolidatorppE23re_execute_deposit_onlyB4_
FN:231,_RNvMNtCsgUbS4F3ijnb_18kona_proof_interop13consolidationINtB2_22SuperchainConsolidatorppE29craft_replacement_transactionB4_
FN:52,_RNvMNtCsgUbS4F3ijnb_18kona_proof_interop13consolidationINtB2_22SuperchainConsolidatorppE3newB4_
FNDA:0,_RNCNCNCNvMNtCsgUbS4F3ijnb_18kona_proof_interop13consolidationINtB8_22SuperchainConsolidatorppE23re_execute_deposit_only0s2_00Ba_
FNDA:0,_RNCNCNvMNtCsgUbS4F3ijnb_18kona_proof_interop13consolidationINtB6_22SuperchainConsolidatorppE23re_execute_deposit_only00B8_
FNDA:0,_RNCNCNvMNtCsgUbS4F3ijnb_18kona_proof_interop13consolidationINtB6_22SuperchainConsolidatorppE23re_execute_deposit_only0s0_0B8_
FNDA:0,_RNCNCNvMNtCsgUbS4F3ijnb_18kona_proof_interop13consolidationINtB6_22SuperchainConsolidatorppE23re_execute_deposit_only0s1_0B8_
FNDA:0,_RNCNCNvMNtCsgUbS4F3ijnb_18kona_proof_interop13consolidationINtB6_22SuperchainConsolidatorppE23re_execute_deposit_only0s2_0B8_
FNDA:0,_RNCNCNvMNtCsgUbS4F3ijnb_18kona_proof_interop13consolidationINtB6_22SuperchainConsolidatorppE23re_execute_deposit_only0s3_0B8_
FNDA:0,_RNCNCNvMNtCsgUbS4F3ijnb_18kona_proof_interop13consolidationINtB6_22SuperchainConsolidatorppE23re_execute_deposit_only0s_0B8_
FNDA:0,_RNCNvMNtCsgUbS4F3ijnb_18kona_proof_interop13consolidationINtB4_22SuperchainConsolidatorppE11consolidate0B6_
FNDA:0,_RNCNvMNtCsgUbS4F3ijnb_18kona_proof_interop13consolidationINtB4_22SuperchainConsolidatorppE16consolidate_once0B6_
FNDA:0,_RNCNvMNtCsgUbS4F3ijnb_18kona_proof_interop13consolidationINtB4_22SuperchainConsolidatorppE23re_execute_deposit_only0B6_
FNDA:0,_RNvMNtCsgUbS4F3ijnb_18kona_proof_interop13consolidationINtB2_22SuperchainConsolidatorppE11consolidateB4_
FNDA:0,_RNvMNtCsgUbS4F3ijnb_18kona_proof_interop13consolidationINtB2_22SuperchainConsolidatorppE16consolidate_onceB4_
FNDA:0,_RNvMNtCsgUbS4F3ijnb_18kona_proof_interop13consolidationINtB2_22SuperchainConsolidatorppE23re_execute_deposit_onlyB4_
FNDA:0,_RNvMNtCsgUbS4F3ijnb_18kona_proof_interop13consolidationINtB2_22SuperchainConsolidatorppE29craft_replacement_transactionB4_
FNDA:0,_RNvMNtCsgUbS4F3ijnb_18kona_proof_interop13consolidationINtB2_22SuperchainConsolidatorppE3newB4_
FNF:15
FNH:0
DA:52,0
DA:53,0
DA:54,0
DA:55,0
DA:56,0
DA:57,0
DA:58,0
DA:59,0
DA:65,0
DA:66,0
DA:68,0
DA:70,0
DA:71,0
DA:75,0
DA:77,0
DA:78,0
DA:79,0
DA:82,0
DA:93,0
DA:95,0
DA:96,0
DA:97,0
DA:98,0
DA:99,0
DA:100,0
DA:104,0
DA:105,0
DA:106,0
DA:107,0
DA:108,0
DA:109,0
DA:110,0
DA:114,0
DA:115,0
DA:116,0
DA:117,0
DA:118,0
DA:120,0
DA:121,0
DA:122,0
DA:123,0
DA:124,0
DA:127,0
DA:128,0
DA:131,0
DA:132,0
DA:133,0
DA:134,0
DA:135,0
DA:136,0
DA:137,0
DA:138,0
DA:139,0
DA:140,0
DA:141,0
DA:142,0
DA:146,0
DA:147,0
DA:148,0
DA:149,0
DA:150,0
DA:151,0
DA:152,0
DA:153,0
DA:155,0
DA:156,0
DA:158,0
DA:160,0
DA:161,0
DA:162,0
DA:163,0
DA:164,0
DA:167,0
DA:168,0
DA:169,0
DA:170,0
DA:171,0
DA:172,0
DA:173,0
DA:174,0
DA:175,0
DA:176,0
DA:177,0
DA:178,0
DA:179,0
DA:180,0
DA:181,0
DA:182,0
DA:183,0
DA:184,0
DA:185,0
DA:186,0
DA:187,0
DA:188,0
DA:189,0
DA:190,0
DA:191,0
DA:192,0
DA:193,0
DA:194,0
DA:195,0
DA:196,0
DA:197,0
DA:198,0
DA:199,0
DA:200,0
DA:201,0
DA:202,0
DA:203,0
DA:204,0
DA:205,0
DA:206,0
DA:207,0
DA:208,0
DA:209,0
DA:210,0
DA:214,0
DA:215,0
DA:218,0
DA:219,0
DA:220,0
DA:221,0
DA:224,0
DA:225,0
DA:231,0
DA:235,0
DA:236,0
DA:237,0
DA:238,0
DA:239,0
DA:240,0
DA:241,0
DA:242,0
DA:243,0
DA:244,0
DA:245,0
DA:246,0
DA:247,0
DA:248,0
DA:249,0
DA:250,0
DA:251,0
DA:252,0
DA:253,0
DA:254,0
DA:255,0
DA:256,0
BRF:0
BRH:0
LF:158
LH:0
end_of_record
SF:/Users/andreasbigger/kona/crates/proof/proof-interop/src/hint.rs
FN:51,_RNCNvMNtCsgUbS4F3ijnb_18kona_proof_interop4hintNtB4_8HintType9with_data0B6_
FN:52,_RNCNvMNtCsgUbS4F3ijnb_18kona_proof_interop4hintNtB4_8HintType9with_datas_0B6_
FN:50,_RNvMNtCsgUbS4F3ijnb_18kona_proof_interop4hintNtB2_8HintType9with_data
FN:87,_RNvXs0_NtCsgUbS4F3ijnb_18kona_proof_interop4hintReINtNtCs8dmkrYGpicx_4core7convert4FromNtB5_8HintTypeE4from
FN:110,_RNvXs1_NtCsgUbS4F3ijnb_18kona_proof_interop4hintNtB5_8HintTypeNtNtCs8dmkrYGpicx_4core3fmt7Display3fmt
FN:63,_RNvXs_NtCsgUbS4F3ijnb_18kona_proof_interop4hintNtB4_8HintTypeNtNtNtCs8dmkrYGpicx_4core3str6traits7FromStr8from_str
FNDA:0,_RNCNvMNtCsgUbS4F3ijnb_18kona_proof_interop4hintNtB4_8HintType9with_data0B6_
FNDA:0,_RNCNvMNtCsgUbS4F3ijnb_18kona_proof_interop4hintNtB4_8HintType9with_datas_0B6_
FNDA:0,_RNvMNtCsgUbS4F3ijnb_18kona_proof_interop4hintNtB2_8HintType9with_data
FNDA:0,_RNvXs0_NtCsgUbS4F3ijnb_18kona_proof_interop4hintReINtNtCs8dmkrYGpicx_4core7convert4FromNtB5_8HintTypeE4from
FNDA:0,_RNvXs1_NtCsgUbS4F3ijnb_18kona_proof_interop4hintNtB5_8HintTypeNtNtCs8dmkrYGpicx_4core3fmt7Display3fmt
FNDA:0,_RNvXs_NtCsgUbS4F3ijnb_18kona_proof_interop4hintNtB4_8HintTypeNtNtNtCs8dmkrYGpicx_4core3str6traits7FromStr8from_str
FNF:6
FNH:0
DA:50,0
DA:51,0
DA:52,0
DA:53,0
DA:54,0
DA:55,0
DA:56,0
DA:57,0
DA:63,0
DA:64,0
DA:65,0
DA:66,0
DA:67,0
DA:68,0
DA:69,0
DA:70,0
DA:71,0
DA:72,0
DA:73,0
DA:74,0
DA:75,0
DA:76,0
DA:77,0
DA:78,0
DA:79,0
DA:80,0
DA:81,0
DA:83,0
DA:87,0
DA:88,0
DA:89,0
DA:90,0
DA:91,0
DA:92,0
DA:93,0
DA:94,0
DA:95,0
DA:96,0
DA:97,0
DA:98,0
DA:99,0
DA:100,0
DA:101,0
DA:102,0
DA:103,0
DA:104,0
DA:106,0
DA:110,0
DA:111,0
DA:112,0
DA:113,0
BRF:0
BRH:0
LF:54
LH:0
end_of_record
SF:/Users/andreasbigger/kona/crates/proof/proof-interop/src/pre_state.rs
FN:27,_RNCNvXNvNtCsgUbS4F3ijnb_18kona_proof_interop9pre_states0_1__NtB6_8PreStateNtCsgwCLANrt9p0_9arbitrary9Arbitrary9arbitrarys0_0B8_
FN:152,_RNCNvXNvNtCsgUbS4F3ijnb_18kona_proof_interop9pre_states3_1__NtB6_15TransitionStateNtCsgwCLANrt9p0_9arbitrary9Arbitrary9arbitrarys0_0B8_
FN:241,_RNCNvXNvNtCsgUbS4F3ijnb_18kona_proof_interop9pre_states8_1__NtB6_15OptimisticBlockNtCsgwCLANrt9p0_9arbitrary9Arbitrary9arbitrarys0_0B8_
FN:27,_RNCNvXNvNtCsgUbS4F3ijnb_18kona_proof_interop9pre_states0_1__NtB6_8PreStateNtCsgwCLANrt9p0_9arbitrary9Arbitrary9arbitrarys_0B8_
FN:152,_RNCNvXNvNtCsgUbS4F3ijnb_18kona_proof_interop9pre_states3_1__NtB6_15TransitionStateNtCsgwCLANrt9p0_9arbitrary9Arbitrary9arbitrarys_0B8_
FN:241,_RNCNvXNvNtCsgUbS4F3ijnb_18kona_proof_interop9pre_states8_1__NtB6_15OptimisticBlockNtCsgwCLANrt9p0_9arbitrary9Arbitrary9arbitrarys_0B8_
FN:141,_RNCNvXs0_NtCsgUbS4F3ijnb_18kona_proof_interop9pre_stateNtB7_8PreStateNtNtCsfonRIHmZTHf_9alloy_rlp6decode9Decodable6decode0B9_
FN:227,_RNCNvXs3_NtCsgUbS4F3ijnb_18kona_proof_interop9pre_stateNtB7_15TransitionStateNtNtCsfonRIHmZTHf_9alloy_rlp6decode9Decodable6decode0B9_
FN:180,_RNvMs1_NtCsgUbS4F3ijnb_18kona_proof_interop9pre_stateNtB5_15TransitionState14payload_length
FN:164,_RNvMs1_NtCsgUbS4F3ijnb_18kona_proof_interop9pre_stateNtB5_15TransitionState3new
FN:239,_RNvMs_NvNtCsgUbS4F3ijnb_18kona_proof_interop9pre_states4_1__NtB6_15OptimisticBlock25__alloy_rlp_payload_length
FN:239,_RNvXNvNtCsgUbS4F3ijnb_18kona_proof_interop9pre_states4_1__NtB4_15OptimisticBlockNtNtCsfonRIHmZTHf_9alloy_rlp6encode9Encodable6encode
FN:239,_RNvXNvNtCsgUbS4F3ijnb_18kona_proof_interop9pre_states4_1__NtB4_15OptimisticBlockNtNtCsfonRIHmZTHf_9alloy_rlp6encode9Encodable6length
FN:239,_RNvXNvNtCsgUbS4F3ijnb_18kona_proof_interop9pre_states5_1__NtB4_15OptimisticBlockNtNtCsfonRIHmZTHf_9alloy_rlp6decode9Decodable6decode
FN:129,_RNvXs0_NtCsgUbS4F3ijnb_18kona_proof_interop9pre_stateNtB5_8PreStateNtNtCsfonRIHmZTHf_9alloy_rlp6decode9Decodable6decode
FN:189,_RNvXs2_NtCsgUbS4F3ijnb_18kona_proof_interop9pre_stateNtB5_15TransitionStateNtNtCsfonRIHmZTHf_9alloy_rlp6encode9Encodable6encode
FN:206,_RNvXs3_NtCsgUbS4F3ijnb_18kona_proof_interop9pre_stateNtB5_15TransitionStateNtNtCsfonRIHmZTHf_9alloy_rlp6decode9Decodable6decode
FN:116,_RNvXs_NtCsgUbS4F3ijnb_18kona_proof_interop9pre_stateNtB4_8PreStateNtNtCsfonRIHmZTHf_9alloy_rlp6encode9Encodable6encode
FN:92,_RNCNvMNtCsgUbS4F3ijnb_18kona_proof_interop9pre_stateNtB4_8PreState10transition0B6_
FN:67,_RNCNvMNtCsgUbS4F3ijnb_18kona_proof_interop9pre_stateNtB4_8PreState18active_l2_chain_id0B6_
FN:27,_RNCNvXNvNtCsgUbS4F3ijnb_18kona_proof_interop9pre_states0_1__NtB6_8PreStateNtCsgwCLANrt9p0_9arbitrary9Arbitrary13try_size_hint0B8_
FN:27,_RNCNvXNvNtCsgUbS4F3ijnb_18kona_proof_interop9pre_states0_1__NtB6_8PreStateNtCsgwCLANrt9p0_9arbitrary9Arbitrary19arbitrary_take_rests0_0B8_
FN:27,_RNCNvXNvNtCsgUbS4F3ijnb_18kona_proof_interop9pre_states0_1__NtB6_8PreStateNtCsgwCLANrt9p0_9arbitrary9Arbitrary19arbitrary_take_rests_0B8_
FN:152,_RNCNvXNvNtCsgUbS4F3ijnb_18kona_proof_interop9pre_states3_1__NtB6_15TransitionStateNtCsgwCLANrt9p0_9arbitrary9Arbitrary13try_size_hint0B8_
FN:152,_RNCNvXNvNtCsgUbS4F3ijnb_18kona_proof_interop9pre_states3_1__NtB6_15TransitionStateNtCsgwCLANrt9p0_9arbitrary9Arbitrary19arbitrary_take_rests0_0B8_
FN:152,_RNCNvXNvNtCsgUbS4F3ijnb_18kona_proof_interop9pre_states3_1__NtB6_15TransitionStateNtCsgwCLANrt9p0_9arbitrary9Arbitrary19arbitrary_take_rests_0B8_
FN:241,_RNCNvXNvNtCsgUbS4F3ijnb_18kona_proof_interop9pre_states8_1__NtB6_15OptimisticBlockNtCsgwCLANrt9p0_9arbitrary9Arbitrary13try_size_hint0B8_
FN:241,_RNCNvXNvNtCsgUbS4F3ijnb_18kona_proof_interop9pre_states8_1__NtB6_15OptimisticBlockNtCsgwCLANrt9p0_9arbitrary9Arbitrary19arbitrary_take_rests0_0B8_
FN:241,_RNCNvXNvNtCsgUbS4F3ijnb_18kona_proof_interop9pre_states8_1__NtB6_15OptimisticBlockNtCsgwCLANrt9p0_9arbitrary9Arbitrary19arbitrary_take_rests_0B8_
FN:71,_RNvMNtCsgUbS4F3ijnb_18kona_proof_interop9pre_stateNtB2_8PreState10transition
FN:66,_RNvMNtCsgUbS4F3ijnb_18kona_proof_interop9pre_stateNtB2_8PreState18active_l2_chain_id
FN:54,_RNvMNtCsgUbS4F3ijnb_18kona_proof_interop9pre_stateNtB2_8PreState21active_l2_output_root
FN:37,_RNvMNtCsgUbS4F3ijnb_18kona_proof_interop9pre_stateNtB2_8PreState4hash
FN:44,_RNvMNtCsgUbS4F3ijnb_18kona_proof_interop9pre_stateNtB2_8PreState9timestamp
FN:173,_RNvMs1_NtCsgUbS4F3ijnb_18kona_proof_interop9pre_stateNtB5_15TransitionState4hash
FN:251,_RNvMs4_NtCsgUbS4F3ijnb_18kona_proof_interop9pre_stateNtB5_15OptimisticBlock3new
FN:286,_RNvNtNtCsgUbS4F3ijnb_18kona_proof_interop9pre_state4tests_34test_arbitrary_pre_state_roundtrip
FN:265,_RNvNtNtCsgUbS4F3ijnb_18kona_proof_interop9pre_state4tests_38test_static_transition_state_roundtrip
FN:301,_RNvNtNtCsgUbS4F3ijnb_18kona_proof_interop9pre_state4tests_41test_arbitrary_transition_state_roundtrip
FNDA:0,_RNCNvXNvNtCsgUbS4F3ijnb_18kona_proof_interop9pre_states0_1__NtB6_8PreStateNtCsgwCLANrt9p0_9arbitrary9Arbitrary9arbitrarys0_0B8_
FNDA:0,_RNCNvXNvNtCsgUbS4F3ijnb_18kona_proof_interop9pre_states3_1__NtB6_15TransitionStateNtCsgwCLANrt9p0_9arbitrary9Arbitrary9arbitrarys0_0B8_
FNDA:0,_RNCNvXNvNtCsgUbS4F3ijnb_18kona_proof_interop9pre_states8_1__NtB6_15OptimisticBlockNtCsgwCLANrt9p0_9arbitrary9Arbitrary9arbitrarys0_0B8_
FNDA:0,_RNCNvXNvNtCsgUbS4F3ijnb_18kona_proof_interop9pre_states0_1__NtB6_8PreStateNtCsgwCLANrt9p0_9arbitrary9Arbitrary9arbitrarys_0B8_
FNDA:0,_RNCNvXNvNtCsgUbS4F3ijnb_18kona_proof_interop9pre_states3_1__NtB6_15TransitionStateNtCsgwCLANrt9p0_9arbitrary9Arbitrary9arbitrarys_0B8_
FNDA:0,_RNCNvXNvNtCsgUbS4F3ijnb_18kona_proof_interop9pre_states8_1__NtB6_15OptimisticBlockNtCsgwCLANrt9p0_9arbitrary9Arbitrary9arbitrarys_0B8_
FNDA:0,_RNCNvXs0_NtCsgUbS4F3ijnb_18kona_proof_interop9pre_stateNtB7_8PreStateNtNtCsfonRIHmZTHf_9alloy_rlp6decode9Decodable6decode0B9_
FNDA:0,_RNCNvXs3_NtCsgUbS4F3ijnb_18kona_proof_interop9pre_stateNtB7_15TransitionStateNtNtCsfonRIHmZTHf_9alloy_rlp6decode9Decodable6decode0B9_
FNDA:4,_RNvMs1_NtCsgUbS4F3ijnb_18kona_proof_interop9pre_stateNtB5_15TransitionState14payload_length
FNDA:1,_RNvMs1_NtCsgUbS4F3ijnb_18kona_proof_interop9pre_stateNtB5_15TransitionState3new
FNDA:12,_RNvMs_NvNtCsgUbS4F3ijnb_18kona_proof_interop9pre_states4_1__NtB6_15OptimisticBlock25__alloy_rlp_payload_length
FNDA:4,_RNvXNvNtCsgUbS4F3ijnb_18kona_proof_interop9pre_states4_1__NtB4_15OptimisticBlockNtNtCsfonRIHmZTHf_9alloy_rlp6encode9Encodable6encode
FNDA:8,_RNvXNvNtCsgUbS4F3ijnb_18kona_proof_interop9pre_states4_1__NtB4_15OptimisticBlockNtNtCsfonRIHmZTHf_9alloy_rlp6encode9Encodable6length
FNDA:0,_RNvXNvNtCsgUbS4F3ijnb_18kona_proof_interop9pre_states5_1__NtB4_15OptimisticBlockNtNtCsfonRIHmZTHf_9alloy_rlp6decode9Decodable6decode
FNDA:1,_RNvXs0_NtCsgUbS4F3ijnb_18kona_proof_interop9pre_stateNtB5_8PreStateNtNtCsfonRIHmZTHf_9alloy_rlp6decode9Decodable6decode
FNDA:4,_RNvXs2_NtCsgUbS4F3ijnb_18kona_proof_interop9pre_stateNtB5_15TransitionStateNtNtCsfonRIHmZTHf_9alloy_rlp6encode9Encodable6encode
FNDA:2,_RNvXs3_NtCsgUbS4F3ijnb_18kona_proof_interop9pre_stateNtB5_15TransitionStateNtNtCsfonRIHmZTHf_9alloy_rlp6decode9Decodable6decode
FNDA:2,_RNvXs_NtCsgUbS4F3ijnb_18kona_proof_interop9pre_stateNtB4_8PreStateNtNtCsfonRIHmZTHf_9alloy_rlp6encode9Encodable6encode
FNDA:0,_RNCNvMNtCsgUbS4F3ijnb_18kona_proof_interop9pre_stateNtB4_8PreState10transition0B6_
FNDA:0,_RNCNvMNtCsgUbS4F3ijnb_18kona_proof_interop9pre_stateNtB4_8PreState18active_l2_chain_id0B6_
FNDA:0,_RNCNvXNvNtCsgUbS4F3ijnb_18kona_proof_interop9pre_states0_1__NtB6_8PreStateNtCsgwCLANrt9p0_9arbitrary9Arbitrary13try_size_hint0B8_
FNDA:0,_RNCNvXNvNtCsgUbS4F3ijnb_18kona_proof_interop9pre_states0_1__NtB6_8PreStateNtCsgwCLANrt9p0_9arbitrary9Arbitrary19arbitrary_take_rests0_0B8_
FNDA:0,_RNCNvXNvNtCsgUbS4F3ijnb_18kona_proof_interop9pre_states0_1__NtB6_8PreStateNtCsgwCLANrt9p0_9arbitrary9Arbitrary19arbitrary_take_rests_0B8_
FNDA:0,_RNCNvXNvNtCsgUbS4F3ijnb_18kona_proof_interop9pre_states3_1__NtB6_15TransitionStateNtCsgwCLANrt9p0_9arbitrary9Arbitrary13try_size_hint0B8_
FNDA:0,_RNCNvXNvNtCsgUbS4F3ijnb_18kona_proof_interop9pre_states3_1__NtB6_15TransitionStateNtCsgwCLANrt9p0_9arbitrary9Arbitrary19arbitrary_take_rests0_0B8_
FNDA:0,_RNCNvXNvNtCsgUbS4F3ijnb_18kona_proof_interop9pre_states3_1__NtB6_15TransitionStateNtCsgwCLANrt9p0_9arbitrary9Arbitrary19arbitrary_take_rests_0B8_
FNDA:0,_RNCNvXNvNtCsgUbS4F3ijnb_18kona_proof_interop9pre_states8_1__NtB6_15OptimisticBlockNtCsgwCLANrt9p0_9arbitrary9Arbitrary13try_size_hint0B8_
FNDA:0,_RNCNvXNvNtCsgUbS4F3ijnb_18kona_proof_interop9pre_states8_1__NtB6_15OptimisticBlockNtCsgwCLANrt9p0_9arbitrary9Arbitrary19arbitrary_take_rests0_0B8_
FNDA:0,_RNCNvXNvNtCsgUbS4F3ijnb_18kona_proof_interop9pre_states8_1__NtB6_15OptimisticBlockNtCsgwCLANrt9p0_9arbitrary9Arbitrary19arbitrary_take_rests_0B8_
FNDA:0,_RNvMNtCsgUbS4F3ijnb_18kona_proof_interop9pre_stateNtB2_8PreState10transition
FNDA:0,_RNvMNtCsgUbS4F3ijnb_18kona_proof_interop9pre_stateNtB2_8PreState18active_l2_chain_id
FNDA:0,_RNvMNtCsgUbS4F3ijnb_18kona_proof_interop9pre_stateNtB2_8PreState21active_l2_output_root
FNDA:0,_RNvMNtCsgUbS4F3ijnb_18kona_proof_interop9pre_stateNtB2_8PreState4hash
FNDA:0,_RNvMNtCsgUbS4F3ijnb_18kona_proof_interop9pre_stateNtB2_8PreState9timestamp
FNDA:0,_RNvMs1_NtCsgUbS4F3ijnb_18kona_proof_interop9pre_stateNtB5_15TransitionState4hash
FNDA:0,_RNvMs4_NtCsgUbS4F3ijnb_18kona_proof_interop9pre_stateNtB5_15OptimisticBlock3new
FNDA:1,_RNvNtNtCsgUbS4F3ijnb_18kona_proof_interop9pre_state4tests_34test_arbitrary_pre_state_roundtrip
FNDA:1,_RNvNtNtCsgUbS4F3ijnb_18kona_proof_interop9pre_state4tests_38test_static_transition_state_roundtrip
FNDA:1,_RNvNtNtCsgUbS4F3ijnb_18kona_proof_interop9pre_state4tests_41test_arbitrary_transition_state_roundtrip
FNF:28
FNH:10
DA:27,0
DA:37,0
DA:38,0
DA:39,0
DA:40,0
DA:41,0
DA:44,0
DA:45,0
DA:46,0
DA:47,0
DA:49,0
DA:54,0
DA:55,0
DA:56,0
DA:57,0
DA:58,0
DA:61,0
DA:66,0
DA:67,0
DA:68,0
DA:71,0
DA:72,0
DA:73,0
DA:74,0
DA:75,0
DA:78,0
DA:79,0
DA:80,0
DA:81,0
DA:82,0
DA:83,0
DA:85,0
DA:86,0
DA:87,0
DA:88,0
DA:89,0
DA:90,0
DA:91,0
DA:92,0
DA:93,0
DA:94,0
DA:95,0
DA:96,0
DA:97,0
DA:98,0
DA:99,0
DA:100,0
DA:102,0
DA:103,0
DA:105,0
DA:106,0
DA:107,0
DA:108,0
DA:109,0
DA:112,0
DA:116,2
DA:117,2
DA:118,2
DA:119,2
DA:120,2
DA:121,0
DA:122,0
DA:123,0
DA:125,2
DA:129,1
DA:130,1
DA:131,0
DA:132,1
DA:133,1
DA:134,1
DA:136,0
DA:137,0
DA:140,1
DA:141,1
DA:142,1
DA:144,0
DA:146,1
DA:152,0
DA:164,1
DA:165,1
DA:166,1
DA:167,1
DA:168,1
DA:169,1
DA:170,1
DA:173,0
DA:174,0
DA:175,0
DA:176,0
DA:177,0
DA:180,4
DA:181,4
DA:182,4
DA:183,4
DA:184,4
DA:185,4
DA:189,4
DA:190,4
DA:191,4
DA:192,4
DA:193,4
DA:194,4
DA:195,4
DA:196,4
DA:197,4
DA:198,4
DA:199,4
DA:200,4
DA:201,4
DA:202,4
DA:206,2
DA:207,2
DA:208,0
DA:209,2
DA:210,2
DA:211,2
DA:212,2
DA:213,0
DA:214,2
DA:215,2
DA:218,2
DA:219,2
DA:220,0
DA:221,2
DA:225,2
DA:226,2
DA:227,2
DA:230,2
DA:231,2
DA:233,2
DA:234,2
DA:239,24
DA:241,0
DA:251,0
DA:252,0
DA:253,0
DA:265,1
DA:266,1
DA:267,1
DA:268,1
DA:269,1
DA:270,1
DA:271,1
DA:272,1
DA:273,1
DA:274,1
DA:275,1
DA:276,1
DA:277,1
DA:278,1
DA:279,1
DA:280,1
DA:281,1
DA:282,1
DA:286,1
DA:289,1
DA:290,1
DA:291,1
DA:292,1
DA:293,1
DA:294,1
DA:295,1
DA:296,1
DA:297,1
DA:301,1
DA:304,1
DA:305,1
DA:306,1
DA:307,1
DA:308,1
DA:309,1
DA:310,1
DA:311,1
DA:312,1
BRF:0
BRH:0
LF:183
LH:99
end_of_record
SF:/Users/andreasbigger/kona/crates/proof/proof-interop/src/provider.rs
FN:98,_RNCNCNvMNtCsgUbS4F3ijnb_18kona_proof_interop8providerINtB6_21OracleInteropProviderpE15derive_receipts00B8_
FN:212,_RNCNCNvXININtCsgUbS4F3ijnb_18kona_proof_interop8providers0_0pEINtB9_21OracleInteropProviderpENtNtCsiRI8oMBxfZX_8kona_mpt6traits10TrieHinter14hint_trie_node00Bb_
FN:224,_RNCNCNvXININtCsgUbS4F3ijnb_18kona_proof_interop8providers0_0pEINtB9_21OracleInteropProviderpENtNtCsiRI8oMBxfZX_8kona_mpt6traits10TrieHinter18hint_account_proof00Bb_
FN:245,_RNCNCNvXININtCsgUbS4F3ijnb_18kona_proof_interop8providers0_0pEINtB9_21OracleInteropProviderpENtNtCsiRI8oMBxfZX_8kona_mpt6traits10TrieHinter18hint_storage_proof00Bb_
FN:264,_RNCNCNvXININtCsgUbS4F3ijnb_18kona_proof_interop8providers0_0pEINtB9_21OracleInteropProviderpENtNtCsiRI8oMBxfZX_8kona_mpt6traits10TrieHinter22hint_execution_witness00Bb_
FN:119,_RNCNCNvXININtCsgUbS4F3ijnb_18kona_proof_interop8providers3_0pEINtB9_21OracleInteropProviderpENtNtCsh3pSYNrNKOs_12kona_interop6traits15InteropProvider16header_by_number00Bb_
FN:135,_RNCNCNvXININtCsgUbS4F3ijnb_18kona_proof_interop8providers3_0pEINtB9_21OracleInteropProviderpENtNtCsh3pSYNrNKOs_12kona_interop6traits15InteropProvider16header_by_number0s_0Bb_
FN:64,_RNCNvMNtCsgUbS4F3ijnb_18kona_proof_interop8providerINtB4_21OracleInteropProviderpE14header_by_hash0B6_
FN:85,_RNCNvMNtCsgUbS4F3ijnb_18kona_proof_interop8providerINtB4_21OracleInteropProviderpE15derive_receipts0B6_
FN:208,_RNCNvXININtCsgUbS4F3ijnb_18kona_proof_interop8providers0_0pEINtB7_21OracleInteropProviderpENtNtCsiRI8oMBxfZX_8kona_mpt6traits10TrieHinter14hint_trie_node0B9_
FN:220,_RNCNvXININtCsgUbS4F3ijnb_18kona_proof_interop8providers0_0pEINtB7_21OracleInteropProviderpENtNtCsiRI8oMBxfZX_8kona_mpt6traits10TrieHinter18hint_account_proof0B9_
FN:237,_RNCNvXININtCsgUbS4F3ijnb_18kona_proof_interop8providers0_0pEINtB7_21OracleInteropProviderpENtNtCsiRI8oMBxfZX_8kona_mpt6traits10TrieHinter18hint_storage_proof0B9_
FN:257,_RNCNvXININtCsgUbS4F3ijnb_18kona_proof_interop8providers0_0pEINtB7_21OracleInteropProviderpENtNtCsiRI8oMBxfZX_8kona_mpt6traits10TrieHinter22hint_execution_witness0B9_
FN:117,_RNCNvXININtCsgUbS4F3ijnb_18kona_proof_interop8providers3_0pEINtB7_21OracleInteropProviderpENtNtCsh3pSYNrNKOs_12kona_interop6traits15InteropProvider16header_by_number0B9_
FN:180,_RNCNvXININtCsgUbS4F3ijnb_18kona_proof_interop8providers3_0pEINtB7_21OracleInteropProviderpENtNtCsh3pSYNrNKOs_12kona_interop6traits15InteropProvider16receipts_by_hash0B9_
FN:170,_RNCNvXININtCsgUbS4F3ijnb_18kona_proof_interop8providers3_0pEINtB7_21OracleInteropProviderpENtNtCsh3pSYNrNKOs_12kona_interop6traits15InteropProvider18receipts_by_number0B9_
FN:193,_RNCNvXININtCsgUbS4F3ijnb_18kona_proof_interop8providers_0pEINtB7_21OracleInteropProviderpENtNtCsiRI8oMBxfZX_8kona_mpt6traits12TrieProvider17trie_node_by_hash0B9_
FN:60,_RNvMNtCsgUbS4F3ijnb_18kona_proof_interop8providerINtB2_21OracleInteropProviderpE14header_by_hashB4_
FN:80,_RNvMNtCsgUbS4F3ijnb_18kona_proof_interop8providerINtB2_21OracleInteropProviderpE15derive_receiptsB4_
FN:50,_RNvMNtCsgUbS4F3ijnb_18kona_proof_interop8providerINtB2_21OracleInteropProviderpE16local_safe_headsB4_
FN:55,_RNvMNtCsgUbS4F3ijnb_18kona_proof_interop8providerINtB2_21OracleInteropProviderpE23replace_local_safe_headB4_
FN:36,_RNvMNtCsgUbS4F3ijnb_18kona_proof_interop8providerINtB2_21OracleInteropProviderpE3newB4_
FN:207,_RNvXININtCsgUbS4F3ijnb_18kona_proof_interop8providers0_0pEINtB5_21OracleInteropProviderpENtNtCsiRI8oMBxfZX_8kona_mpt6traits10TrieHinter14hint_trie_nodeB7_
FN:219,_RNvXININtCsgUbS4F3ijnb_18kona_proof_interop8providers0_0pEINtB5_21OracleInteropProviderpENtNtCsiRI8oMBxfZX_8kona_mpt6traits10TrieHinter18hint_account_proofB7_
FN:231,_RNvXININtCsgUbS4F3ijnb_18kona_proof_interop8providers0_0pEINtB5_21OracleInteropProviderpENtNtCsiRI8oMBxfZX_8kona_mpt6traits10TrieHinter18hint_storage_proofB7_
FN:252,_RNvXININtCsgUbS4F3ijnb_18kona_proof_interop8providers0_0pEINtB5_21OracleInteropProviderpENtNtCsiRI8oMBxfZX_8kona_mpt6traits10TrieHinter22hint_execution_witnessB7_
FN:163,_RNvXININtCsgUbS4F3ijnb_18kona_proof_interop8providers3_0pEINtB5_21OracleInteropProviderpENtNtCsh3pSYNrNKOs_12kona_interop6traits15InteropProvider16header_by_numberB7_
FN:183,_RNvXININtCsgUbS4F3ijnb_18kona_proof_interop8providers3_0pEINtB5_21OracleInteropProviderpENtNtCsh3pSYNrNKOs_12kona_interop6traits15InteropProvider16receipts_by_hashB7_
FN:173,_RNvXININtCsgUbS4F3ijnb_18kona_proof_interop8providers3_0pEINtB5_21OracleInteropProviderpENtNtCsh3pSYNrNKOs_12kona_interop6traits15InteropProvider18receipts_by_numberB7_
FN:192,_RNvXININtCsgUbS4F3ijnb_18kona_proof_interop8providers_0pEINtB5_21OracleInteropProviderpENtNtCsiRI8oMBxfZX_8kona_mpt6traits12TrieProvider17trie_node_by_hashB7_
FNDA:0,_RNCNCNvMNtCsgUbS4F3ijnb_18kona_proof_interop8providerINtB6_21OracleInteropProviderpE15derive_receipts00B8_
FNDA:0,_RNCNCNvXININtCsgUbS4F3ijnb_18kona_proof_interop8providers0_0pEINtB9_21OracleInteropProviderpENtNtCsiRI8oMBxfZX_8kona_mpt6traits10TrieHinter14hint_trie_node00Bb_
FNDA:0,_RNCNCNvXININtCsgUbS4F3ijnb_18kona_proof_interop8providers0_0pEINtB9_21OracleInteropProviderpENtNtCsiRI8oMBxfZX_8kona_mpt6traits10TrieHinter18hint_account_proof00Bb_
FNDA:0,_RNCNCNvXININtCsgUbS4F3ijnb_18kona_proof_interop8providers0_0pEINtB9_21OracleInteropProviderpENtNtCsiRI8oMBxfZX_8kona_mpt6traits10TrieHinter18hint_storage_proof00Bb_
FNDA:0,_RNCNCNvXININtCsgUbS4F3ijnb_18kona_proof_interop8providers0_0pEINtB9_21OracleInteropProviderpENtNtCsiRI8oMBxfZX_8kona_mpt6traits10TrieHinter22hint_execution_witness00Bb_
FNDA:0,_RNCNCNvXININtCsgUbS4F3ijnb_18kona_proof_interop8providers3_0pEINtB9_21OracleInteropProviderpENtNtCsh3pSYNrNKOs_12kona_interop6traits15InteropProvider16header_by_number00Bb_
FNDA:0,_RNCNCNvXININtCsgUbS4F3ijnb_18kona_proof_interop8providers3_0pEINtB9_21OracleInteropProviderpENtNtCsh3pSYNrNKOs_12kona_interop6traits15InteropProvider16header_by_number0s_0Bb_
FNDA:0,_RNCNvMNtCsgUbS4F3ijnb_18kona_proof_interop8providerINtB4_21OracleInteropProviderpE14header_by_hash0B6_
FNDA:0,_RNCNvMNtCsgUbS4F3ijnb_18kona_proof_interop8providerINtB4_21OracleInteropProviderpE15derive_receipts0B6_
FNDA:0,_RNCNvXININtCsgUbS4F3ijnb_18kona_proof_interop8providers0_0pEINtB7_21OracleInteropProviderpENtNtCsiRI8oMBxfZX_8kona_mpt6traits10TrieHinter14hint_trie_node0B9_
FNDA:0,_RNCNvXININtCsgUbS4F3ijnb_18kona_proof_interop8providers0_0pEINtB7_21OracleInteropProviderpENtNtCsiRI8oMBxfZX_8kona_mpt6traits10TrieHinter18hint_account_proof0B9_
FNDA:0,_RNCNvXININtCsgUbS4F3ijnb_18kona_proof_interop8providers0_0pEINtB7_21OracleInteropProviderpENtNtCsiRI8oMBxfZX_8kona_mpt6traits10TrieHinter18hint_storage_proof0B9_
FNDA:0,_RNCNvXININtCsgUbS4F3ijnb_18kona_proof_interop8providers0_0pEINtB7_21OracleInteropProviderpENtNtCsiRI8oMBxfZX_8kona_mpt6traits10TrieHinter22hint_execution_witness0B9_
FNDA:0,_RNCNvXININtCsgUbS4F3ijnb_18kona_proof_interop8providers3_0pEINtB7_21OracleInteropProviderpENtNtCsh3pSYNrNKOs_12kona_interop6traits15InteropProvider16header_by_number0B9_
FNDA:0,_RNCNvXININtCsgUbS4F3ijnb_18kona_proof_interop8providers3_0pEINtB7_21OracleInteropProviderpENtNtCsh3pSYNrNKOs_12kona_interop6traits15InteropProvider16receipts_by_hash0B9_
FNDA:0,_RNCNvXININtCsgUbS4F3ijnb_18kona_proof_interop8providers3_0pEINtB7_21OracleInteropProviderpENtNtCsh3pSYNrNKOs_12kona_interop6traits15InteropProvider18receipts_by_number0B9_
FNDA:0,_RNCNvXININtCsgUbS4F3ijnb_18kona_proof_interop8providers_0pEINtB7_21OracleInteropProviderpENtNtCsiRI8oMBxfZX_8kona_mpt6traits12TrieProvider17trie_node_by_hash0B9_
FNDA:0,_RNvMNtCsgUbS4F3ijnb_18kona_proof_interop8providerINtB2_21OracleInteropProviderpE14header_by_hashB4_
FNDA:0,_RNvMNtCsgUbS4F3ijnb_18kona_proof_interop8providerINtB2_21OracleInteropProviderpE15derive_receiptsB4_
FNDA:0,_RNvMNtCsgUbS4F3ijnb_18kona_proof_interop8providerINtB2_21OracleInteropProviderpE16local_safe_headsB4_
FNDA:0,_RNvMNtCsgUbS4F3ijnb_18kona_proof_interop8providerINtB2_21OracleInteropProviderpE23replace_local_safe_headB4_
FNDA:0,_RNvMNtCsgUbS4F3ijnb_18kona_proof_interop8providerINtB2_21OracleInteropProviderpE3newB4_
FNDA:0,_RNvXININtCsgUbS4F3ijnb_18kona_proof_interop8providers0_0pEINtB5_21OracleInteropProviderpENtNtCsiRI8oMBxfZX_8kona_mpt6traits10TrieHinter14hint_trie_nodeB7_
FNDA:0,_RNvXININtCsgUbS4F3ijnb_18kona_proof_interop8providers0_0pEINtB5_21OracleInteropProviderpENtNtCsiRI8oMBxfZX_8kona_mpt6traits10TrieHinter18hint_account_proofB7_
FNDA:0,_RNvXININtCsgUbS4F3ijnb_18kona_proof_interop8providers0_0pEINtB5_21OracleInteropProviderpENtNtCsiRI8oMBxfZX_8kona_mpt6traits10TrieHinter18hint_storage_proofB7_
FNDA:0,_RNvXININtCsgUbS4F3ijnb_18kona_proof_interop8providers0_0pEINtB5_21OracleInteropProviderpENtNtCsiRI8oMBxfZX_8kona_mpt6traits10TrieHinter22hint_execution_witnessB7_
FNDA:0,_RNvXININtCsgUbS4F3ijnb_18kona_proof_interop8providers3_0pEINtB5_21OracleInteropProviderpENtNtCsh3pSYNrNKOs_12kona_interop6traits15InteropProvider16header_by_numberB7_
FNDA:0,_RNvXININtCsgUbS4F3ijnb_18kona_proof_interop8providers3_0pEINtB5_21OracleInteropProviderpENtNtCsh3pSYNrNKOs_12kona_interop6traits15InteropProvider16receipts_by_hashB7_
FNDA:0,_RNvXININtCsgUbS4F3ijnb_18kona_proof_interop8providers3_0pEINtB5_21OracleInteropProviderpENtNtCsh3pSYNrNKOs_12kona_interop6traits15InteropProvider18receipts_by_numberB7_
FNDA:0,_RNvXININtCsgUbS4F3ijnb_18kona_proof_interop8providers_0pEINtB5_21OracleInteropProviderpENtNtCsiRI8oMBxfZX_8kona_mpt6traits12TrieProvider17trie_node_by_hashB7_
FNF:30
FNH:0
DA:36,0
DA:37,0
DA:38,0
DA:39,0
DA:40,0
DA:41,0
DA:42,0
DA:43,0
DA:44,0
DA:45,0
DA:46,0
DA:47,0
DA:50,0
DA:51,0
DA:52,0
DA:55,0
DA:56,0
DA:57,0
DA:60,0
DA:61,0
DA:62,0
DA:63,0
DA:64,0
DA:65,0
DA:66,0
DA:67,0
DA:68,0
DA:70,0
DA:71,0
DA:72,0
DA:73,0
DA:74,0
DA:76,0
DA:77,0
DA:80,0
DA:81,0
DA:82,0
DA:83,0
DA:84,0
DA:85,0
DA:86,0
DA:87,0
DA:88,0
DA:89,0
DA:90,0
DA:91,0
DA:92,0
DA:93,0
DA:96,0
DA:97,0
DA:98,0
DA:99,0
DA:100,0
DA:101,0
DA:102,0
DA:103,0
DA:105,0
DA:106,0
DA:117,0
DA:118,0
DA:119,0
DA:121,0
DA:125,0
DA:126,0
DA:127,0
DA:128,0
DA:129,0
DA:130,0
DA:131,0
DA:132,0
DA:135,0
DA:136,0
DA:137,0
DA:138,0
DA:140,0
DA:141,0
DA:145,0
DA:146,0
DA:150,0
DA:151,0
DA:155,0
DA:158,0
DA:162,0
DA:163,0
DA:170,0
DA:171,0
DA:172,0
DA:173,0
DA:180,0
DA:181,0
DA:182,0
DA:183,0
DA:192,0
DA:193,0
DA:194,0
DA:195,0
DA:196,0
DA:197,0
DA:198,0
DA:199,0
DA:200,0
DA:201,0
DA:207,0
DA:208,0
DA:209,0
DA:210,0
DA:211,0
DA:212,0
DA:213,0
DA:214,0
DA:215,0
DA:216,0
DA:217,0
DA:219,0
DA:220,0
DA:221,0
DA:222,0
DA:223,0
DA:224,0
DA:225,0
DA:226,0
DA:227,0
DA:228,0
DA:229,0
DA:231,0
DA:232,0
DA:233,0
DA:234,0
DA:235,0
DA:236,0
DA:237,0
DA:238,0
DA:239,0
DA:240,0
DA:241,0
DA:242,0
DA:243,0
DA:244,0
DA:245,0
DA:246,0
DA:247,0
DA:248,0
DA:249,0
DA:250,0
DA:252,0
DA:253,0
DA:254,0
DA:255,0
DA:256,0
DA:257,0
DA:258,0
DA:259,0
DA:261,0
DA:262,0
DA:263,0
DA:264,0
DA:265,0
DA:266,0
DA:267,0
DA:268,0
DA:269,0
BRF:0
BRH:0
LF:185
LH:0
end_of_record
SF:/Users/andreasbigger/kona/crates/proof/proof/src/blocking_runtime.rs
FN:11,_RNCINvNtCskniJnscavRD_10kona_proof16blocking_runtime8block_onINtNtCs8dmkrYGpicx_4core6result6ResultINtNtCs7Lutq36SewB_5alloc3vec3VechENtNtB6_6errors19OracleProviderErrorENCINvNtNtNtCsagClJoJoeWA_11kona_client8fpvm_evm11precompiles10bls12_pair18fpvm_bls12_pairingINtNtCsbcJAgMR32cv_13kona_preimage4hint10HintWriterNtNtB4h_14native_channel13NativeChannelEINtNtB4h_6oracle12OracleReaderB51_EEs_0E0B2T_
FN:11,_RNCINvNtCskniJnscavRD_10kona_proof16blocking_runtime8block_onINtNtCs8dmkrYGpicx_4core6result6ResultINtNtCs7Lutq36SewB_5alloc3vec3VechENtNtB6_6errors19OracleProviderErrorENCINvNtNtNtCsagClJoJoeWA_11kona_client8fpvm_evm11precompiles10bn128_pair15fpvm_bn128_pairINtNtCsbcJAgMR32cv_13kona_preimage4hint10HintWriterNtNtB4e_14native_channel13NativeChannelEINtNtB4e_6oracle12OracleReaderB4Y_EEs_0E0B2T_
FN:11,_RNCINvNtCskniJnscavRD_10kona_proof16blocking_runtime8block_onINtNtCs8dmkrYGpicx_4core6result6ResultINtNtCs7Lutq36SewB_5alloc3vec3VechENtNtB6_6errors19OracleProviderErrorENCINvNtNtNtCsagClJoJoeWA_11kona_client8fpvm_evm11precompiles12bls12_g1_add17fpvm_bls12_g1_addINtNtCsbcJAgMR32cv_13kona_preimage4hint10HintWriterNtNtB4i_14native_channel13NativeChannelEINtNtB4i_6oracle12OracleReaderB52_EEs_0E0B2T_
FN:11,_RNCINvNtCskniJnscavRD_10kona_proof16blocking_runtime8block_onINtNtCs8dmkrYGpicx_4core6result6ResultINtNtCs7Lutq36SewB_5alloc3vec3VechENtNtB6_6errors19OracleProviderErrorENCINvNtNtNtCsagClJoJoeWA_11kona_client8fpvm_evm11precompiles12bls12_g1_msm17fpvm_bls12_g1_msmINtNtCsbcJAgMR32cv_13kona_preimage4hint10HintWriterNtNtB4i_14native_channel13NativeChannelEINtNtB4i_6oracle12OracleReaderB52_EEs_0E0B2T_
FN:11,_RNCINvNtCskniJnscavRD_10kona_proof16blocking_runtime8block_onINtNtCs8dmkrYGpicx_4core6result6ResultINtNtCs7Lutq36SewB_5alloc3vec3VechENtNtB6_6errors19OracleProviderErrorENCINvNtNtNtCsagClJoJoeWA_11kona_client8fpvm_evm11precompiles12bls12_g2_add17fpvm_bls12_g2_addINtNtCsbcJAgMR32cv_13kona_preimage4hint10HintWriterNtNtB4i_14native_channel13NativeChannelEINtNtB4i_6oracle12OracleReaderB52_EEs_0E0B2T_
FN:11,_RNCINvNtCskniJnscavRD_10kona_proof16blocking_runtime8block_onINtNtCs8dmkrYGpicx_4core6result6ResultINtNtCs7Lutq36SewB_5alloc3vec3VechENtNtB6_6errors19OracleProviderErrorENCINvNtNtNtCsagClJoJoeWA_11kona_client8fpvm_evm11precompiles12bls12_g2_msm17fpvm_bls12_g2_msmINtNtCsbcJAgMR32cv_13kona_preimage4hint10HintWriterNtNtB4i_14native_channel13NativeChannelEINtNtB4i_6oracle12OracleReaderB52_EEs_0E0B2T_
FN:11,_RNCINvNtCskniJnscavRD_10kona_proof16blocking_runtime8block_onINtNtCs8dmkrYGpicx_4core6result6ResultINtNtCs7Lutq36SewB_5alloc3vec3VechENtNtB6_6errors19OracleProviderErrorENCINvNtNtNtCsagClJoJoeWA_11kona_client8fpvm_evm11precompiles12bls12_map_fp17fpvm_bls12_map_fpINtNtCsbcJAgMR32cv_13kona_preimage4hint10HintWriterNtNtB4i_14native_channel13NativeChannelEINtNtB4i_6oracle12OracleReaderB52_EEs_0E0B2T_
FN:11,_RNCINvNtCskniJnscavRD_10kona_proof16blocking_runtime8block_onINtNtCs8dmkrYGpicx_4core6result6ResultINtNtCs7Lutq36SewB_5alloc3vec3VechENtNtB6_6errors19OracleProviderErrorENCINvNtNtNtCsagClJoJoeWA_11kona_client8fpvm_evm11precompiles13bls12_map_fp218fpvm_bls12_map_fp2INtNtCsbcJAgMR32cv_13kona_preimage4hint10HintWriterNtNtB4k_14native_channel13NativeChannelEINtNtB4k_6oracle12OracleReaderB54_EEs_0E0B2T_
FN:11,_RNCINvNtCskniJnscavRD_10kona_proof16blocking_runtime8block_onINtNtCs8dmkrYGpicx_4core6result6ResultINtNtCs7Lutq36SewB_5alloc3vec3VechENtNtB6_6errors19OracleProviderErrorENCINvNtNtNtCsagClJoJoeWA_11kona_client8fpvm_evm11precompiles14kzg_point_eval19fpvm_kzg_point_evalINtNtCsbcJAgMR32cv_13kona_preimage4hint10HintWriterNtNtB4m_14native_channel13NativeChannelEINtNtB4m_6oracle12OracleReaderB56_EEs_0E0B2T_
FN:11,_RNCINvNtCskniJnscavRD_10kona_proof16blocking_runtime8block_onINtNtCs8dmkrYGpicx_4core6result6ResultINtNtCs7Lutq36SewB_5alloc3vec3VechENtNtB6_6errors19OracleProviderErrorENCINvNtNtNtCsagClJoJoeWA_11kona_client8fpvm_evm11precompiles9ecrecover15fpvm_ec_recoverINtNtCsbcJAgMR32cv_13kona_preimage4hint10HintWriterNtNtB4c_14native_channel13NativeChannelEINtNtB4c_6oracle12OracleReaderB4W_EEs_0E0B2T_
FN:8,_RINvNtCskniJnscavRD_10kona_proof16blocking_runtime8block_onINtNtCs8dmkrYGpicx_4core6result6ResultINtNtCs7Lutq36SewB_5alloc3vec3VechENtNtB4_6errors19OracleProviderErrorENCINvNtNtNtCsagClJoJoeWA_11kona_client8fpvm_evm11precompiles10bls12_pair18fpvm_bls12_pairingINtNtCsbcJAgMR32cv_13kona_preimage4hint10HintWriterNtNtB4f_14native_channel13NativeChannelEINtNtB4f_6oracle12OracleReaderB4Z_EEs_0EB2R_
FN:8,_RINvNtCskniJnscavRD_10kona_proof16blocking_runtime8block_onINtNtCs8dmkrYGpicx_4core6result6ResultINtNtCs7Lutq36SewB_5alloc3vec3VechENtNtB4_6errors19OracleProviderErrorENCINvNtNtNtCsagClJoJoeWA_11kona_client8fpvm_evm11precompiles10bn128_pair15fpvm_bn128_pairINtNtCsbcJAgMR32cv_13kona_preimage4hint10HintWriterNtNtB4c_14native_channel13NativeChannelEINtNtB4c_6oracle12OracleReaderB4W_EEs_0EB2R_
FN:8,_RINvNtCskniJnscavRD_10kona_proof16blocking_runtime8block_onINtNtCs8dmkrYGpicx_4core6result6ResultINtNtCs7Lutq36SewB_5alloc3vec3VechENtNtB4_6errors19OracleProviderErrorENCINvNtNtNtCsagClJoJoeWA_11kona_client8fpvm_evm11precompiles12bls12_g1_add17fpvm_bls12_g1_addINtNtCsbcJAgMR32cv_13kona_preimage4hint10HintWriterNtNtB4g_14native_channel13NativeChannelEINtNtB4g_6oracle12OracleReaderB50_EEs_0EB2R_
FN:8,_RINvNtCskniJnscavRD_10kona_proof16blocking_runtime8block_onINtNtCs8dmkrYGpicx_4core6result6ResultINtNtCs7Lutq36SewB_5alloc3vec3VechENtNtB4_6errors19OracleProviderErrorENCINvNtNtNtCsagClJoJoeWA_11kona_client8fpvm_evm11precompiles12bls12_g1_msm17fpvm_bls12_g1_msmINtNtCsbcJAgMR32cv_13kona_preimage4hint10HintWriterNtNtB4g_14native_channel13NativeChannelEINtNtB4g_6oracle12OracleReaderB50_EEs_0EB2R_
FN:8,_RINvNtCskniJnscavRD_10kona_proof16blocking_runtime8block_onINtNtCs8dmkrYGpicx_4core6result6ResultINtNtCs7Lutq36SewB_5alloc3vec3VechENtNtB4_6errors19OracleProviderErrorENCINvNtNtNtCsagClJoJoeWA_11kona_client8fpvm_evm11precompiles12bls12_g2_add17fpvm_bls12_g2_addINtNtCsbcJAgMR32cv_13kona_preimage4hint10HintWriterNtNtB4g_14native_channel13NativeChannelEINtNtB4g_6oracle12OracleReaderB50_EEs_0EB2R_
FN:8,_RINvNtCskniJnscavRD_10kona_proof16blocking_runtime8block_onINtNtCs8dmkrYGpicx_4core6result6ResultINtNtCs7Lutq36SewB_5alloc3vec3VechENtNtB4_6errors19OracleProviderErrorENCINvNtNtNtCsagClJoJoeWA_11kona_client8fpvm_evm11precompiles12bls12_g2_msm17fpvm_bls12_g2_msmINtNtCsbcJAgMR32cv_13kona_preimage4hint10HintWriterNtNtB4g_14native_channel13NativeChannelEINtNtB4g_6oracle12OracleReaderB50_EEs_0EB2R_
FN:8,_RINvNtCskniJnscavRD_10kona_proof16blocking_runtime8block_onINtNtCs8dmkrYGpicx_4core6result6ResultINtNtCs7Lutq36SewB_5alloc3vec3VechENtNtB4_6errors19OracleProviderErrorENCINvNtNtNtCsagClJoJoeWA_11kona_client8fpvm_evm11precompiles12bls12_map_fp17fpvm_bls12_map_fpINtNtCsbcJAgMR32cv_13kona_preimage4hint10HintWriterNtNtB4g_14native_channel13NativeChannelEINtNtB4g_6oracle12OracleReaderB50_EEs_0EB2R_
FN:8,_RINvNtCskniJnscavRD_10kona_proof16blocking_runtime8block_onINtNtCs8dmkrYGpicx_4core6result6ResultINtNtCs7Lutq36SewB_5alloc3vec3VechENtNtB4_6errors19OracleProviderErrorENCINvNtNtNtCsagClJoJoeWA_11kona_client8fpvm_evm11precompiles13bls12_map_fp218fpvm_bls12_map_fp2INtNtCsbcJAgMR32cv_13kona_preimage4hint10HintWriterNtNtB4i_14native_channel13NativeChannelEINtNtB4i_6oracle12OracleReaderB52_EEs_0EB2R_
FN:8,_RINvNtCskniJnscavRD_10kona_proof16blocking_runtime8block_onINtNtCs8dmkrYGpicx_4core6result6ResultINtNtCs7Lutq36SewB_5alloc3vec3VechENtNtB4_6errors19OracleProviderErrorENCINvNtNtNtCsagClJoJoeWA_11kona_client8fpvm_evm11precompiles14kzg_point_eval19fpvm_kzg_point_evalINtNtCsbcJAgMR32cv_13kona_preimage4hint10HintWriterNtNtB4k_14native_channel13NativeChannelEINtNtB4k_6oracle12OracleReaderB54_EEs_0EB2R_
FN:8,_RINvNtCskniJnscavRD_10kona_proof16blocking_runtime8block_onINtNtCs8dmkrYGpicx_4core6result6ResultINtNtCs7Lutq36SewB_5alloc3vec3VechENtNtB4_6errors19OracleProviderErrorENCINvNtNtNtCsagClJoJoeWA_11kona_client8fpvm_evm11precompiles9ecrecover15fpvm_ec_recoverINtNtCsbcJAgMR32cv_13kona_preimage4hint10HintWriterNtNtB4a_14native_channel13NativeChannelEINtNtB4a_6oracle12OracleReaderB4U_EEs_0EB2R_
FN:11,_RNCINvNtCslXQRWBiPfxI_10kona_proof16blocking_runtime8block_onlINtNtNtCs8dmkrYGpicx_4core6future5ready5ReadylEE0B6_
FN:11,_RNCINvNtCslXQRWBiPfxI_10kona_proof16blocking_runtime8block_onlNCNvNtB4_5testss_13test_block_on0E0B6_
FN:55,_RNCNvNtNtCslXQRWBiPfxI_10kona_proof16blocking_runtime5testss_13test_block_on0B7_
FN:54,_RNvNtNtCslXQRWBiPfxI_10kona_proof16blocking_runtime5testss_13test_block_on
FN:60,_RNvNtNtCslXQRWBiPfxI_10kona_proof16blocking_runtime5testss_19test_block_on_ready
FN:8,_RINvNtCslXQRWBiPfxI_10kona_proof16blocking_runtime8block_onlINtNtNtCs8dmkrYGpicx_4core6future5ready5ReadylEEB4_
FN:8,_RINvNtCslXQRWBiPfxI_10kona_proof16blocking_runtime8block_onlNCNvNtB2_5testss_13test_block_on0EB4_
FNDA:1,_RNCINvNtCskniJnscavRD_10kona_proof16blocking_runtime8block_onINtNtCs8dmkrYGpicx_4core6result6ResultINtNtCs7Lutq36SewB_5alloc3vec3VechENtNtB6_6errors19OracleProviderErrorENCINvNtNtNtCsagClJoJoeWA_11kona_client8fpvm_evm11precompiles10bls12_pair18fpvm_bls12_pairingINtNtCsbcJAgMR32cv_13kona_preimage4hint10HintWriterNtNtB4h_14native_channel13NativeChannelEINtNtB4h_6oracle12OracleReaderB51_EEs_0E0B2T_
FNDA:2,_RNCINvNtCskniJnscavRD_10kona_proof16blocking_runtime8block_onINtNtCs8dmkrYGpicx_4core6result6ResultINtNtCs7Lutq36SewB_5alloc3vec3VechENtNtB6_6errors19OracleProviderErrorENCINvNtNtNtCsagClJoJoeWA_11kona_client8fpvm_evm11precompiles10bn128_pair15fpvm_bn128_pairINtNtCsbcJAgMR32cv_13kona_preimage4hint10HintWriterNtNtB4e_14native_channel13NativeChannelEINtNtB4e_6oracle12OracleReaderB4Y_EEs_0E0B2T_
FNDA:1,_RNCINvNtCskniJnscavRD_10kona_proof16blocking_runtime8block_onINtNtCs8dmkrYGpicx_4core6result6ResultINtNtCs7Lutq36SewB_5alloc3vec3VechENtNtB6_6errors19OracleProviderErrorENCINvNtNtNtCsagClJoJoeWA_11kona_client8fpvm_evm11precompiles12bls12_g1_add17fpvm_bls12_g1_addINtNtCsbcJAgMR32cv_13kona_preimage4hint10HintWriterNtNtB4i_14native_channel13NativeChannelEINtNtB4i_6oracle12OracleReaderB52_EEs_0E0B2T_
FNDA:1,_RNCINvNtCskniJnscavRD_10kona_proof16blocking_runtime8block_onINtNtCs8dmkrYGpicx_4core6result6ResultINtNtCs7Lutq36SewB_5alloc3vec3VechENtNtB6_6errors19OracleProviderErrorENCINvNtNtNtCsagClJoJoeWA_11kona_client8fpvm_evm11precompiles12bls12_g1_msm17fpvm_bls12_g1_msmINtNtCsbcJAgMR32cv_13kona_preimage4hint10HintWriterNtNtB4i_14native_channel13NativeChannelEINtNtB4i_6oracle12OracleReaderB52_EEs_0E0B2T_
FNDA:1,_RNCINvNtCskniJnscavRD_10kona_proof16blocking_runtime8block_onINtNtCs8dmkrYGpicx_4core6result6ResultINtNtCs7Lutq36SewB_5alloc3vec3VechENtNtB6_6errors19OracleProviderErrorENCINvNtNtNtCsagClJoJoeWA_11kona_client8fpvm_evm11precompiles12bls12_g2_add17fpvm_bls12_g2_addINtNtCsbcJAgMR32cv_13kona_preimage4hint10HintWriterNtNtB4i_14native_channel13NativeChannelEINtNtB4i_6oracle12OracleReaderB52_EEs_0E0B2T_
FNDA:1,_RNCINvNtCskniJnscavRD_10kona_proof16blocking_runtime8block_onINtNtCs8dmkrYGpicx_4core6result6ResultINtNtCs7Lutq36SewB_5alloc3vec3VechENtNtB6_6errors19OracleProviderErrorENCINvNtNtNtCsagClJoJoeWA_11kona_client8fpvm_evm11precompiles12bls12_g2_msm17fpvm_bls12_g2_msmINtNtCsbcJAgMR32cv_13kona_preimage4hint10HintWriterNtNtB4i_14native_channel13NativeChannelEINtNtB4i_6oracle12OracleReaderB52_EEs_0E0B2T_
FNDA:1,_RNCINvNtCskniJnscavRD_10kona_proof16blocking_runtime8block_onINtNtCs8dmkrYGpicx_4core6result6ResultINtNtCs7Lutq36SewB_5alloc3vec3VechENtNtB6_6errors19OracleProviderErrorENCINvNtNtNtCsagClJoJoeWA_11kona_client8fpvm_evm11precompiles12bls12_map_fp17fpvm_bls12_map_fpINtNtCsbcJAgMR32cv_13kona_preimage4hint10HintWriterNtNtB4i_14native_channel13NativeChannelEINtNtB4i_6oracle12OracleReaderB52_EEs_0E0B2T_
FNDA:1,_RNCINvNtCskniJnscavRD_10kona_proof16blocking_runtime8block_onINtNtCs8dmkrYGpicx_4core6result6ResultINtNtCs7Lutq36SewB_5alloc3vec3VechENtNtB6_6errors19OracleProviderErrorENCINvNtNtNtCsagClJoJoeWA_11kona_client8fpvm_evm11precompiles13bls12_map_fp218fpvm_bls12_map_fp2INtNtCsbcJAgMR32cv_13kona_preimage4hint10HintWriterNtNtB4k_14native_channel13NativeChannelEINtNtB4k_6oracle12OracleReaderB54_EEs_0E0B2T_
FNDA:1,_RNCINvNtCskniJnscavRD_10kona_proof16blocking_runtime8block_onINtNtCs8dmkrYGpicx_4core6result6ResultINtNtCs7Lutq36SewB_5alloc3vec3VechENtNtB6_6errors19OracleProviderErrorENCINvNtNtNtCsagClJoJoeWA_11kona_client8fpvm_evm11precompiles14kzg_point_eval19fpvm_kzg_point_evalINtNtCsbcJAgMR32cv_13kona_preimage4hint10HintWriterNtNtB4m_14native_channel13NativeChannelEINtNtB4m_6oracle12OracleReaderB56_EEs_0E0B2T_
FNDA:1,_RNCINvNtCskniJnscavRD_10kona_proof16blocking_runtime8block_onINtNtCs8dmkrYGpicx_4core6result6ResultINtNtCs7Lutq36SewB_5alloc3vec3VechENtNtB6_6errors19OracleProviderErrorENCINvNtNtNtCsagClJoJoeWA_11kona_client8fpvm_evm11precompiles9ecrecover15fpvm_ec_recoverINtNtCsbcJAgMR32cv_13kona_preimage4hint10HintWriterNtNtB4c_14native_channel13NativeChannelEINtNtB4c_6oracle12OracleReaderB4W_EEs_0E0B2T_
FNDA:1,_RINvNtCskniJnscavRD_10kona_proof16blocking_runtime8block_onINtNtCs8dmkrYGpicx_4core6result6ResultINtNtCs7Lutq36SewB_5alloc3vec3VechENtNtB4_6errors19OracleProviderErrorENCINvNtNtNtCsagClJoJoeWA_11kona_client8fpvm_evm11precompiles10bls12_pair18fpvm_bls12_pairingINtNtCsbcJAgMR32cv_13kona_preimage4hint10HintWriterNtNtB4f_14native_channel13NativeChannelEINtNtB4f_6oracle12OracleReaderB4Z_EEs_0EB2R_
FNDA:2,_RINvNtCskniJnscavRD_10kona_proof16blocking_runtime8block_onINtNtCs8dmkrYGpicx_4core6result6ResultINtNtCs7Lutq36SewB_5alloc3vec3VechENtNtB4_6errors19OracleProviderErrorENCINvNtNtNtCsagClJoJoeWA_11kona_client8fpvm_evm11precompiles10bn128_pair15fpvm_bn128_pairINtNtCsbcJAgMR32cv_13kona_preimage4hint10HintWriterNtNtB4c_14native_channel13NativeChannelEINtNtB4c_6oracle12OracleReaderB4W_EEs_0EB2R_
FNDA:1,_RINvNtCskniJnscavRD_10kona_proof16blocking_runtime8block_onINtNtCs8dmkrYGpicx_4core6result6ResultINtNtCs7Lutq36SewB_5alloc3vec3VechENtNtB4_6errors19OracleProviderErrorENCINvNtNtNtCsagClJoJoeWA_11kona_client8fpvm_evm11precompiles12bls12_g1_add17fpvm_bls12_g1_addINtNtCsbcJAgMR32cv_13kona_preimage4hint10HintWriterNtNtB4g_14native_channel13NativeChannelEINtNtB4g_6oracle12OracleReaderB50_EEs_0EB2R_
FNDA:1,_RINvNtCskniJnscavRD_10kona_proof16blocking_runtime8block_onINtNtCs8dmkrYGpicx_4core6result6ResultINtNtCs7Lutq36SewB_5alloc3vec3VechENtNtB4_6errors19OracleProviderErrorENCINvNtNtNtCsagClJoJoeWA_11kona_client8fpvm_evm11precompiles12bls12_g1_msm17fpvm_bls12_g1_msmINtNtCsbcJAgMR32cv_13kona_preimage4hint10HintWriterNtNtB4g_14native_channel13NativeChannelEINtNtB4g_6oracle12OracleReaderB50_EEs_0EB2R_
FNDA:1,_RINvNtCskniJnscavRD_10kona_proof16blocking_runtime8block_onINtNtCs8dmkrYGpicx_4core6result6ResultINtNtCs7Lutq36SewB_5alloc3vec3VechENtNtB4_6errors19OracleProviderErrorENCINvNtNtNtCsagClJoJoeWA_11kona_client8fpvm_evm11precompiles12bls12_g2_add17fpvm_bls12_g2_addINtNtCsbcJAgMR32cv_13kona_preimage4hint10HintWriterNtNtB4g_14native_channel13NativeChannelEINtNtB4g_6oracle12OracleReaderB50_EEs_0EB2R_
FNDA:1,_RINvNtCskniJnscavRD_10kona_proof16blocking_runtime8block_onINtNtCs8dmkrYGpicx_4core6result6ResultINtNtCs7Lutq36SewB_5alloc3vec3VechENtNtB4_6errors19OracleProviderErrorENCINvNtNtNtCsagClJoJoeWA_11kona_client8fpvm_evm11precompiles12bls12_g2_msm17fpvm_bls12_g2_msmINtNtCsbcJAgMR32cv_13kona_preimage4hint10HintWriterNtNtB4g_14native_channel13NativeChannelEINtNtB4g_6oracle12OracleReaderB50_EEs_0EB2R_
FNDA:1,_RINvNtCskniJnscavRD_10kona_proof16blocking_runtime8block_onINtNtCs8dmkrYGpicx_4core6result6ResultINtNtCs7Lutq36SewB_5alloc3vec3VechENtNtB4_6errors19OracleProviderErrorENCINvNtNtNtCsagClJoJoeWA_11kona_client8fpvm_evm11precompiles12bls12_map_fp17fpvm_bls12_map_fpINtNtCsbcJAgMR32cv_13kona_preimage4hint10HintWriterNtNtB4g_14native_channel13NativeChannelEINtNtB4g_6oracle12OracleReaderB50_EEs_0EB2R_
FNDA:1,_RINvNtCskniJnscavRD_10kona_proof16blocking_runtime8block_onINtNtCs8dmkrYGpicx_4core6result6ResultINtNtCs7Lutq36SewB_5alloc3vec3VechENtNtB4_6errors19OracleProviderErrorENCINvNtNtNtCsagClJoJoeWA_11kona_client8fpvm_evm11precompiles13bls12_map_fp218fpvm_bls12_map_fp2INtNtCsbcJAgMR32cv_13kona_preimage4hint10HintWriterNtNtB4i_14native_channel13NativeChannelEINtNtB4i_6oracle12OracleReaderB52_EEs_0EB2R_
FNDA:1,_RINvNtCskniJnscavRD_10kona_proof16blocking_runtime8block_onINtNtCs8dmkrYGpicx_4core6result6ResultINtNtCs7Lutq36SewB_5alloc3vec3VechENtNtB4_6errors19OracleProviderErrorENCINvNtNtNtCsagClJoJoeWA_11kona_client8fpvm_evm11precompiles14kzg_point_eval19fpvm_kzg_point_evalINtNtCsbcJAgMR32cv_13kona_preimage4hint10HintWriterNtNtB4k_14native_channel13NativeChannelEINtNtB4k_6oracle12OracleReaderB54_EEs_0EB2R_
FNDA:1,_RINvNtCskniJnscavRD_10kona_proof16blocking_runtime8block_onINtNtCs8dmkrYGpicx_4core6result6ResultINtNtCs7Lutq36SewB_5alloc3vec3VechENtNtB4_6errors19OracleProviderErrorENCINvNtNtNtCsagClJoJoeWA_11kona_client8fpvm_evm11precompiles9ecrecover15fpvm_ec_recoverINtNtCsbcJAgMR32cv_13kona_preimage4hint10HintWriterNtNtB4a_14native_channel13NativeChannelEINtNtB4a_6oracle12OracleReaderB4U_EEs_0EB2R_
FNDA:0,_RNCINvNtCslXQRWBiPfxI_10kona_proof16blocking_runtime8block_onlINtNtNtCs8dmkrYGpicx_4core6future5ready5ReadylEE0B6_
FNDA:0,_RNCINvNtCslXQRWBiPfxI_10kona_proof16blocking_runtime8block_onlNCNvNtB4_5testss_13test_block_on0E0B6_
FNDA:1,_RNCNvNtNtCslXQRWBiPfxI_10kona_proof16blocking_runtime5testss_13test_block_on0B7_
FNDA:1,_RNvNtNtCslXQRWBiPfxI_10kona_proof16blocking_runtime5testss_13test_block_on
FNDA:1,_RNvNtNtCslXQRWBiPfxI_10kona_proof16blocking_runtime5testss_19test_block_on_ready
FNDA:1,_RINvNtCslXQRWBiPfxI_10kona_proof16blocking_runtime8block_onlINtNtNtCs8dmkrYGpicx_4core6future5ready5ReadylEEB4_
FNDA:1,_RINvNtCslXQRWBiPfxI_10kona_proof16blocking_runtime8block_onlNCNvNtB2_5testss_13test_block_on0EB4_
FNF:5
FNH:5
DA:8,13
DA:10,13
DA:11,11
DA:14,2
DA:16,13
DA:54,1
DA:55,1
DA:56,1
DA:57,1
DA:60,1
DA:61,1
DA:62,1
DA:63,1
BRF:0
BRH:0
LF:15
LH:14
end_of_record
SF:/Users/andreasbigger/kona/crates/proof/proof/src/boot.rs
FN:65,_RINvMNtCslXQRWBiPfxI_10kona_proof4bootNtB3_8BootInfo4loadpEB5_
FN:68,_RNCINvMNtCslXQRWBiPfxI_10kona_proof4bootNtB5_8BootInfo4loadpE0B7_
FNDA:0,_RINvMNtCslXQRWBiPfxI_10kona_proof4bootNtB3_8BootInfo4loadpEB5_
FNDA:0,_RNCINvMNtCslXQRWBiPfxI_10kona_proof4bootNtB5_8BootInfo4loadpE0B7_
FNF:2
FNH:0
DA:65,0
DA:66,0
DA:67,0
DA:68,0
DA:69,0
DA:70,0
DA:71,0
DA:72,0
DA:73,0
DA:75,0
DA:76,0
DA:77,0
DA:78,0
DA:79,0
DA:81,0
DA:82,0
DA:83,0
DA:84,0
DA:85,0
DA:87,0
DA:88,0
DA:89,0
DA:90,0
DA:91,0
DA:92,0
DA:93,0
DA:94,0
DA:96,0
DA:97,0
DA:98,0
DA:99,0
DA:100,0
DA:101,0
DA:102,0
DA:103,0
DA:108,0
DA:109,0
DA:111,0
DA:113,0
DA:116,0
DA:117,0
DA:118,0
DA:119,0
DA:120,0
DA:123,0
DA:124,0
DA:125,0
DA:126,0
DA:127,0
DA:128,0
DA:129,0
DA:130,0
DA:131,0
BRF:0
BRH:0
LF:54
LH:0
end_of_record
SF:/Users/andreasbigger/kona/crates/proof/proof/src/caching_oracle.rs
FN:79,_RNCNvXININtCslXQRWBiPfxI_10kona_proof14caching_oracles2_0ppEINtB7_13CachingOracleppENtNtCsbcJAgMR32cv_13kona_preimage6traits20PreimageOracleClient3get0B9_
FN:90,_RNCNvXININtCslXQRWBiPfxI_10kona_proof14caching_oracles2_0ppEINtB7_13CachingOracleppENtNtCsbcJAgMR32cv_13kona_preimage6traits20PreimageOracleClient9get_exact0B9_
FN:111,_RNCNvXININtCslXQRWBiPfxI_10kona_proof14caching_oracles3_0ppEINtB7_13CachingOracleppENtNtCsbcJAgMR32cv_13kona_preimage6traits16HintWriterClient5write0B9_
FN:45,_RNvMNtCslXQRWBiPfxI_10kona_proof14caching_oracleINtB2_13CachingOracleppE3newB4_
FN:88,_RNvXININtCslXQRWBiPfxI_10kona_proof14caching_oracles2_0ppEINtB5_13CachingOracleppENtNtCsbcJAgMR32cv_13kona_preimage6traits20PreimageOracleClient3getB7_
FN:102,_RNvXININtCslXQRWBiPfxI_10kona_proof14caching_oracles2_0ppEINtB5_13CachingOracleppENtNtCsbcJAgMR32cv_13kona_preimage6traits20PreimageOracleClient9get_exactB7_
FN:113,_RNvXININtCslXQRWBiPfxI_10kona_proof14caching_oracles3_0ppEINtB5_13CachingOracleppENtNtCsbcJAgMR32cv_13kona_preimage6traits16HintWriterClient5writeB7_
FN:68,_RNvXININtCslXQRWBiPfxI_10kona_proof14caching_oracles_0ppEINtB5_13CachingOracleppENtB5_14FlushableCache5flushB7_
FNDA:0,_RNCNvXININtCslXQRWBiPfxI_10kona_proof14caching_oracles2_0ppEINtB7_13CachingOracleppENtNtCsbcJAgMR32cv_13kona_preimage6traits20PreimageOracleClient3get0B9_
FNDA:0,_RNCNvXININtCslXQRWBiPfxI_10kona_proof14caching_oracles2_0ppEINtB7_13CachingOracleppENtNtCsbcJAgMR32cv_13kona_preimage6traits20PreimageOracleClient9get_exact0B9_
FNDA:0,_RNCNvXININtCslXQRWBiPfxI_10kona_proof14caching_oracles3_0ppEINtB7_13CachingOracleppENtNtCsbcJAgMR32cv_13kona_preimage6traits16HintWriterClient5write0B9_
FNDA:0,_RNvMNtCslXQRWBiPfxI_10kona_proof14caching_oracleINtB2_13CachingOracleppE3newB4_
FNDA:0,_RNvXININtCslXQRWBiPfxI_10kona_proof14caching_oracles2_0ppEINtB5_13CachingOracleppENtNtCsbcJAgMR32cv_13kona_preimage6traits20PreimageOracleClient3getB7_
FNDA:0,_RNvXININtCslXQRWBiPfxI_10kona_proof14caching_oracles2_0ppEINtB5_13CachingOracleppENtNtCsbcJAgMR32cv_13kona_preimage6traits20PreimageOracleClient9get_exactB7_
FNDA:0,_RNvXININtCslXQRWBiPfxI_10kona_proof14caching_oracles3_0ppEINtB5_13CachingOracleppENtNtCsbcJAgMR32cv_13kona_preimage6traits16HintWriterClient5writeB7_
FNDA:0,_RNvXININtCslXQRWBiPfxI_10kona_proof14caching_oracles_0ppEINtB5_13CachingOracleppENtB5_14FlushableCache5flushB7_
FNF:8
FNH:0
DA:45,0
DA:46,0
DA:47,0
DA:48,0
DA:49,0
DA:50,0
DA:51,0
DA:52,0
DA:53,0
DA:68,0
DA:69,0
DA:70,0
DA:79,0
DA:80,0
DA:81,0
DA:82,0
DA:84,0
DA:85,0
DA:86,0
DA:88,0
DA:90,0
DA:91,0
DA:92,0
DA:95,0
DA:96,0
DA:98,0
DA:99,0
DA:100,0
DA:102,0
DA:111,0
DA:112,0
DA:113,0
BRF:0
BRH:0
LF:35
LH:0
end_of_record
SF:/Users/andreasbigger/kona/crates/proof/proof/src/eip2935.rs
FN:32,_RNCINvNtCslXQRWBiPfxI_10kona_proof7eip293523eip_2935_history_lookupNtNtB4_5tests16MockTrieProviderNtNtCsiRI8oMBxfZX_8kona_mpt4noop14NoopTrieHinterE0B6_
FN:46,_RNCNCINvNtCslXQRWBiPfxI_10kona_proof7eip293523eip_2935_history_lookupNtNtB6_5tests16MockTrieProviderNtNtCsiRI8oMBxfZX_8kona_mpt4noop14NoopTrieHinterE00B8_
FN:137,_RNvNtNtNtCslXQRWBiPfxI_10kona_proof7eip29355tests28test_eip_2935_history_lookups_29case_1_block_number_in_window
FN:137,_RNvNtNtNtCslXQRWBiPfxI_10kona_proof7eip29355tests28test_eip_2935_history_lookups_34case_2_block_number_outside_window
FN:137,_RNvNtNtNtCslXQRWBiPfxI_10kona_proof7eip29355tests28test_eip_2935_history_lookups_38case_3_block_number_at_window_boundary
FN:137,_RNvNtNtNtCslXQRWBiPfxI_10kona_proof7eip29355tests28test_eip_2935_history_lookups_47case_4_block_number_at_window_boundary_plus_one
FN:118,_RNCNvMNtNtCslXQRWBiPfxI_10kona_proof7eip29355testsNtB4_16MockTrieProvider3new0B8_
FN:23,_RINvNtCslXQRWBiPfxI_10kona_proof7eip293523eip_2935_history_lookupNtNtB2_5tests16MockTrieProviderNtNtCsiRI8oMBxfZX_8kona_mpt4noop14NoopTrieHinterEB4_
FN:132,_RNCNvXs_NtNtCslXQRWBiPfxI_10kona_proof7eip29355testsNtB6_16MockTrieProviderNtNtCsiRI8oMBxfZX_8kona_mpt6traits12TrieProvider17trie_node_by_hash0Ba_
FN:82,_RNvMNtNtCslXQRWBiPfxI_10kona_proof7eip29355testsNtB2_16MockTrieProvider3new
FN:128,_RNvXs_NtNtCslXQRWBiPfxI_10kona_proof7eip29355testsNtB4_16MockTrieProviderNtNtCsiRI8oMBxfZX_8kona_mpt6traits12TrieProvider17trie_node_by_hash
FNDA:4,_RNCINvNtCslXQRWBiPfxI_10kona_proof7eip293523eip_2935_history_lookupNtNtB4_5tests16MockTrieProviderNtNtCsiRI8oMBxfZX_8kona_mpt4noop14NoopTrieHinterE0B6_
FNDA:0,_RNCNCINvNtCslXQRWBiPfxI_10kona_proof7eip293523eip_2935_history_lookupNtNtB6_5tests16MockTrieProviderNtNtCsiRI8oMBxfZX_8kona_mpt4noop14NoopTrieHinterE00B8_
FNDA:1,_RNvNtNtNtCslXQRWBiPfxI_10kona_proof7eip29355tests28test_eip_2935_history_lookups_29case_1_block_number_in_window
FNDA:1,_RNvNtNtNtCslXQRWBiPfxI_10kona_proof7eip29355tests28test_eip_2935_history_lookups_34case_2_block_number_outside_window
FNDA:1,_RNvNtNtNtCslXQRWBiPfxI_10kona_proof7eip29355tests28test_eip_2935_history_lookups_38case_3_block_number_at_window_boundary
FNDA:1,_RNvNtNtNtCslXQRWBiPfxI_10kona_proof7eip29355tests28test_eip_2935_history_lookups_47case_4_block_number_at_window_boundary_plus_one
FNDA:8,_RNCNvMNtNtCslXQRWBiPfxI_10kona_proof7eip29355testsNtB4_16MockTrieProvider3new0B8_
FNDA:4,_RINvNtCslXQRWBiPfxI_10kona_proof7eip293523eip_2935_history_lookupNtNtB2_5tests16MockTrieProviderNtNtCsiRI8oMBxfZX_8kona_mpt4noop14NoopTrieHinterEB4_
FNDA:8,_RNCNvXs_NtNtCslXQRWBiPfxI_10kona_proof7eip29355testsNtB6_16MockTrieProviderNtNtCsiRI8oMBxfZX_8kona_mpt6traits12TrieProvider17trie_node_by_hash0Ba_
FNDA:4,_RNvMNtNtCslXQRWBiPfxI_10kona_proof7eip29355testsNtB2_16MockTrieProvider3new
FNDA:8,_RNvXs_NtNtCslXQRWBiPfxI_10kona_proof7eip29355testsNtB4_16MockTrieProviderNtNtCsiRI8oMBxfZX_8kona_mpt6traits12TrieProvider17trie_node_by_hash
FNF:8
FNH:7
DA:23,4
DA:24,4
DA:25,4
DA:26,4
DA:27,4
DA:28,4
DA:29,4
DA:30,4
DA:31,4
DA:32,4
DA:37,4
DA:38,1
DA:40,3
DA:44,4
DA:45,4
DA:46,4
DA:49,4
DA:50,4
DA:51,4
DA:52,4
DA:53,4
DA:56,4
DA:57,4
DA:58,4
DA:60,4
DA:61,4
DA:82,4
DA:83,4
DA:84,4
DA:85,4
DA:86,4
DA:87,4
DA:88,4
DA:89,4
DA:90,4
DA:91,4
DA:92,4
DA:93,4
DA:94,4
DA:95,4
DA:96,4
DA:97,4
DA:98,4
DA:99,4
DA:100,4
DA:101,4
DA:102,4
DA:103,4
DA:104,4
DA:105,4
DA:106,4
DA:107,4
DA:108,4
DA:109,4
DA:110,4
DA:111,4
DA:112,4
DA:113,4
DA:114,4
DA:115,4
DA:116,4
DA:117,4
DA:118,8
DA:119,4
DA:120,4
DA:121,4
DA:122,4
DA:128,8
DA:129,8
DA:130,8
DA:131,8
DA:132,8
DA:133,8
DA:134,8
DA:137,4
BRF:0
BRH:0
LF:79
LH:78
end_of_record
SF:/Users/andreasbigger/kona/crates/proof/proof/src/errors.rs
FN:46,_RNvXNtCslXQRWBiPfxI_10kona_proof6errorsNtNtNtCshyLoJyf1xsT_11kona_derive6errors8pipeline17PipelineErrorKindINtNtCs8dmkrYGpicx_4core7convert4FromNtB2_19OracleProviderErrorE4from
FNDA:0,_RNvXNtCslXQRWBiPfxI_10kona_proof6errorsNtNtNtCshyLoJyf1xsT_11kona_derive6errors8pipeline17PipelineErrorKindINtNtCs8dmkrYGpicx_4core7convert4FromNtB2_19OracleProviderErrorE4from
FNF:1
FNH:0
DA:46,0
DA:47,0
DA:48,0
DA:49,0
DA:51,0
BRF:0
BRH:0
LF:5
LH:0
end_of_record
SF:/Users/andreasbigger/kona/crates/proof/proof/src/executor.rs
FN:90,_RNCNCNvXININtCslXQRWBiPfxI_10kona_proof8executors0_0pppEINtB9_12KonaExecutorpppENtNtCs56LDFUlC5Rl_11kona_driver8executor8Executor15execute_payload00Bb_
FN:91,_RNCNCNvXININtCslXQRWBiPfxI_10kona_proof8executors0_0pppEINtB9_12KonaExecutorpppENtNtCs56LDFUlC5Rl_11kona_driver8executor8Executor15execute_payload0s_0Bb_
FN:88,_RNCNvXININtCslXQRWBiPfxI_10kona_proof8executors0_0pppEINtB7_12KonaExecutorpppENtNtCs56LDFUlC5Rl_11kona_driver8executor8Executor15execute_payload0B9_
FN:65,_RNCNvXININtCslXQRWBiPfxI_10kona_proof8executors0_0pppEINtB7_12KonaExecutorpppENtNtCs56LDFUlC5Rl_11kona_driver8executor8Executor16wait_until_ready0B9_
FN:98,_RNCNvXININtCslXQRWBiPfxI_10kona_proof8executors0_0pppEINtB7_12KonaExecutorpppENtNtCs56LDFUlC5Rl_11kona_driver8executor8Executor19compute_output_root0B9_
FN:99,_RNCNvXININtCslXQRWBiPfxI_10kona_proof8executors0_0pppEINtB7_12KonaExecutorpppENtNtCs56LDFUlC5Rl_11kona_driver8executor8Executor19compute_output_roots_0B9_
FN:43,_RNvMNtCslXQRWBiPfxI_10kona_proof8executorINtB2_12KonaExecutorpppE3newB4_
FN:93,_RNvXININtCslXQRWBiPfxI_10kona_proof8executors0_0pppEINtB5_12KonaExecutorpppENtNtCs56LDFUlC5Rl_11kona_driver8executor8Executor15execute_payloadB7_
FN:74,_RNvXININtCslXQRWBiPfxI_10kona_proof8executors0_0pppEINtB5_12KonaExecutorpppENtNtCs56LDFUlC5Rl_11kona_driver8executor8Executor16update_safe_headB7_
FN:68,_RNvXININtCslXQRWBiPfxI_10kona_proof8executors0_0pppEINtB5_12KonaExecutorpppENtNtCs56LDFUlC5Rl_11kona_driver8executor8Executor16wait_until_readyB7_
FN:96,_RNvXININtCslXQRWBiPfxI_10kona_proof8executors0_0pppEINtB5_12KonaExecutorpppENtNtCs56LDFUlC5Rl_11kona_driver8executor8Executor19compute_output_rootB7_
FNDA:0,_RNCNCNvXININtCslXQRWBiPfxI_10kona_proof8executors0_0pppEINtB9_12KonaExecutorpppENtNtCs56LDFUlC5Rl_11kona_driver8executor8Executor15execute_payload00Bb_
FNDA:0,_RNCNCNvXININtCslXQRWBiPfxI_10kona_proof8executors0_0pppEINtB9_12KonaExecutorpppENtNtCs56LDFUlC5Rl_11kona_driver8executor8Executor15execute_payload0s_0Bb_
FNDA:0,_RNCNvXININtCslXQRWBiPfxI_10kona_proof8executors0_0pppEINtB7_12KonaExecutorpppENtNtCs56LDFUlC5Rl_11kona_driver8executor8Executor15execute_payload0B9_
FNDA:0,_RNCNvXININtCslXQRWBiPfxI_10kona_proof8executors0_0pppEINtB7_12KonaExecutorpppENtNtCs56LDFUlC5Rl_11kona_driver8executor8Executor16wait_until_ready0B9_
FNDA:0,_RNCNvXININtCslXQRWBiPfxI_10kona_proof8executors0_0pppEINtB7_12KonaExecutorpppENtNtCs56LDFUlC5Rl_11kona_driver8executor8Executor19compute_output_root0B9_
FNDA:0,_RNCNvXININtCslXQRWBiPfxI_10kona_proof8executors0_0pppEINtB7_12KonaExecutorpppENtNtCs56LDFUlC5Rl_11kona_driver8executor8Executor19compute_output_roots_0B9_
FNDA:0,_RNvMNtCslXQRWBiPfxI_10kona_proof8executorINtB2_12KonaExecutorpppE3newB4_
FNDA:0,_RNvXININtCslXQRWBiPfxI_10kona_proof8executors0_0pppEINtB5_12KonaExecutorpppENtNtCs56LDFUlC5Rl_11kona_driver8executor8Executor15execute_payloadB7_
FNDA:0,_RNvXININtCslXQRWBiPfxI_10kona_proof8executors0_0pppEINtB5_12KonaExecutorpppENtNtCs56LDFUlC5Rl_11kona_driver8executor8Executor16update_safe_headB7_
FNDA:0,_RNvXININtCslXQRWBiPfxI_10kona_proof8executors0_0pppEINtB5_12KonaExecutorpppENtNtCs56LDFUlC5Rl_11kona_driver8executor8Executor16wait_until_readyB7_
FNDA:0,_RNvXININtCslXQRWBiPfxI_10kona_proof8executors0_0pppEINtB5_12KonaExecutorpppENtNtCs56LDFUlC5Rl_11kona_driver8executor8Executor19compute_output_rootB7_
FNF:11
FNH:0
DA:43,0
DA:44,0
DA:45,0
DA:46,0
DA:47,0
DA:48,0
DA:49,0
DA:50,0
DA:51,0
DA:65,0
DA:66,0
DA:67,0
DA:68,0
DA:74,0
DA:75,0
DA:76,0
DA:77,0
DA:78,0
DA:79,0
DA:80,0
DA:81,0
DA:82,0
DA:88,0
DA:89,0
DA:90,0
DA:91,0
DA:92,0
DA:93,0
DA:96,0
DA:97,0
DA:98,0
DA:99,0
DA:100,0
DA:101,0
BRF:0
BRH:0
LF:40
LH:0
end_of_record
SF:/Users/andreasbigger/kona/crates/proof/proof/src/hint.rs
FN:52,_RNCINvMNtCskniJnscavRD_10kona_proof4hintINtB5_4HintNtB5_8HintTypeE4sendINtNtCsbcJAgMR32cv_13kona_preimage4hint10HintWriterNtNtB1c_14native_channel13NativeChannelEE0CsagClJoJoeWA_11kona_client
FN:52,_RINvMNtCskniJnscavRD_10kona_proof4hintINtB3_4HintNtB3_8HintTypeE4sendINtNtCsbcJAgMR32cv_13kona_preimage4hint10HintWriterNtNtB1a_14native_channel13NativeChannelEECsagClJoJoeWA_11kona_client
FN:77,_RNCNvXs_NtCskniJnscavRD_10kona_proof4hintINtB6_4HintNtB6_8HintTypeENtNtNtCs8dmkrYGpicx_4core3str6traits7FromStr8from_str0CsagClJoJoeWA_11kona_client
FN:57,_RNvMNtCskniJnscavRD_10kona_proof4hintINtB2_4HintNtB2_8HintTypeE6encodeCsagClJoJoeWA_11kona_client
FN:68,_RNvXs_NtCskniJnscavRD_10kona_proof4hintINtB4_4HintNtB4_8HintTypeENtNtNtCs8dmkrYGpicx_4core3str6traits7FromStr8from_strCsagClJoJoeWA_11kona_client
FN:28,_RINvMNtCskniJnscavRD_10kona_proof4hintINtB3_4HintNtB3_8HintTypeE3newINtNtCs7Lutq36SewB_5alloc3vec3VechEEB5_
FN:121,_RNCNvMs0_NtCskniJnscavRD_10kona_proof4hintNtB7_8HintType9with_datas_0B9_
FN:119,_RNvMs0_NtCskniJnscavRD_10kona_proof4hintNtB5_8HintType9with_data
